

Microchip MPLAB XC8 Assembler V2.20 build 20200408173844 
                                                                                               Sun Jul 12 16:50:13 2020

Microchip MPLAB XC8 C Compiler v2.20 (Free license) build 20200408173844 Og1 
     1                           	processor	16F877A
     2                           	pagewidth 120
     3                           	opt	flic
     4                           	psect	strings,global,class=STRING,delta=2,noexec
     5                           	psect	cinit,global,class=CODE,merge=1,delta=2
     6                           	psect	bssBANK0,global,class=BANK0,space=1,delta=1,noexec
     7                           	psect	clrtext,global,class=CODE,delta=2
     8                           	psect	cstackBANK1,global,class=BANK1,space=1,delta=1,noexec
     9                           	psect	cstackCOMMON,global,class=COMMON,space=1,delta=1,noexec
    10                           	psect	cstackBANK0,global,class=BANK0,space=1,delta=1,noexec
    11                           	psect	maintext,global,class=CODE,split=1,delta=2
    12                           	psect	text1,local,class=CODE,merge=1,delta=2
    13                           	psect	text2,local,class=CODE,merge=1,delta=2
    14                           	psect	text3,local,class=CODE,merge=1,delta=2
    15                           	psect	text4,local,class=CODE,merge=1,delta=2
    16                           	psect	text5,local,class=CODE,merge=1,delta=2
    17                           	psect	text6,local,class=CODE,merge=1,delta=2
    18                           	psect	text7,local,class=CODE,merge=1,delta=2
    19                           	psect	text8,local,class=CODE,merge=1,delta=2
    20                           	psect	text9,local,class=CODE,merge=1,delta=2
    21                           	psect	text10,local,class=CODE,merge=1,delta=2
    22                           	psect	text11,local,class=CODE,merge=1,delta=2
    23                           	psect	text12,local,class=CODE,merge=1,delta=2
    24                           	psect	text13,local,class=CODE,merge=1,delta=2
    25                           	psect	text14,local,class=CODE,merge=1,delta=2
    26                           	psect	text15,local,class=CODE,merge=1,delta=2
    27                           	psect	text16,local,class=CODE,merge=1,delta=2
    28                           	psect	text17,local,class=CODE,merge=1,delta=2
    29                           	psect	text18,local,class=CODE,merge=1,delta=2
    30                           	psect	text19,local,class=CODE,merge=1,delta=2
    31                           	psect	text20,local,class=CODE,merge=1,delta=2
    32                           	psect	text21,local,class=CODE,merge=1,delta=2,group=1
    33                           	psect	text22,local,class=CODE,merge=1,delta=2
    34                           	psect	text23,local,class=CODE,merge=1,delta=2
    35                           	psect	text24,local,class=CODE,merge=1,delta=2
    36                           	psect	text25,local,class=CODE,merge=1,delta=2
    37                           	psect	text26,local,class=CODE,merge=1,delta=2
    38                           	psect	text27,local,class=CODE,merge=1,delta=2
    39                           	psect	text28,local,class=CODE,merge=1,delta=2
    40                           	psect	text29,local,class=CODE,merge=1,delta=2
    41                           	psect	text30,local,class=CODE,merge=1,delta=2
    42                           	psect	text31,local,class=CODE,merge=1,delta=2
    43                           	psect	text32,local,class=CODE,merge=1,delta=2
    44                           	psect	intentry,global,class=CODE,delta=2
    45                           	psect	text33,local,class=CODE,merge=1,delta=2
    46                           	psect	text34,local,class=CODE,merge=1,delta=2
    47                           	psect	text35,local,class=CODE,merge=1,delta=2
    48                           	psect	text36,local,class=CODE,merge=1,delta=2
    49                           	psect	text37,local,class=CODE,merge=1,delta=2
    50                           	psect	text38,local,class=CODE,merge=1,delta=2,group=1
    51                           	psect	text39,local,class=CODE,merge=1,delta=2,group=1
    52                           	psect	text40,local,class=CODE,merge=1,delta=2
    53                           	psect	text41,local,class=CODE,merge=1,delta=2
    54                           	psect	text42,local,class=CODE,merge=1,delta=2
    55                           	psect	text43,local,class=CODE,merge=1,delta=2
    56                           	psect	text44,local,class=CODE,merge=1,delta=2
    57                           	psect	text45,local,class=CODE,merge=1,delta=2
    58                           	psect	text46,local,class=CODE,merge=1,delta=2
    59                           	psect	text47,local,class=CODE,merge=1,delta=2
    60                           	psect	text48,local,class=CODE,merge=1,delta=2
    61                           	psect	text49,local,class=CODE,merge=1,delta=2
    62                           	psect	text50,local,class=CODE,merge=1,delta=2
    63                           	psect	text51,local,class=CODE,merge=1,delta=2
    64                           	psect	text52,local,class=CODE,merge=1,delta=2
    65                           	psect	text53,local,class=CODE,merge=1,delta=2
    66                           	psect	text54,local,class=CODE,merge=1,delta=2
    67                           	psect	text55,local,class=CODE,merge=1,delta=2
    68                           	psect	text56,local,class=CODE,merge=1,delta=2
    69                           	psect	text57,local,class=CODE,merge=1,delta=2
    70                           	psect	text58,local,class=CODE,merge=1,delta=2
    71                           	psect	text59,local,class=CODE,merge=1,delta=2
    72                           	psect	text60,local,class=CODE,merge=1,delta=2
    73                           	psect	text61,local,class=CODE,merge=1,delta=2
    74                           	psect	text62,local,class=CODE,merge=1,delta=2
    75                           	psect	text63,local,class=CODE,merge=1,delta=2
    76                           	psect	text64,local,class=CODE,merge=1,delta=2,group=1
    77                           	psect	text65,local,class=CODE,merge=1,delta=2,group=1
    78                           	psect	text66,local,class=CODE,merge=1,delta=2
    79                           	psect	functab,global,class=ENTRY,delta=2
    80                           	psect	config,global,abs,ovrld,class=CONFIG,space=4,delta=2,noexec
    81                           	dabs	1,0x7E,2
    82  0000                     
    83                           ; Version 2.20
    84                           ; Generated 12/02/2020 GMT
    85                           ; 
    86                           ; Copyright © 2020, Microchip Technology Inc. and its subsidiaries ("Microchip")
    87                           ; All rights reserved.
    88                           ; 
    89                           ; This software is developed by Microchip Technology Inc. and its subsidiaries ("Microch
      +                          ip").
    90                           ; 
    91                           ; Redistribution and use in source and binary forms, with or without modification, are
    92                           ; permitted provided that the following conditions are met:
    93                           ; 
    94                           ;     1. Redistributions of source code must retain the above copyright notice, this lis
      +                          t of
    95                           ;        conditions and the following disclaimer.
    96                           ; 
    97                           ;     2. Redistributions in binary form must reproduce the above copyright notice, this 
      +                          list
    98                           ;        of conditions and the following disclaimer in the documentation and/or other
    99                           ;        materials provided with the distribution.
   100                           ; 
   101                           ;     3. Microchip's name may not be used to endorse or promote products derived from th
      +                          is
   102                           ;        software without specific prior written permission.
   103                           ; 
   104                           ; THIS SOFTWARE IS PROVIDED BY MICROCHIP "AS IS" AND ANY EXPRESS OR IMPLIED WARRANTIES,
   105                           ; INCLUDING, BUT NOT LIMITED TO, THE IMPLIED WARRANTIES OF MERCHANTABILITY AND FITNESS F
      +                          OR
   106                           ; PURPOSE ARE DISCLAIMED.  IN NO EVENT SHALL MICROCHIP BE LIABLE FOR ANY DIRECT, INDIREC
      +                          T,
   107                           ; INCIDENTAL, SPECIAL, EXEMPLARY, OR CONSEQUENTIAL DAMAGES (INCLUDING BUT NOT LIMITED TO
   108                           ; PROCUREMENT OF SUBSTITUTE GOODS OR SERVICES; LOSS OF USE, DATA OR PROFITS; OR BUSINESS
   109                           ; INTERRUPTION) HOWSOEVER CAUSED AND ON ANY THEORY OF LIABILITY, WHETHER IN CONTRACT, ST
      +                          RICT
   110                           ; LIABILITY, OR TORT (INCLUDING NEGLIGENCE OR OTHERWISE) ARISING IN ANY WAY OUT OF THE U
      +                          SE OF
   111                           ; THIS SOFTWARE, EVEN IF ADVISED OF THE POSSIBILITY OF SUCH DAMAGE.
   112                           ; 
   113                           ; 
   114                           ; Code-generator required, PIC16F877A Definitions
   115                           ; 
   116                           ; SFR Addresses
   117  0000                     	;# 
   118  0001                     	;# 
   119  0002                     	;# 
   120  0003                     	;# 
   121  0004                     	;# 
   122  0005                     	;# 
   123  0006                     	;# 
   124  0007                     	;# 
   125  0008                     	;# 
   126  0009                     	;# 
   127  000A                     	;# 
   128  000B                     	;# 
   129  000C                     	;# 
   130  000D                     	;# 
   131  000E                     	;# 
   132  000E                     	;# 
   133  000F                     	;# 
   134  0010                     	;# 
   135  0011                     	;# 
   136  0012                     	;# 
   137  0013                     	;# 
   138  0014                     	;# 
   139  0015                     	;# 
   140  0015                     	;# 
   141  0016                     	;# 
   142  0017                     	;# 
   143  0018                     	;# 
   144  0019                     	;# 
   145  001A                     	;# 
   146  001B                     	;# 
   147  001B                     	;# 
   148  001C                     	;# 
   149  001D                     	;# 
   150  001E                     	;# 
   151  001F                     	;# 
   152  0081                     	;# 
   153  0085                     	;# 
   154  0086                     	;# 
   155  0087                     	;# 
   156  0088                     	;# 
   157  0089                     	;# 
   158  008C                     	;# 
   159  008D                     	;# 
   160  008E                     	;# 
   161  0091                     	;# 
   162  0092                     	;# 
   163  0093                     	;# 
   164  0094                     	;# 
   165  0098                     	;# 
   166  0099                     	;# 
   167  009C                     	;# 
   168  009D                     	;# 
   169  009E                     	;# 
   170  009F                     	;# 
   171  010C                     	;# 
   172  010D                     	;# 
   173  010E                     	;# 
   174  010F                     	;# 
   175  018C                     	;# 
   176  018D                     	;# 
   177  0000                     	;# 
   178  0001                     	;# 
   179  0002                     	;# 
   180  0003                     	;# 
   181  0004                     	;# 
   182  0005                     	;# 
   183  0006                     	;# 
   184  0007                     	;# 
   185  0008                     	;# 
   186  0009                     	;# 
   187  000A                     	;# 
   188  000B                     	;# 
   189  000C                     	;# 
   190  000D                     	;# 
   191  000E                     	;# 
   192  000E                     	;# 
   193  000F                     	;# 
   194  0010                     	;# 
   195  0011                     	;# 
   196  0012                     	;# 
   197  0013                     	;# 
   198  0014                     	;# 
   199  0015                     	;# 
   200  0015                     	;# 
   201  0016                     	;# 
   202  0017                     	;# 
   203  0018                     	;# 
   204  0019                     	;# 
   205  001A                     	;# 
   206  001B                     	;# 
   207  001B                     	;# 
   208  001C                     	;# 
   209  001D                     	;# 
   210  001E                     	;# 
   211  001F                     	;# 
   212  0081                     	;# 
   213  0085                     	;# 
   214  0086                     	;# 
   215  0087                     	;# 
   216  0088                     	;# 
   217  0089                     	;# 
   218  008C                     	;# 
   219  008D                     	;# 
   220  008E                     	;# 
   221  0091                     	;# 
   222  0092                     	;# 
   223  0093                     	;# 
   224  0094                     	;# 
   225  0098                     	;# 
   226  0099                     	;# 
   227  009C                     	;# 
   228  009D                     	;# 
   229  009E                     	;# 
   230  009F                     	;# 
   231  010C                     	;# 
   232  010D                     	;# 
   233  010E                     	;# 
   234  010F                     	;# 
   235  018C                     	;# 
   236  018D                     	;# 
   237  0000                     	;# 
   238  0001                     	;# 
   239  0002                     	;# 
   240  0003                     	;# 
   241  0004                     	;# 
   242  0005                     	;# 
   243  0006                     	;# 
   244  0007                     	;# 
   245  0008                     	;# 
   246  0009                     	;# 
   247  000A                     	;# 
   248  000B                     	;# 
   249  000C                     	;# 
   250  000D                     	;# 
   251  000E                     	;# 
   252  000E                     	;# 
   253  000F                     	;# 
   254  0010                     	;# 
   255  0011                     	;# 
   256  0012                     	;# 
   257  0013                     	;# 
   258  0014                     	;# 
   259  0015                     	;# 
   260  0015                     	;# 
   261  0016                     	;# 
   262  0017                     	;# 
   263  0018                     	;# 
   264  0019                     	;# 
   265  001A                     	;# 
   266  001B                     	;# 
   267  001B                     	;# 
   268  001C                     	;# 
   269  001D                     	;# 
   270  001E                     	;# 
   271  001F                     	;# 
   272  0081                     	;# 
   273  0085                     	;# 
   274  0086                     	;# 
   275  0087                     	;# 
   276  0088                     	;# 
   277  0089                     	;# 
   278  008C                     	;# 
   279  008D                     	;# 
   280  008E                     	;# 
   281  0091                     	;# 
   282  0092                     	;# 
   283  0093                     	;# 
   284  0094                     	;# 
   285  0098                     	;# 
   286  0099                     	;# 
   287  009C                     	;# 
   288  009D                     	;# 
   289  009E                     	;# 
   290  009F                     	;# 
   291  010C                     	;# 
   292  010D                     	;# 
   293  010E                     	;# 
   294  010F                     	;# 
   295  018C                     	;# 
   296  018D                     	;# 
   297  0000                     	;# 
   298  0001                     	;# 
   299  0002                     	;# 
   300  0003                     	;# 
   301  0004                     	;# 
   302  0005                     	;# 
   303  0006                     	;# 
   304  0007                     	;# 
   305  0008                     	;# 
   306  0009                     	;# 
   307  000A                     	;# 
   308  000B                     	;# 
   309  000C                     	;# 
   310  000D                     	;# 
   311  000E                     	;# 
   312  000E                     	;# 
   313  000F                     	;# 
   314  0010                     	;# 
   315  0011                     	;# 
   316  0012                     	;# 
   317  0013                     	;# 
   318  0014                     	;# 
   319  0015                     	;# 
   320  0015                     	;# 
   321  0016                     	;# 
   322  0017                     	;# 
   323  0018                     	;# 
   324  0019                     	;# 
   325  001A                     	;# 
   326  001B                     	;# 
   327  001B                     	;# 
   328  001C                     	;# 
   329  001D                     	;# 
   330  001E                     	;# 
   331  001F                     	;# 
   332  0081                     	;# 
   333  0085                     	;# 
   334  0086                     	;# 
   335  0087                     	;# 
   336  0088                     	;# 
   337  0089                     	;# 
   338  008C                     	;# 
   339  008D                     	;# 
   340  008E                     	;# 
   341  0091                     	;# 
   342  0092                     	;# 
   343  0093                     	;# 
   344  0094                     	;# 
   345  0098                     	;# 
   346  0099                     	;# 
   347  009C                     	;# 
   348  009D                     	;# 
   349  009E                     	;# 
   350  009F                     	;# 
   351  010C                     	;# 
   352  010D                     	;# 
   353  010E                     	;# 
   354  010F                     	;# 
   355  018C                     	;# 
   356  018D                     	;# 
   357  0000                     	;# 
   358  0001                     	;# 
   359  0002                     	;# 
   360  0003                     	;# 
   361  0004                     	;# 
   362  0005                     	;# 
   363  0006                     	;# 
   364  0007                     	;# 
   365  0008                     	;# 
   366  0009                     	;# 
   367  000A                     	;# 
   368  000B                     	;# 
   369  000C                     	;# 
   370  000D                     	;# 
   371  000E                     	;# 
   372  000E                     	;# 
   373  000F                     	;# 
   374  0010                     	;# 
   375  0011                     	;# 
   376  0012                     	;# 
   377  0013                     	;# 
   378  0014                     	;# 
   379  0015                     	;# 
   380  0015                     	;# 
   381  0016                     	;# 
   382  0017                     	;# 
   383  0018                     	;# 
   384  0019                     	;# 
   385  001A                     	;# 
   386  001B                     	;# 
   387  001B                     	;# 
   388  001C                     	;# 
   389  001D                     	;# 
   390  001E                     	;# 
   391  001F                     	;# 
   392  0081                     	;# 
   393  0085                     	;# 
   394  0086                     	;# 
   395  0087                     	;# 
   396  0088                     	;# 
   397  0089                     	;# 
   398  008C                     	;# 
   399  008D                     	;# 
   400  008E                     	;# 
   401  0091                     	;# 
   402  0092                     	;# 
   403  0093                     	;# 
   404  0094                     	;# 
   405  0098                     	;# 
   406  0099                     	;# 
   407  009C                     	;# 
   408  009D                     	;# 
   409  009E                     	;# 
   410  009F                     	;# 
   411  010C                     	;# 
   412  010D                     	;# 
   413  010E                     	;# 
   414  010F                     	;# 
   415  018C                     	;# 
   416  018D                     	;# 
   417  0000                     	;# 
   418  0001                     	;# 
   419  0002                     	;# 
   420  0003                     	;# 
   421  0004                     	;# 
   422  0005                     	;# 
   423  0006                     	;# 
   424  0007                     	;# 
   425  0008                     	;# 
   426  0009                     	;# 
   427  000A                     	;# 
   428  000B                     	;# 
   429  000C                     	;# 
   430  000D                     	;# 
   431  000E                     	;# 
   432  000E                     	;# 
   433  000F                     	;# 
   434  0010                     	;# 
   435  0011                     	;# 
   436  0012                     	;# 
   437  0013                     	;# 
   438  0014                     	;# 
   439  0015                     	;# 
   440  0015                     	;# 
   441  0016                     	;# 
   442  0017                     	;# 
   443  0018                     	;# 
   444  0019                     	;# 
   445  001A                     	;# 
   446  001B                     	;# 
   447  001B                     	;# 
   448  001C                     	;# 
   449  001D                     	;# 
   450  001E                     	;# 
   451  001F                     	;# 
   452  0081                     	;# 
   453  0085                     	;# 
   454  0086                     	;# 
   455  0087                     	;# 
   456  0088                     	;# 
   457  0089                     	;# 
   458  008C                     	;# 
   459  008D                     	;# 
   460  008E                     	;# 
   461  0091                     	;# 
   462  0092                     	;# 
   463  0093                     	;# 
   464  0094                     	;# 
   465  0098                     	;# 
   466  0099                     	;# 
   467  009C                     	;# 
   468  009D                     	;# 
   469  009E                     	;# 
   470  009F                     	;# 
   471  010C                     	;# 
   472  010D                     	;# 
   473  010E                     	;# 
   474  010F                     	;# 
   475  018C                     	;# 
   476  018D                     	;# 
   477                           
   478                           	psect	strings
   479  0800                     __pstrings:
   480  0800                     stringtab:
   481  0800                     __stringtab:
   482  0800                     stringcode:	
   483                           ;	String table - string pointers are 1 byte each
   484                           
   485  0800                     stringdir:
   486  0800  3008               	movlw	high stringdir
   487  0801  008A               	movwf	10
   488  0802  0804               	movf	4,w
   489  0803  0A84               	incf	4,f
   490  0804  0782               	addwf	2,f
   491  0805                     __stringbase:
   492  0805  3400               	retlw	0
   493  0806                     __end_of__stringtab:
   494  0806                     _u8_Right_7Segment:
   495  0806  343F               	retlw	63
   496  0807  3406               	retlw	6
   497  0808  345B               	retlw	91
   498  0809  344F               	retlw	79
   499  080A  3466               	retlw	102
   500  080B  346D               	retlw	109
   501  080C  347D               	retlw	125
   502  080D  3407               	retlw	7
   503  080E  347F               	retlw	127
   504  080F  346F               	retlw	111
   505  0810                     __end_of_u8_Right_7Segment:
   506  0810                     _u8_Left_7Segment:
   507  0810  343F               	retlw	63
   508  0811  3406               	retlw	6
   509  0812  345B               	retlw	91
   510  0813  344F               	retlw	79
   511  0814  3466               	retlw	102
   512  0815  346D               	retlw	109
   513  0816  347D               	retlw	125
   514  0817  3407               	retlw	7
   515  0818  347F               	retlw	127
   516  0819  346F               	retlw	111
   517  081A                     __end_of_u8_Left_7Segment:
   518                           
   519                           	psect	cinit
   520  0015                     start_initialization:	
   521                           ; #config settings
   522                           
   523  0015                     __initialization:
   524                           
   525                           ; Clear objects allocated to BANK0
   526  0015  1383               	bcf	3,7	;select IRP bank0
   527  0016  3020               	movlw	low __pbssBANK0
   528  0017  0084               	movwf	4
   529  0018  3049               	movlw	low (__pbssBANK0+41)
   530  0019  120A  158A  23D4  120A  118A  	fcall	clear_ram0
   531  001E                     end_of_initialization:	
   532                           ;End of C runtime variable initialization code
   533                           
   534  001E                     __end_of__initialization:
   535  001E  0183               	clrf	3
   536  001F  120A  118A  2C01   	ljmp	_main	;jump to C main() function
   537                           
   538                           	psect	bssBANK0
   539  0020                     __pbssBANK0:
   540  0020                     _Tasks:
   541  0020                     	ds	15
   542  002F                     Temp_ControlWaterTemp@u8_arr_Temp:
   543  002F                     	ds	10
   544  0039                     _u16_Voltage:
   545  0039                     	ds	2
   546  003B                     _u16_ADC_Read:
   547  003B                     	ds	2
   548  003D                     _SET_Mode_Status:
   549  003D                     	ds	1
   550  003E                     _GptrToFun_RB5:
   551  003E                     	ds	1
   552  003F                     _GptrToFun_RB4:
   553  003F                     	ds	1
   554  0040                     _GptrToFun_RB0:
   555  0040                     	ds	1
   556  0041                     _Global_pFn:
   557  0041                     	ds	1
   558  0042                     Temp_ControlWaterTemp@u8_Counter:
   559  0042                     	ds	1
   560  0043                     _u8_Water_Temp:
   561  0043                     	ds	1
   562  0044                     _TempChange_Status:
   563  0044                     	ds	1
   564  0045                     _Set_Temp_Flag:
   565  0045                     	ds	1
   566  0046                     _ON_OFF_Flag:
   567  0046                     	ds	1
   568  0047                     _ON_OFF_Status:
   569  0047                     	ds	1
   570  0048                     _u8_Temp_Set:
   571  0048                     	ds	1
   572                           
   573                           	psect	clrtext
   574  0BD4                     clear_ram0:	
   575                           ;	Called with FSR containing the base address, and
   576                           ;	W with the last address+1
   577                           
   578  0BD4  0064               	clrwdt	;clear the watchdog before getting into this loop
   579  0BD5                     clrloop0:
   580  0BD5  0180               	clrf	0	;clear RAM location pointed to by FSR
   581  0BD6  0A84               	incf	4,f	;increment pointer
   582  0BD7  0604               	xorwf	4,w	;XOR with final address
   583  0BD8  1903               	btfsc	3,2	;have we reached the end yet?
   584  0BD9  3400               	retlw	0	;all done for this memory range, return
   585  0BDA  0604               	xorwf	4,w	;XOR again to restore value
   586  0BDB  2BD5               	goto	clrloop0	;do the next byte
   587                           
   588                           	psect	cstackBANK1
   589  00A0                     __pcstackBANK1:
   590  00A0                     ?_RTO_vid_CreateTask:
   591  00A0                     RTO_vid_CreateTask@copy_u16Priodicity:	
   592                           ; 1 bytes @ 0x0
   593                           
   594                           
   595                           ; 2 bytes @ 0x0
   596  00A0                     	ds	2
   597  00A2                     RTO_vid_CreateTask@copy_u16FirstDelay:
   598                           
   599                           ; 2 bytes @ 0x2
   600  00A2                     	ds	2
   601  00A4                     RTO_vid_CreateTask@copy_pFn:
   602                           
   603                           ; 1 bytes @ 0x4
   604  00A4                     	ds	1
   605                           
   606                           	psect	cstackCOMMON
   607  0070                     __pcstackCOMMON:
   608  0070                     ?_RB0_SetCallBack:
   609  0070                     ?_RB0_Handler:	
   610                           ; 1 bytes @ 0x0
   611                           
   612  0070                     ?_RB4_SetCallBack:	
   613                           ; 1 bytes @ 0x0
   614                           
   615  0070                     ?_RB4_Handler:	
   616                           ; 1 bytes @ 0x0
   617                           
   618  0070                     ?_RB5_SetCallBack:	
   619                           ; 1 bytes @ 0x0
   620                           
   621  0070                     ?_RB5_Handler:	
   622                           ; 1 bytes @ 0x0
   623                           
   624  0070                     ?_EEPROM_ReadFromEEPROM:	
   625                           ; 1 bytes @ 0x0
   626                           
   627  0070                     ?_EEPROM_WriteToEEPROM:	
   628                           ; 1 bytes @ 0x0
   629                           
   630  0070                     ?_RedLed_TOG:	
   631                           ; 1 bytes @ 0x0
   632                           
   633  0070                     ??_RedLed_TOG:	
   634                           ; 1 bytes @ 0x0
   635                           
   636  0070                     ?_ON_Mode:	
   637                           ; 1 bytes @ 0x0
   638                           
   639  0070                     ?_OFF_Mode:	
   640                           ; 1 bytes @ 0x0
   641                           
   642  0070                     ?_vid_7_Segment_Display_2Digits:	
   643                           ; 1 bytes @ 0x0
   644                           
   645  0070                     ?_vid_7_Segment_DeInit:	
   646                           ; 1 bytes @ 0x0
   647                           
   648  0070                     ?_GreenLed_TOG:	
   649                           ; 1 bytes @ 0x0
   650                           
   651  0070                     ??_GreenLed_TOG:	
   652                           ; 1 bytes @ 0x0
   653                           
   654  0070                     ?_ADC_Init:	
   655                           ; 1 bytes @ 0x0
   656                           
   657  0070                     ?_YellowLed_TOG:	
   658                           ; 1 bytes @ 0x0
   659                           
   660  0070                     ??_YellowLed_TOG:	
   661                           ; 1 bytes @ 0x0
   662                           
   663  0070                     ?_I2CBegin:	
   664                           ; 1 bytes @ 0x0
   665                           
   666  0070                     ?_I2C_Write:	
   667                           ; 1 bytes @ 0x0
   668                           
   669  0070                     ?_I2C_End:	
   670                           ; 1 bytes @ 0x0
   671                           
   672  0070                     ?_I2C_RepeatedStart:	
   673                           ; 1 bytes @ 0x0
   674                           
   675  0070                     ?_I2C_Read:	
   676                           ; 1 bytes @ 0x0
   677                           
   678  0070                     ?_vid_7_Segment_Init:	
   679                           ; 1 bytes @ 0x0
   680                           
   681  0070                     ?_RTO_Init:	
   682                           ; 1 bytes @ 0x0
   683                           
   684  0070                     ?_Timer1_Init_Comp:	
   685                           ; 1 bytes @ 0x0
   686                           
   687  0070                     ?_RTO_vid_StartSchedular:	
   688                           ; 1 bytes @ 0x0
   689                           
   690  0070                     ?_SetCallBacks:	
   691                           ; 1 bytes @ 0x0
   692                           
   693  0070                     ?_SystemVars_Init:	
   694                           ; 1 bytes @ 0x0
   695                           
   696  0070                     ?_System_Power:	
   697                           ; 1 bytes @ 0x0
   698                           
   699  0070                     ??_System_Power:	
   700                           ; 1 bytes @ 0x0
   701                           
   702  0070                     ?_SetTemp_Mode:	
   703                           ; 1 bytes @ 0x0
   704                           
   705  0070                     ?_Cooler_Init:	
   706                           ; 1 bytes @ 0x0
   707                           
   708  0070                     ?_Cooler_TurnOn:	
   709                           ; 1 bytes @ 0x0
   710                           
   711  0070                     ?_Cooler_TurnOff:	
   712                           ; 1 bytes @ 0x0
   713                           
   714  0070                     ?_Heater_Init:	
   715                           ; 1 bytes @ 0x0
   716                           
   717  0070                     ?_Heater_TurnOn:	
   718                           ; 1 bytes @ 0x0
   719                           
   720  0070                     ?_Heater_TurnOff:	
   721                           ; 1 bytes @ 0x0
   722                           
   723  0070                     ?_TempSensor_Init:	
   724                           ; 1 bytes @ 0x0
   725                           
   726  0070                     ?_Temp_ControlWaterTemp:	
   727                           ; 1 bytes @ 0x0
   728                           
   729  0070                     ?_vid_SystemInit:	
   730                           ; 1 bytes @ 0x0
   731                           
   732  0070                     ?_DIO_GetPinValue:	
   733                           ; 1 bytes @ 0x0
   734                           
   735  0070                     ?_DIO_SetPortValue:	
   736                           ; 1 bytes @ 0x0
   737                           
   738  0070                     ?_Timer_SetCallBack:	
   739                           ; 1 bytes @ 0x0
   740                           
   741  0070                     ?_EXT_INT_Init:	
   742                           ; 1 bytes @ 0x0
   743                           
   744  0070                     ?_ISR:	
   745                           ; 1 bytes @ 0x0
   746                           
   747  0070                     ?_I2C_Init:	
   748                           ; 1 bytes @ 0x0
   749                           
   750  0070                     ?_I2C_Hold:	
   751                           ; 1 bytes @ 0x0
   752                           
   753  0070                     ?_main:	
   754                           ; 1 bytes @ 0x0
   755                           
   756  0070                     ?_vid_Left_7_Segment_DisplayNumber:	
   757                           ; 1 bytes @ 0x0
   758                           
   759  0070                     ?_vid_Right_7_Segment_DisplayNumber:	
   760                           ; 1 bytes @ 0x0
   761                           
   762  0070                     ?i1_OFF_Mode:	
   763                           ; 1 bytes @ 0x0
   764                           
   765  0070                     ?i1_DIO_SetPinValue:	
   766                           ; 1 bytes @ 0x0
   767                           
   768  0070                     ?i1_EEPROM_WriteToEEPROM:	
   769                           ; 1 bytes @ 0x0
   770                           
   771  0070                     ?i1_I2C_Hold:	
   772                           ; 1 bytes @ 0x0
   773                           
   774  0070                     ??i1_I2C_Hold:	
   775                           ; 1 bytes @ 0x0
   776                           
   777  0070                     ?i1_I2CBegin:	
   778                           ; 1 bytes @ 0x0
   779                           
   780  0070                     ??i1_I2CBegin:	
   781                           ; 1 bytes @ 0x0
   782                           
   783  0070                     ?i1_I2C_End:	
   784                           ; 1 bytes @ 0x0
   785                           
   786  0070                     ??i1_I2C_End:	
   787                           ; 1 bytes @ 0x0
   788                           
   789  0070                     ?i1_I2C_Write:	
   790                           ; 1 bytes @ 0x0
   791                           
   792  0070                     ??i1_I2C_Write:	
   793                           ; 1 bytes @ 0x0
   794                           
   795  0070                     ?i1_vid_7_Segment_DeInit:	
   796                           ; 1 bytes @ 0x0
   797                           
   798  0070                     ?i1___bmul:	
   799                           ; 1 bytes @ 0x0
   800                           
   801  0070                     ?_ADC_Read:	
   802                           ; 1 bytes @ 0x0
   803                           
   804  0070                     ?___awdiv:	
   805                           ; 2 bytes @ 0x0
   806                           
   807  0070                     ?___awmod:	
   808                           ; 2 bytes @ 0x0
   809                           
   810  0070                     ?___lwdiv:	
   811                           ; 2 bytes @ 0x0
   812                           
   813  0070                     ?___lmul:	
   814                           ; 2 bytes @ 0x0
   815                           
   816  0070                     DIO_GetPinValue@u8PinIdCopy:	
   817                           ; 4 bytes @ 0x0
   818                           
   819  0070                     DIO_SetPortValue@u8PortVal:	
   820                           ; 1 bytes @ 0x0
   821                           
   822  0070                     i1DIO_SetPinValue@u8PinIdCopy:	
   823                           ; 1 bytes @ 0x0
   824                           
   825  0070                     i1I2C_Write@u8_Data:	
   826                           ; 1 bytes @ 0x0
   827                           
   828  0070                     i1___bmul@multiplicand:	
   829                           ; 1 bytes @ 0x0
   830                           
   831  0070                     ___awdiv@divisor:	
   832                           ; 1 bytes @ 0x0
   833                           
   834  0070                     ___awmod@divisor:	
   835                           ; 2 bytes @ 0x0
   836                           
   837  0070                     ___lwdiv@divisor:	
   838                           ; 2 bytes @ 0x0
   839                           
   840  0070                     ___lmul@multiplier:	
   841                           ; 2 bytes @ 0x0
   842                           
   843                           
   844                           ; 4 bytes @ 0x0
   845  0070                     	ds	1
   846  0071                     ??_DIO_GetPinValue:
   847  0071                     ??_DIO_SetPortValue:	
   848                           ; 1 bytes @ 0x1
   849                           
   850  0071                     ??i1_EEPROM_WriteToEEPROM:	
   851                           ; 1 bytes @ 0x1
   852                           
   853  0071                     ??i1___bmul:	
   854                           ; 1 bytes @ 0x1
   855                           
   856  0071                     i1DIO_SetPinValue@u8PinValCopy:	
   857                           ; 1 bytes @ 0x1
   858                           
   859  0071                     i1EEPROM_WriteToEEPROM@u8_Data:	
   860                           ; 1 bytes @ 0x1
   861                           
   862  0071                     i1___bmul@product:	
   863                           ; 1 bytes @ 0x1
   864                           
   865                           
   866                           ; 1 bytes @ 0x1
   867  0071                     	ds	1
   868  0072                     ??_ADC_Read:
   869  0072                     ??i1_DIO_SetPinValue:	
   870                           ; 1 bytes @ 0x2
   871                           
   872  0072                     i1___bmul@multiplier:	
   873                           ; 1 bytes @ 0x2
   874                           
   875  0072                     ___awdiv@dividend:	
   876                           ; 1 bytes @ 0x2
   877                           
   878  0072                     ___awmod@dividend:	
   879                           ; 2 bytes @ 0x2
   880                           
   881  0072                     ___lwdiv@dividend:	
   882                           ; 2 bytes @ 0x2
   883                           
   884                           
   885                           ; 2 bytes @ 0x2
   886  0072                     	ds	1
   887  0073                     DIO_GetPinValue@u8PortIdCopy:
   888  0073                     DIO_SetPortValue@u8PortId:	
   889                           ; 1 bytes @ 0x3
   890                           
   891  0073                     ADC_Read@u8_Channel:	
   892                           ; 1 bytes @ 0x3
   893                           
   894                           
   895                           ; 1 bytes @ 0x3
   896  0073                     	ds	1
   897  0074                     ??___awdiv:
   898  0074                     ??___awmod:	
   899                           ; 1 bytes @ 0x4
   900                           
   901  0074                     ??___lwdiv:	
   902                           ; 1 bytes @ 0x4
   903                           
   904  0074                     DIO_GetPinValue@u8ResultLocal:	
   905                           ; 1 bytes @ 0x4
   906                           
   907  0074                     ___awdiv@counter:	
   908                           ; 1 bytes @ 0x4
   909                           
   910  0074                     ___awmod@counter:	
   911                           ; 1 bytes @ 0x4
   912                           
   913  0074                     i1DIO_SetPinValue@u8PortIdCopy:	
   914                           ; 1 bytes @ 0x4
   915                           
   916  0074                     ___lwdiv@quotient:	
   917                           ; 1 bytes @ 0x4
   918                           
   919  0074                     ___lmul@multiplicand:	
   920                           ; 2 bytes @ 0x4
   921                           
   922                           
   923                           ; 4 bytes @ 0x4
   924  0074                     	ds	1
   925  0075                     ??_Cooler_TurnOn:
   926  0075                     ??_Cooler_TurnOff:	
   927                           ; 1 bytes @ 0x5
   928                           
   929  0075                     ??_Heater_TurnOn:	
   930                           ; 1 bytes @ 0x5
   931                           
   932  0075                     ??_Heater_TurnOff:	
   933                           ; 1 bytes @ 0x5
   934                           
   935  0075                     ??_vid_Left_7_Segment_DisplayNumber:	
   936                           ; 1 bytes @ 0x5
   937                           
   938  0075                     ??_vid_Right_7_Segment_DisplayNumber:	
   939                           ; 1 bytes @ 0x5
   940                           
   941  0075                     ??i1_OFF_Mode:	
   942                           ; 1 bytes @ 0x5
   943                           
   944  0075                     ??i1_vid_7_Segment_DeInit:	
   945                           ; 1 bytes @ 0x5
   946                           
   947  0075                     vid_Left_7_Segment_DisplayNumber@u8_Number:	
   948                           ; 1 bytes @ 0x5
   949                           
   950  0075                     vid_Right_7_Segment_DisplayNumber@u8_Number:	
   951                           ; 1 bytes @ 0x5
   952                           
   953  0075                     ___awdiv@sign:	
   954                           ; 1 bytes @ 0x5
   955                           
   956  0075                     ___awmod@sign:	
   957                           ; 1 bytes @ 0x5
   958                           
   959                           
   960                           ; 1 bytes @ 0x5
   961  0075                     	ds	1
   962  0076                     ___lwdiv@counter:
   963  0076                     ___awdiv@quotient:	
   964                           ; 1 bytes @ 0x6
   965                           
   966                           
   967                           ; 2 bytes @ 0x6
   968  0076                     	ds	2
   969  0078                     ??_vid_7_Segment_Display_2Digits:
   970  0078                     ??___lmul:	
   971                           ; 1 bytes @ 0x8
   972                           
   973                           
   974                           ; 1 bytes @ 0x8
   975  0078                     	ds	1
   976  0079                     ___lmul@product:
   977                           
   978                           ; 4 bytes @ 0x9
   979  0079                     	ds	1
   980  007A                     vid_7_Segment_Display_2Digits@Ones:
   981                           
   982                           ; 1 bytes @ 0xA
   983  007A                     	ds	1
   984  007B                     vid_7_Segment_Display_2Digits@Tens:
   985                           
   986                           ; 1 bytes @ 0xB
   987  007B                     	ds	1
   988  007C                     vid_7_Segment_Display_2Digits@u8_Num:
   989                           
   990                           ; 1 bytes @ 0xC
   991  007C                     	ds	1
   992  007D                     vid_7_Segment_Display_2Digits@Stability:
   993                           
   994                           ; 1 bytes @ 0xD
   995  007D                     	ds	1
   996  007E                     ??_RB0_Handler:
   997  007E                     ??_RB4_Handler:	
   998                           ; 1 bytes @ 0xE
   999                           
  1000  007E                     ??_RB5_Handler:	
  1001                           ; 1 bytes @ 0xE
  1002                           
  1003  007E                     ??_ON_Mode:	
  1004                           ; 1 bytes @ 0xE
  1005                           
  1006                           
  1007                           	psect	cstackBANK0
  1008  0049                     __pcstackBANK0:	
  1009                           ; 1 bytes @ 0xE
  1010                           
  1011  0049                     ??_SetTemp_Mode:
  1012  0049                     ??_Temp_ControlWaterTemp:	
  1013                           ; 1 bytes @ 0x0
  1014                           
  1015                           
  1016                           ; 1 bytes @ 0x0
  1017  0049                     	ds	3
  1018  004C                     SetTemp_Mode@count:
  1019                           
  1020                           ; 1 bytes @ 0x3
  1021  004C                     	ds	1
  1022  004D                     Temp_ControlWaterTemp@iterator:
  1023                           
  1024                           ; 1 bytes @ 0x4
  1025  004D                     	ds	1
  1026  004E                     Temp_ControlWaterTemp@u8_Temp_Avg:
  1027                           
  1028                           ; 1 bytes @ 0x5
  1029  004E                     	ds	1
  1030  004F                     ??_RTO_vid_StartSchedular:
  1031                           
  1032                           ; 1 bytes @ 0x6
  1033  004F                     	ds	4
  1034  0053                     RTO_vid_StartSchedular@u8_TCB_Counter:
  1035                           
  1036                           ; 1 bytes @ 0xA
  1037  0053                     	ds	1
  1038  0054                     ??_ISR:
  1039                           
  1040                           ; 1 bytes @ 0xB
  1041  0054                     	ds	5
  1042  0059                     ??_RB0_SetCallBack:
  1043  0059                     ??_RB4_SetCallBack:	
  1044                           ; 1 bytes @ 0x10
  1045                           
  1046  0059                     ??_RB5_SetCallBack:	
  1047                           ; 1 bytes @ 0x10
  1048                           
  1049  0059                     ?_DIO_SetPinDirection:	
  1050                           ; 1 bytes @ 0x10
  1051                           
  1052  0059                     ?_DIO_SetPinValue:	
  1053                           ; 1 bytes @ 0x10
  1054                           
  1055  0059                     ??_ADC_Init:	
  1056                           ; 1 bytes @ 0x10
  1057                           
  1058  0059                     ??_I2CBegin:	
  1059                           ; 1 bytes @ 0x10
  1060                           
  1061  0059                     ??_I2C_Write:	
  1062                           ; 1 bytes @ 0x10
  1063                           
  1064  0059                     ??_I2C_End:	
  1065                           ; 1 bytes @ 0x10
  1066                           
  1067  0059                     ??_I2C_RepeatedStart:	
  1068                           ; 1 bytes @ 0x10
  1069                           
  1070  0059                     ??_I2C_Read:	
  1071                           ; 1 bytes @ 0x10
  1072                           
  1073  0059                     ??_Timer1_Init_Comp:	
  1074                           ; 1 bytes @ 0x10
  1075                           
  1076  0059                     ?_DIO_SetPortDirection:	
  1077                           ; 1 bytes @ 0x10
  1078                           
  1079  0059                     ??_Timer_SetCallBack:	
  1080                           ; 1 bytes @ 0x10
  1081                           
  1082  0059                     ??_I2C_Hold:	
  1083                           ; 1 bytes @ 0x10
  1084                           
  1085  0059                     ?___bmul:	
  1086                           ; 1 bytes @ 0x10
  1087                           
  1088  0059                     DIO_SetPinDirection@u8PinIdCopy:	
  1089                           ; 1 bytes @ 0x10
  1090                           
  1091  0059                     DIO_SetPinValue@u8PinIdCopy:	
  1092                           ; 1 bytes @ 0x10
  1093                           
  1094  0059                     DIO_SetPortDirection@u8PortDir:	
  1095                           ; 1 bytes @ 0x10
  1096                           
  1097  0059                     Timer_SetCallBack@local_pFn:	
  1098                           ; 1 bytes @ 0x10
  1099                           
  1100  0059                     RB0_SetCallBack@pFun:	
  1101                           ; 1 bytes @ 0x10
  1102                           
  1103  0059                     RB4_SetCallBack@pFun:	
  1104                           ; 1 bytes @ 0x10
  1105                           
  1106  0059                     RB5_SetCallBack@pFun:	
  1107                           ; 1 bytes @ 0x10
  1108                           
  1109  0059                     I2C_Write@u8_Data:	
  1110                           ; 1 bytes @ 0x10
  1111                           
  1112  0059                     I2C_Read@ack:	
  1113                           ; 1 bytes @ 0x10
  1114                           
  1115  0059                     ___bmul@multiplicand:	
  1116                           ; 1 bytes @ 0x10
  1117                           
  1118                           
  1119                           ; 1 bytes @ 0x10
  1120  0059                     	ds	1
  1121  005A                     ??_EEPROM_WriteToEEPROM:
  1122  005A                     ??_RTO_Init:	
  1123                           ; 1 bytes @ 0x11
  1124                           
  1125  005A                     ??_SetCallBacks:	
  1126                           ; 1 bytes @ 0x11
  1127                           
  1128  005A                     ??_DIO_SetPortDirection:	
  1129                           ; 1 bytes @ 0x11
  1130                           
  1131  005A                     ??___bmul:	
  1132                           ; 1 bytes @ 0x11
  1133                           
  1134  005A                     DIO_SetPinDirection@u8PinDirCopy:	
  1135                           ; 1 bytes @ 0x11
  1136                           
  1137  005A                     DIO_SetPinValue@u8PinValCopy:	
  1138                           ; 1 bytes @ 0x11
  1139                           
  1140  005A                     EEPROM_WriteToEEPROM@u8_Data:	
  1141                           ; 1 bytes @ 0x11
  1142                           
  1143  005A                     I2C_Read@u8_DataRead:	
  1144                           ; 1 bytes @ 0x11
  1145                           
  1146  005A                     ___bmul@product:	
  1147                           ; 1 bytes @ 0x11
  1148                           
  1149                           
  1150                           ; 1 bytes @ 0x11
  1151  005A                     	ds	1
  1152  005B                     ??_EEPROM_ReadFromEEPROM:
  1153  005B                     ??_DIO_SetPinDirection:	
  1154                           ; 1 bytes @ 0x12
  1155                           
  1156  005B                     ??_DIO_SetPinValue:	
  1157                           ; 1 bytes @ 0x12
  1158                           
  1159  005B                     EEPROM_ReadFromEEPROM@Data:	
  1160                           ; 1 bytes @ 0x12
  1161                           
  1162  005B                     ___bmul@multiplier:	
  1163                           ; 1 bytes @ 0x12
  1164                           
  1165                           
  1166                           ; 1 bytes @ 0x12
  1167  005B                     	ds	1
  1168  005C                     ??_RTO_vid_CreateTask:
  1169  005C                     ??_SystemVars_Init:	
  1170                           ; 1 bytes @ 0x13
  1171                           
  1172  005C                     DIO_SetPortDirection@u8PortId:	
  1173                           ; 1 bytes @ 0x13
  1174                           
  1175  005C                     RTO_vid_CreateTask@copy_u8Priority:	
  1176                           ; 1 bytes @ 0x13
  1177                           
  1178                           
  1179                           ; 1 bytes @ 0x13
  1180  005C                     	ds	1
  1181  005D                     DIO_SetPinDirection@u8PortIdCopy:
  1182  005D                     DIO_SetPinValue@u8PortIdCopy:	
  1183                           ; 1 bytes @ 0x14
  1184                           
  1185                           
  1186                           ; 1 bytes @ 0x14
  1187  005D                     	ds	1
  1188  005E                     ??_OFF_Mode:
  1189  005E                     ??_vid_7_Segment_DeInit:	
  1190                           ; 1 bytes @ 0x15
  1191                           
  1192  005E                     ??_vid_7_Segment_Init:	
  1193                           ; 1 bytes @ 0x15
  1194                           
  1195  005E                     ??_Cooler_Init:	
  1196                           ; 1 bytes @ 0x15
  1197                           
  1198  005E                     ??_Heater_Init:	
  1199                           ; 1 bytes @ 0x15
  1200                           
  1201  005E                     ??_TempSensor_Init:	
  1202                           ; 1 bytes @ 0x15
  1203                           
  1204  005E                     ??_vid_SystemInit:	
  1205                           ; 1 bytes @ 0x15
  1206                           
  1207  005E                     ??_EXT_INT_Init:	
  1208                           ; 1 bytes @ 0x15
  1209                           
  1210  005E                     ??_I2C_Init:	
  1211                           ; 1 bytes @ 0x15
  1212                           
  1213  005E                     ??_main:	
  1214                           ; 1 bytes @ 0x15
  1215                           
  1216                           
  1217                           	psect	maintext
  1218  0401                     __pmaintext:	
  1219                           ; 1 bytes @ 0x15
  1220 ;;
  1221 ;;Main: autosize = 0, tempsize = 0, incstack = 0, save=0
  1222 ;;
  1223 ;; *************** function _main *****************
  1224 ;; Defined at:
  1225 ;;		line 40 in file "main.c"
  1226 ;; Parameters:    Size  Location     Type
  1227 ;;		None
  1228 ;; Auto vars:     Size  Location     Type
  1229 ;;		None
  1230 ;; Return value:  Size  Location     Type
  1231 ;;                  1    wreg      void 
  1232 ;; Registers used:
  1233 ;;		wreg, fsr0l, fsr0h, status,2, status,0, btemp+1, pclath, cstack
  1234 ;; Tracked objects:
  1235 ;;		On entry : B00/0
  1236 ;;		On exit  : 0/0
  1237 ;;		Unchanged: 0/0
  1238 ;; Data sizes:     COMMON   BANK0   BANK1   BANK3   BANK2
  1239 ;;      Params:         0       0       0       0       0
  1240 ;;      Locals:         0       0       0       0       0
  1241 ;;      Temps:          0       0       0       0       0
  1242 ;;      Totals:         0       0       0       0       0
  1243 ;;Total ram usage:        0 bytes
  1244 ;; Hardware stack levels required when called:   11
  1245 ;; This function calls:
  1246 ;;		_Cooler_Init
  1247 ;;		_EXT_INT_Init
  1248 ;;		_Heater_Init
  1249 ;;		_I2C_Init
  1250 ;;		_OFF_Mode
  1251 ;;		_RTO_Init
  1252 ;;		_RTO_vid_CreateTask
  1253 ;;		_SetCallBacks
  1254 ;;		_SystemVars_Init
  1255 ;;		_TempSensor_Init
  1256 ;;		_Timer1_Init_Comp
  1257 ;;		_vid_7_Segment_Init
  1258 ;;		_vid_SystemInit
  1259 ;; This function is called by:
  1260 ;;		Startup code after reset
  1261 ;; This function uses a non-reentrant model
  1262 ;;
  1263                           
  1264                           
  1265                           ;psect for function _main
  1266  0401                     _main:
  1267  0401                     l2997:	
  1268                           ;incstack = 0
  1269 ;; hardware stack exceeded
  1270                           ; Regs used in _main: [wreg-fsr0h+status,2+status,0+btemp+1+pclath+cstack]
  1271                           
  1272                           
  1273                           ;main.c: 43:       Heater_Init() ;
  1274  0401  120A  158A  2564  120A  118A  	fcall	_Heater_Init
  1275                           
  1276                           ;main.c: 44:  Cooler_Init();
  1277  0406  120A  158A  2548  120A  118A  	fcall	_Cooler_Init
  1278                           
  1279                           ;main.c: 45:     TempSensor_Init () ;
  1280  040B  120A  158A  24C1  120A  118A  	fcall	_TempSensor_Init
  1281                           
  1282                           ;main.c: 46: I2C_Init() ;
  1283  0410  120A  158A  267A  120A  118A  	fcall	_I2C_Init
  1284                           
  1285                           ;main.c: 47:  EXT_INT_Init ();
  1286  0415  120A  158A  2730  120A  118A  	fcall	_EXT_INT_Init
  1287                           
  1288                           ;main.c: 48:   vid_7_Segment_Init() ;
  1289  041A  120A  118A  2799  120A  118A  	fcall	_vid_7_Segment_Init
  1290                           
  1291                           ;main.c: 49:   OFF_Mode();
  1292  041F  120A  158A  23F7  120A  118A  	fcall	_OFF_Mode
  1293  0424                     l2999:
  1294                           
  1295                           ;main.c: 50:   SystemVars_Init () ;
  1296  0424  120A  158A  2762  120A  118A  	fcall	_SystemVars_Init
  1297  0429                     l3001:
  1298                           
  1299                           ;main.c: 52:         SetCallBacks ();
  1300  0429  120A  158A  24AE  120A  118A  	fcall	_SetCallBacks
  1301                           
  1302                           ;main.c: 54:   vid_SystemInit();
  1303  042E  120A  158A  25FD  120A  118A  	fcall	_vid_SystemInit
  1304  0433                     l3003:
  1305                           
  1306                           ;main.c: 56:   RTO_Init() ;
  1307  0433  120A  158A  23AD  120A  118A  	fcall	_RTO_Init
  1308  0438                     l3005:
  1309                           
  1310                           ;main.c: 58:   RTO_vid_CreateTask (0 ,1000 ,0 ,&System_Power ) ;
  1311  0438  30E8               	movlw	232
  1312  0439  1683               	bsf	3,5	;RP0=1, select bank1
  1313  043A  1303               	bcf	3,6	;RP1=0, select bank1
  1314  043B  00A0               	movwf	RTO_vid_CreateTask@copy_u16Priodicity^(0+128)
  1315  043C  3003               	movlw	3
  1316  043D  00A1               	movwf	(RTO_vid_CreateTask@copy_u16Priodicity^(0+128)+1)
  1317  043E  3000               	movlw	0
  1318  043F  00A2               	movwf	RTO_vid_CreateTask@copy_u16FirstDelay^(0+128)
  1319  0440  00A3               	movwf	(RTO_vid_CreateTask@copy_u16FirstDelay+1)^(0+128)
  1320  0441  3010               	movlw	(low (fp__System_Power-i1fpbase))& (0+255)
  1321  0442  00FF               	movwf	btemp+1
  1322  0443  087F               	movf	btemp+1,w
  1323  0444  00A4               	movwf	RTO_vid_CreateTask@copy_pFn^(0+128)
  1324  0445  3000               	movlw	0
  1325  0446  120A  118A  2756  120A  118A  	fcall	_RTO_vid_CreateTask
  1326  044B                     l3007:
  1327                           
  1328                           ;main.c: 59:    RTO_vid_CreateTask(2 ,100 ,300 ,&Temp_ControlWaterTemp ) ;
  1329  044B  3064               	movlw	100
  1330  044C  1683               	bsf	3,5	;RP0=1, select bank1
  1331  044D  1303               	bcf	3,6	;RP1=0, select bank1
  1332  044E  00A0               	movwf	RTO_vid_CreateTask@copy_u16Priodicity^(0+128)
  1333  044F  3000               	movlw	0
  1334  0450  00A1               	movwf	(RTO_vid_CreateTask@copy_u16Priodicity^(0+128)+1)
  1335  0451  302C               	movlw	44
  1336  0452  00A2               	movwf	RTO_vid_CreateTask@copy_u16FirstDelay^(0+128)
  1337  0453  3001               	movlw	1
  1338  0454  00A3               	movwf	(RTO_vid_CreateTask@copy_u16FirstDelay^(0+128)+1)
  1339  0455  300A               	movlw	(low (fp__Temp_ControlWaterTemp-i1fpbase))& (0+255)
  1340  0456  00FF               	movwf	btemp+1
  1341  0457  087F               	movf	btemp+1,w
  1342  0458  00A4               	movwf	RTO_vid_CreateTask@copy_pFn^(0+128)
  1343  0459  3002               	movlw	2
  1344  045A  120A  118A  2756  120A  118A  	fcall	_RTO_vid_CreateTask
  1345  045F                     l3009:
  1346                           
  1347                           ;main.c: 61:  RTO_vid_CreateTask(1 ,200 ,200 ,&RedLed_TOG ) ;
  1348  045F  30C8               	movlw	200
  1349  0460  1683               	bsf	3,5	;RP0=1, select bank1
  1350  0461  1303               	bcf	3,6	;RP1=0, select bank1
  1351  0462  00A0               	movwf	RTO_vid_CreateTask@copy_u16Priodicity^(0+128)
  1352  0463  3000               	movlw	0
  1353  0464  00A1               	movwf	(RTO_vid_CreateTask@copy_u16Priodicity^(0+128)+1)
  1354  0465  30C8               	movlw	200
  1355  0466  00A2               	movwf	RTO_vid_CreateTask@copy_u16FirstDelay^(0+128)
  1356  0467  3000               	movlw	0
  1357  0468  00A3               	movwf	(RTO_vid_CreateTask@copy_u16FirstDelay^(0+128)+1)
  1358  0469  300D               	movlw	(low (fp__RedLed_TOG-i1fpbase))& (0+255)
  1359  046A  00FF               	movwf	btemp+1
  1360  046B  087F               	movf	btemp+1,w
  1361  046C  00A4               	movwf	RTO_vid_CreateTask@copy_pFn^(0+128)
  1362  046D  3001               	movlw	1
  1363  046E  120A  118A  2756  120A  118A  	fcall	_RTO_vid_CreateTask
  1364                           
  1365                           ;main.c: 63:     Timer1_Init_Comp() ;
  1366  0473  120A  158A  24E9  120A  118A  	fcall	_Timer1_Init_Comp
  1367  0478                     l385:	
  1368                           ;main.c: 65:     while (1)
  1369                           
  1370  0478                     l386:	
  1371                           ;main.c: 66:     {;main.c: 72:     }
  1372                           
  1373  0478  2C78               	goto	l385
  1374  0479  120A  118A  2812   	ljmp	start
  1375  047C                     __end_of_main:
  1376                           
  1377                           	psect	text1
  1378  0DFD                     __ptext1:	
  1379 ;; *************** function _vid_SystemInit *****************
  1380 ;; Defined at:
  1381 ;;		line 371 in file "APP_Program.c"
  1382 ;; Parameters:    Size  Location     Type
  1383 ;;		None
  1384 ;; Auto vars:     Size  Location     Type
  1385 ;;		None
  1386 ;; Return value:  Size  Location     Type
  1387 ;;                  1    wreg      void 
  1388 ;; Registers used:
  1389 ;;		wreg, fsr0l, fsr0h, status,2, status,0, btemp+1, pclath, cstack
  1390 ;; Tracked objects:
  1391 ;;		On entry : 0/0
  1392 ;;		On exit  : 0/0
  1393 ;;		Unchanged: 0/0
  1394 ;; Data sizes:     COMMON   BANK0   BANK1   BANK3   BANK2
  1395 ;;      Params:         0       0       0       0       0
  1396 ;;      Locals:         0       0       0       0       0
  1397 ;;      Temps:          0       0       0       0       0
  1398 ;;      Totals:         0       0       0       0       0
  1399 ;;Total ram usage:        0 bytes
  1400 ;; Hardware stack levels used:    1
  1401 ;; Hardware stack levels required when called:    8
  1402 ;; This function calls:
  1403 ;;		_DIO_SetPinDirection
  1404 ;; This function is called by:
  1405 ;;		_main
  1406 ;; This function uses a non-reentrant model
  1407 ;;
  1408                           
  1409                           
  1410                           ;psect for function _vid_SystemInit
  1411  0DFD                     _vid_SystemInit:
  1412  0DFD                     l2519:	
  1413                           ;incstack = 0
  1414 ;; hardware stack exceeded
  1415                           ; Regs used in _vid_SystemInit: [wreg-fsr0h+status,2+status,0+btemp+1+pclath+cstack]
  1416                           
  1417                           
  1418                           ;APP_Program.c: 373:      DIO_SetPinDirection (1, 1, 1);
  1419  0DFD  1283               	bcf	3,5	;RP0=0, select bank0
  1420  0DFE  1303               	bcf	3,6	;RP1=0, select bank0
  1421  0DFF  01D9               	clrf	DIO_SetPinDirection@u8PinIdCopy
  1422  0E00  0AD9               	incf	DIO_SetPinDirection@u8PinIdCopy,f
  1423  0E01  01DA               	clrf	DIO_SetPinDirection@u8PinDirCopy
  1424  0E02  0ADA               	incf	DIO_SetPinDirection@u8PinDirCopy,f
  1425  0E03  3001               	movlw	1
  1426  0E04  120A  118A  2129  120A  158A  	fcall	_DIO_SetPinDirection
  1427                           
  1428                           ;APP_Program.c: 374:  DIO_SetPinDirection (1, 2, 1);
  1429  0E09  3002               	movlw	2
  1430  0E0A  00FF               	movwf	btemp+1
  1431  0E0B  087F               	movf	btemp+1,w
  1432  0E0C  1283               	bcf	3,5	;RP0=0, select bank0
  1433  0E0D  1303               	bcf	3,6	;RP1=0, select bank0
  1434  0E0E  00D9               	movwf	DIO_SetPinDirection@u8PinIdCopy
  1435  0E0F  01DA               	clrf	DIO_SetPinDirection@u8PinDirCopy
  1436  0E10  0ADA               	incf	DIO_SetPinDirection@u8PinDirCopy,f
  1437  0E11  3001               	movlw	1
  1438  0E12  120A  118A  2129  120A  158A  	fcall	_DIO_SetPinDirection
  1439                           
  1440                           ;APP_Program.c: 375:  DIO_SetPinDirection (1, 3, 1);
  1441  0E17  3003               	movlw	3
  1442  0E18  00FF               	movwf	btemp+1
  1443  0E19  087F               	movf	btemp+1,w
  1444  0E1A  1283               	bcf	3,5	;RP0=0, select bank0
  1445  0E1B  1303               	bcf	3,6	;RP1=0, select bank0
  1446  0E1C  00D9               	movwf	DIO_SetPinDirection@u8PinIdCopy
  1447  0E1D  01DA               	clrf	DIO_SetPinDirection@u8PinDirCopy
  1448  0E1E  0ADA               	incf	DIO_SetPinDirection@u8PinDirCopy,f
  1449  0E1F  3001               	movlw	1
  1450  0E20  120A  118A  2129  120A  158A  	fcall	_DIO_SetPinDirection
  1451  0E25                     l151:
  1452  0E25  0008               	return
  1453  0E26                     __end_of_vid_SystemInit:
  1454                           
  1455                           	psect	text2
  1456  0799                     __ptext2:	
  1457 ;; *************** function _vid_7_Segment_Init *****************
  1458 ;; Defined at:
  1459 ;;		line 28 in file "7_Segment_prog.c"
  1460 ;; Parameters:    Size  Location     Type
  1461 ;;		None
  1462 ;; Auto vars:     Size  Location     Type
  1463 ;;		None
  1464 ;; Return value:  Size  Location     Type
  1465 ;;                  1    wreg      void 
  1466 ;; Registers used:
  1467 ;;		wreg, fsr0l, fsr0h, status,2, status,0, btemp+1, pclath, cstack
  1468 ;; Tracked objects:
  1469 ;;		On entry : 0/0
  1470 ;;		On exit  : 0/0
  1471 ;;		Unchanged: 0/0
  1472 ;; Data sizes:     COMMON   BANK0   BANK1   BANK3   BANK2
  1473 ;;      Params:         0       0       0       0       0
  1474 ;;      Locals:         0       0       0       0       0
  1475 ;;      Temps:          0       0       0       0       0
  1476 ;;      Totals:         0       0       0       0       0
  1477 ;;Total ram usage:        0 bytes
  1478 ;; Hardware stack levels used:    1
  1479 ;; Hardware stack levels required when called:    8
  1480 ;; This function calls:
  1481 ;;		_DIO_SetPinDirection
  1482 ;;		_DIO_SetPinValue
  1483 ;;		_DIO_SetPortDirection
  1484 ;; This function is called by:
  1485 ;;		_main
  1486 ;; This function uses a non-reentrant model
  1487 ;;
  1488                           
  1489                           
  1490                           ;psect for function _vid_7_Segment_Init
  1491  0799                     _vid_7_Segment_Init:
  1492  0799                     l2569:	
  1493                           ;incstack = 0
  1494 ;; hardware stack exceeded
  1495                           ; Regs used in _vid_7_Segment_Init: [wreg-fsr0h+status,2+status,0+btemp+1+pclath+cstack]
  1496                           
  1497  0799  3004               	movlw	4
  1498  079A  00FF               	movwf	btemp+1
  1499  079B  087F               	movf	btemp+1,w
  1500  079C  1283               	bcf	3,5	;RP0=0, select bank0
  1501  079D  1303               	bcf	3,6	;RP1=0, select bank0
  1502  079E  00D9               	movwf	DIO_SetPinDirection@u8PinIdCopy
  1503  079F  01DA               	clrf	DIO_SetPinDirection@u8PinDirCopy
  1504  07A0  0ADA               	incf	DIO_SetPinDirection@u8PinDirCopy,f
  1505  07A1  3000               	movlw	0
  1506  07A2  120A  118A  2129  120A  118A  	fcall	_DIO_SetPinDirection
  1507  07A7  3005               	movlw	5
  1508  07A8  00FF               	movwf	btemp+1
  1509  07A9  087F               	movf	btemp+1,w
  1510  07AA  1283               	bcf	3,5	;RP0=0, select bank0
  1511  07AB  1303               	bcf	3,6	;RP1=0, select bank0
  1512  07AC  00D9               	movwf	DIO_SetPinDirection@u8PinIdCopy
  1513  07AD  01DA               	clrf	DIO_SetPinDirection@u8PinDirCopy
  1514  07AE  0ADA               	incf	DIO_SetPinDirection@u8PinDirCopy,f
  1515  07AF  3000               	movlw	0
  1516  07B0  120A  118A  2129  120A  118A  	fcall	_DIO_SetPinDirection
  1517  07B5  1283               	bcf	3,5	;RP0=0, select bank0
  1518  07B6  1303               	bcf	3,6	;RP1=0, select bank0
  1519  07B7  01D9               	clrf	DIO_SetPortDirection@u8PortDir
  1520  07B8  3003               	movlw	3
  1521  07B9  120A  158A  27C9  120A  118A  	fcall	_DIO_SetPortDirection
  1522  07BE  3004               	movlw	4
  1523  07BF  00FF               	movwf	btemp+1
  1524  07C0  087F               	movf	btemp+1,w
  1525  07C1  1283               	bcf	3,5	;RP0=0, select bank0
  1526  07C2  1303               	bcf	3,6	;RP1=0, select bank0
  1527  07C3  00D9               	movwf	DIO_SetPinValue@u8PinIdCopy
  1528  07C4  01DA               	clrf	DIO_SetPinValue@u8PinValCopy
  1529  07C5  3000               	movlw	0
  1530  07C6  120A  118A  22BF  120A  118A  	fcall	_DIO_SetPinValue
  1531  07CB  3005               	movlw	5
  1532  07CC  00FF               	movwf	btemp+1
  1533  07CD  087F               	movf	btemp+1,w
  1534  07CE  1283               	bcf	3,5	;RP0=0, select bank0
  1535  07CF  1303               	bcf	3,6	;RP1=0, select bank0
  1536  07D0  00D9               	movwf	DIO_SetPinValue@u8PinIdCopy
  1537  07D1  01DA               	clrf	DIO_SetPinValue@u8PinValCopy
  1538  07D2  3000               	movlw	0
  1539  07D3  120A  118A  22BF  120A  118A  	fcall	_DIO_SetPinValue
  1540  07D8                     l405:
  1541  07D8  0008               	return
  1542  07D9                     __end_of_vid_7_Segment_Init:
  1543                           
  1544                           	psect	text3
  1545  0FC9                     __ptext3:	
  1546 ;; *************** function _DIO_SetPortDirection *****************
  1547 ;; Defined at:
  1548 ;;		line 133 in file "DIO_Prog.c"
  1549 ;; Parameters:    Size  Location     Type
  1550 ;;  u8PortId        1    wreg     unsigned char 
  1551 ;;  u8PortDir       1   16[BANK0 ] unsigned char 
  1552 ;; Auto vars:     Size  Location     Type
  1553 ;;  u8PortId        1   19[BANK0 ] unsigned char 
  1554 ;; Return value:  Size  Location     Type
  1555 ;;                  1    wreg      void 
  1556 ;; Registers used:
  1557 ;;		wreg, fsr0l, fsr0h, status,2, status,0, btemp+1
  1558 ;; Tracked objects:
  1559 ;;		On entry : 0/0
  1560 ;;		On exit  : 0/0
  1561 ;;		Unchanged: 0/0
  1562 ;; Data sizes:     COMMON   BANK0   BANK1   BANK3   BANK2
  1563 ;;      Params:         0       1       0       0       0
  1564 ;;      Locals:         0       1       0       0       0
  1565 ;;      Temps:          0       2       0       0       0
  1566 ;;      Totals:         0       4       0       0       0
  1567 ;;Total ram usage:        4 bytes
  1568 ;; Hardware stack levels used:    1
  1569 ;; Hardware stack levels required when called:    7
  1570 ;; This function calls:
  1571 ;;		Nothing
  1572 ;; This function is called by:
  1573 ;;		_vid_7_Segment_Init
  1574 ;; This function uses a non-reentrant model
  1575 ;;
  1576                           
  1577                           
  1578                           ;psect for function _DIO_SetPortDirection
  1579  0FC9                     _DIO_SetPortDirection:
  1580                           
  1581                           ;incstack = 0
  1582 ;; hardware stack exceeded
  1583                           ; Regs used in _DIO_SetPortDirection: [wreg-fsr0h+status,2+status,0+btemp+1]
  1584                           ;DIO_SetPortDirection@u8PortId stored from wreg
  1585  0FC9  1283               	bcf	3,5	;RP0=0, select bank0
  1586  0FCA  1303               	bcf	3,6	;RP1=0, select bank0
  1587  0FCB  00DC               	movwf	DIO_SetPortDirection@u8PortId
  1588  0FCC                     l2401:
  1589                           
  1590                           ;DIO_Prog.c: 133: void DIO_SetPortDirection (u8 u8PortId, u8 u8PortDir);DIO_Prog.c: 134:
      +                           {;DIO_Prog.c: 136:  switch (u8PortId)
  1591  0FCC  2FE9               	goto	l2413
  1592  0FCD                     l2403:
  1593  0FCD  0859               	movf	DIO_SetPortDirection@u8PortDir,w
  1594  0FCE  00FF               	movwf	btemp+1
  1595  0FCF  087F               	movf	btemp+1,w
  1596  0FD0  1683               	bsf	3,5	;RP0=1, select bank1
  1597  0FD1  1303               	bcf	3,6	;RP1=0, select bank1
  1598  0FD2  0085               	movwf	5	;volatile
  1599  0FD3  2FFF               	goto	l223
  1600  0FD4                     l2405:
  1601  0FD4  0859               	movf	DIO_SetPortDirection@u8PortDir,w
  1602  0FD5  00FF               	movwf	btemp+1
  1603  0FD6  087F               	movf	btemp+1,w
  1604  0FD7  1683               	bsf	3,5	;RP0=1, select bank1
  1605  0FD8  1303               	bcf	3,6	;RP1=0, select bank1
  1606  0FD9  0086               	movwf	6	;volatile
  1607  0FDA  2FFF               	goto	l223
  1608  0FDB                     l2407:
  1609  0FDB  0859               	movf	DIO_SetPortDirection@u8PortDir,w
  1610  0FDC  00FF               	movwf	btemp+1
  1611  0FDD  087F               	movf	btemp+1,w
  1612  0FDE  1683               	bsf	3,5	;RP0=1, select bank1
  1613  0FDF  1303               	bcf	3,6	;RP1=0, select bank1
  1614  0FE0  0087               	movwf	7	;volatile
  1615  0FE1  2FFF               	goto	l223
  1616  0FE2                     l2409:
  1617  0FE2  0859               	movf	DIO_SetPortDirection@u8PortDir,w
  1618  0FE3  00FF               	movwf	btemp+1
  1619  0FE4  087F               	movf	btemp+1,w
  1620  0FE5  1683               	bsf	3,5	;RP0=1, select bank1
  1621  0FE6  1303               	bcf	3,6	;RP1=0, select bank1
  1622  0FE7  0088               	movwf	8	;volatile
  1623  0FE8  2FFF               	goto	l223
  1624  0FE9                     l2413:
  1625  0FE9  085C               	movf	DIO_SetPortDirection@u8PortId,w
  1626  0FEA  00DA               	movwf	??_DIO_SetPortDirection
  1627  0FEB  01DB               	clrf	??_DIO_SetPortDirection+1
  1628                           
  1629                           ; Switch on 2 bytes has been partitioned into a top level switch of size 1, and 1 sub-sw
      +                          itches
  1630                           ; Switch size 1, requested type "simple"
  1631                           ; Number of cases is 1, Range of values is 0 to 0
  1632                           ; switch strategies available:
  1633                           ; Name         Instructions Cycles
  1634                           ; simple_byte            4     3 (average)
  1635                           ; direct_byte           11     8 (fixed)
  1636                           ; jumptable            260     6 (fixed)
  1637                           ;	Chosen strategy is simple_byte
  1638  0FEC  085B               	movf	??_DIO_SetPortDirection+1,w
  1639  0FED  3A00               	xorlw	0	; case 0
  1640  0FEE  1903               	skipnz
  1641  0FEF  2FF1               	goto	l3201
  1642  0FF0  2FFF               	goto	l223
  1643  0FF1                     l3201:
  1644                           
  1645                           ; Switch size 1, requested type "simple"
  1646                           ; Number of cases is 4, Range of values is 0 to 3
  1647                           ; switch strategies available:
  1648                           ; Name         Instructions Cycles
  1649                           ; simple_byte           13     7 (average)
  1650                           ; direct_byte           20     8 (fixed)
  1651                           ; jumptable            260     6 (fixed)
  1652                           ;	Chosen strategy is simple_byte
  1653  0FF1  085A               	movf	??_DIO_SetPortDirection,w
  1654  0FF2  3A00               	xorlw	0	; case 0
  1655  0FF3  1903               	skipnz
  1656  0FF4  2FCD               	goto	l2403
  1657  0FF5  3A01               	xorlw	1	; case 1
  1658  0FF6  1903               	skipnz
  1659  0FF7  2FD4               	goto	l2405
  1660  0FF8  3A03               	xorlw	3	; case 2
  1661  0FF9  1903               	skipnz
  1662  0FFA  2FDB               	goto	l2407
  1663  0FFB  3A01               	xorlw	1	; case 3
  1664  0FFC  1903               	skipnz
  1665  0FFD  2FE2               	goto	l2409
  1666  0FFE  2FFF               	goto	l223
  1667  0FFF                     l223:
  1668  0FFF  0008               	return
  1669  1000                     __end_of_DIO_SetPortDirection:
  1670                           
  1671                           	psect	text4
  1672  0CE9                     __ptext4:	
  1673 ;; *************** function _Timer1_Init_Comp *****************
  1674 ;; Defined at:
  1675 ;;		line 18 in file "Timer1_Prog.c"
  1676 ;; Parameters:    Size  Location     Type
  1677 ;;		None
  1678 ;; Auto vars:     Size  Location     Type
  1679 ;;		None
  1680 ;; Return value:  Size  Location     Type
  1681 ;;                  1    wreg      void 
  1682 ;; Registers used:
  1683 ;;		wreg, status,2, btemp+1
  1684 ;; Tracked objects:
  1685 ;;		On entry : 0/0
  1686 ;;		On exit  : 0/0
  1687 ;;		Unchanged: 0/0
  1688 ;; Data sizes:     COMMON   BANK0   BANK1   BANK3   BANK2
  1689 ;;      Params:         0       0       0       0       0
  1690 ;;      Locals:         0       0       0       0       0
  1691 ;;      Temps:          0       0       0       0       0
  1692 ;;      Totals:         0       0       0       0       0
  1693 ;;Total ram usage:        0 bytes
  1694 ;; Hardware stack levels used:    1
  1695 ;; Hardware stack levels required when called:    7
  1696 ;; This function calls:
  1697 ;;		Nothing
  1698 ;; This function is called by:
  1699 ;;		_main
  1700 ;; This function uses a non-reentrant model
  1701 ;;
  1702                           
  1703                           
  1704                           ;psect for function _Timer1_Init_Comp
  1705  0CE9                     _Timer1_Init_Comp:
  1706  0CE9                     l2575:	
  1707                           ;incstack = 0
  1708                           ; Regs used in _Timer1_Init_Comp: [wreg+status,2+btemp+1]
  1709                           
  1710                           
  1711                           ;Timer1_Prog.c: 21:     (*((volatile u8*)0x0E)) = 0 ;
  1712  0CE9  1283               	bcf	3,5	;RP0=0, select bank0
  1713  0CEA  1303               	bcf	3,6	;RP1=0, select bank0
  1714  0CEB  018E               	clrf	14	;volatile
  1715                           
  1716                           ;Timer1_Prog.c: 22:     (*((volatile u8*)0x0F)) = 0 ;
  1717  0CEC  018F               	clrf	15	;volatile
  1718  0CED                     l2577:
  1719                           
  1720                           ;Timer1_Prog.c: 30:     (*((volatile u8*)0x10)) = 0b00100001 ;
  1721  0CED  3021               	movlw	33
  1722  0CEE  00FF               	movwf	btemp+1
  1723  0CEF  087F               	movf	btemp+1,w
  1724  0CF0  0090               	movwf	16	;volatile
  1725  0CF1                     l2579:
  1726                           
  1727                           ;Timer1_Prog.c: 36:     (*((volatile u8*)0x17)) = 0b00001011 ;
  1728  0CF1  300B               	movlw	11
  1729  0CF2  00FF               	movwf	btemp+1
  1730  0CF3  087F               	movf	btemp+1,w
  1731  0CF4  0097               	movwf	23	;volatile
  1732  0CF5                     l2581:
  1733                           
  1734                           ;Timer1_Prog.c: 39:     (*((volatile u16*)0x15)) = 1000 ;
  1735  0CF5  3003               	movlw	3
  1736  0CF6  0096               	movwf	22	;volatile
  1737  0CF7  30E8               	movlw	232
  1738  0CF8  0095               	movwf	21	;volatile
  1739  0CF9                     l2583:
  1740                           
  1741                           ;Timer1_Prog.c: 42:     ((*((volatile u8*)0x8C))) |= (1 << (2)) ;
  1742  0CF9  1683               	bsf	3,5	;RP0=1, select bank1
  1743  0CFA  1303               	bcf	3,6	;RP1=0, select bank1
  1744  0CFB  150C               	bsf	12,2	;volatile
  1745  0CFC                     l2585:
  1746                           
  1747                           ;Timer1_Prog.c: 45:     ((*((volatile u8*)0x0B))) |= (1 << (6)) ;
  1748  0CFC  170B               	bsf	11,6	;volatile
  1749  0CFD                     l2587:
  1750                           
  1751                           ;Timer1_Prog.c: 48:     ((*((volatile u8*)0x0B))) |= (1 << (7)) ;
  1752  0CFD  178B               	bsf	11,7	;volatile
  1753  0CFE                     l441:
  1754  0CFE  0008               	return
  1755  0CFF                     __end_of_Timer1_Init_Comp:
  1756                           
  1757                           	psect	text5
  1758  0CC1                     __ptext5:	
  1759 ;; *************** function _TempSensor_Init *****************
  1760 ;; Defined at:
  1761 ;;		line 295 in file "APP_Program.c"
  1762 ;; Parameters:    Size  Location     Type
  1763 ;;		None
  1764 ;; Auto vars:     Size  Location     Type
  1765 ;;		None
  1766 ;; Return value:  Size  Location     Type
  1767 ;;                  1    wreg      void 
  1768 ;; Registers used:
  1769 ;;		wreg, fsr0l, fsr0h, status,2, status,0, btemp+1, pclath, cstack
  1770 ;; Tracked objects:
  1771 ;;		On entry : 0/0
  1772 ;;		On exit  : 0/0
  1773 ;;		Unchanged: 0/0
  1774 ;; Data sizes:     COMMON   BANK0   BANK1   BANK3   BANK2
  1775 ;;      Params:         0       0       0       0       0
  1776 ;;      Locals:         0       0       0       0       0
  1777 ;;      Temps:          0       0       0       0       0
  1778 ;;      Totals:         0       0       0       0       0
  1779 ;;Total ram usage:        0 bytes
  1780 ;; Hardware stack levels used:    1
  1781 ;; Hardware stack levels required when called:    8
  1782 ;; This function calls:
  1783 ;;		_ADC_Init
  1784 ;;		_DIO_SetPinDirection
  1785 ;; This function is called by:
  1786 ;;		_main
  1787 ;; This function uses a non-reentrant model
  1788 ;;
  1789                           
  1790                           
  1791                           ;psect for function _TempSensor_Init
  1792  0CC1                     _TempSensor_Init:
  1793  0CC1                     l2515:	
  1794                           ;incstack = 0
  1795 ;; hardware stack exceeded
  1796                           ; Regs used in _TempSensor_Init: [wreg-fsr0h+status,2+status,0+btemp+1+pclath+cstack]
  1797                           
  1798                           
  1799                           ;APP_Program.c: 297:     DIO_SetPinDirection(0 , 2 , 0 );
  1800  0CC1  3002               	movlw	2
  1801  0CC2  00FF               	movwf	btemp+1
  1802  0CC3  087F               	movf	btemp+1,w
  1803  0CC4  1283               	bcf	3,5	;RP0=0, select bank0
  1804  0CC5  1303               	bcf	3,6	;RP1=0, select bank0
  1805  0CC6  00D9               	movwf	DIO_SetPinDirection@u8PinIdCopy
  1806  0CC7  01DA               	clrf	DIO_SetPinDirection@u8PinDirCopy
  1807  0CC8  3000               	movlw	0
  1808  0CC9  120A  118A  2129  120A  158A  	fcall	_DIO_SetPinDirection
  1809  0CCE                     l2517:
  1810                           
  1811                           ;APP_Program.c: 298:     ADC_Init() ;
  1812  0CCE  120A  158A  247F  120A  158A  	fcall	_ADC_Init
  1813  0CD3                     l131:
  1814  0CD3  0008               	return
  1815  0CD4                     __end_of_TempSensor_Init:
  1816                           
  1817                           	psect	text6
  1818  0C7F                     __ptext6:	
  1819 ;; *************** function _ADC_Init *****************
  1820 ;; Defined at:
  1821 ;;		line 12 in file "ADC_Prog.c"
  1822 ;; Parameters:    Size  Location     Type
  1823 ;;		None
  1824 ;; Auto vars:     Size  Location     Type
  1825 ;;		None
  1826 ;; Return value:  Size  Location     Type
  1827 ;;                  1    wreg      void 
  1828 ;; Registers used:
  1829 ;;		wreg, btemp+1
  1830 ;; Tracked objects:
  1831 ;;		On entry : 0/0
  1832 ;;		On exit  : 0/0
  1833 ;;		Unchanged: 0/0
  1834 ;; Data sizes:     COMMON   BANK0   BANK1   BANK3   BANK2
  1835 ;;      Params:         0       0       0       0       0
  1836 ;;      Locals:         0       0       0       0       0
  1837 ;;      Temps:          0       0       0       0       0
  1838 ;;      Totals:         0       0       0       0       0
  1839 ;;Total ram usage:        0 bytes
  1840 ;; Hardware stack levels used:    1
  1841 ;; Hardware stack levels required when called:    7
  1842 ;; This function calls:
  1843 ;;		Nothing
  1844 ;; This function is called by:
  1845 ;;		_TempSensor_Init
  1846 ;; This function uses a non-reentrant model
  1847 ;;
  1848                           
  1849                           
  1850                           ;psect for function _ADC_Init
  1851  0C7F                     _ADC_Init:
  1852  0C7F                     l2353:	
  1853                           ;incstack = 0
  1854 ;; hardware stack exceeded
  1855                           ; Regs used in _ADC_Init: [wreg+btemp+1]
  1856                           
  1857                           
  1858                           ;ADC_Prog.c: 18:     (*((volatile u8*)0x1F)) = 0x41 ;
  1859  0C7F  3041               	movlw	65
  1860  0C80  00FF               	movwf	btemp+1
  1861  0C81  087F               	movf	btemp+1,w
  1862  0C82  1283               	bcf	3,5	;RP0=0, select bank0
  1863  0C83  1303               	bcf	3,6	;RP1=0, select bank0
  1864  0C84  009F               	movwf	31	;volatile
  1865                           
  1866                           ;ADC_Prog.c: 24:     (*((volatile u8*)0x9F)) = 0x80 ;
  1867  0C85  3080               	movlw	128
  1868  0C86  00FF               	movwf	btemp+1
  1869  0C87  087F               	movf	btemp+1,w
  1870  0C88  1683               	bsf	3,5	;RP0=1, select bank1
  1871  0C89  1303               	bcf	3,6	;RP1=0, select bank1
  1872  0C8A  009F               	movwf	31	;volatile
  1873  0C8B                     l324:
  1874  0C8B  0008               	return
  1875  0C8C                     __end_of_ADC_Init:
  1876                           
  1877                           	psect	text7
  1878  0F62                     __ptext7:	
  1879 ;; *************** function _SystemVars_Init *****************
  1880 ;; Defined at:
  1881 ;;		line 57 in file "APP_Program.c"
  1882 ;; Parameters:    Size  Location     Type
  1883 ;;		None
  1884 ;; Auto vars:     Size  Location     Type
  1885 ;;		None
  1886 ;; Return value:  Size  Location     Type
  1887 ;;                  1    wreg      void 
  1888 ;; Registers used:
  1889 ;;		wreg, status,2, status,0, btemp+1, pclath, cstack
  1890 ;; Tracked objects:
  1891 ;;		On entry : 0/0
  1892 ;;		On exit  : 0/0
  1893 ;;		Unchanged: 0/0
  1894 ;; Data sizes:     COMMON   BANK0   BANK1   BANK3   BANK2
  1895 ;;      Params:         0       0       0       0       0
  1896 ;;      Locals:         0       0       0       0       0
  1897 ;;      Temps:          0       1       0       0       0
  1898 ;;      Totals:         0       1       0       0       0
  1899 ;;Total ram usage:        1 bytes
  1900 ;; Hardware stack levels used:    1
  1901 ;; Hardware stack levels required when called:   10
  1902 ;; This function calls:
  1903 ;;		_EEPROM_ReadFromEEPROM
  1904 ;;		_EEPROM_WriteToEEPROM
  1905 ;; This function is called by:
  1906 ;;		_main
  1907 ;; This function uses a non-reentrant model
  1908 ;;
  1909                           
  1910                           
  1911                           ;psect for function _SystemVars_Init
  1912  0F62                     _SystemVars_Init:
  1913  0F62                     l2457:	
  1914                           ;incstack = 0
  1915 ;; hardware stack exceeded
  1916                           ; Regs used in _SystemVars_Init: [wreg+status,2+status,0+btemp+1+pclath+cstack]
  1917                           
  1918                           
  1919                           ;APP_Program.c: 59:     if ( (EEPROM_ReadFromEEPROM() < 75 ) && (EEPROM_ReadFromEEPROM()
      +                           >35 ) )
  1920  0F62  120A  158A  26CF  120A  158A  	fcall	_EEPROM_ReadFromEEPROM
  1921  0F67  1283               	bcf	3,5	;RP0=0, select bank0
  1922  0F68  1303               	bcf	3,6	;RP1=0, select bank0
  1923  0F69  00DC               	movwf	??_SystemVars_Init
  1924  0F6A  304B               	movlw	75
  1925  0F6B  025C               	subwf	??_SystemVars_Init,w
  1926  0F6C  1803               	skipnc
  1927  0F6D  2F6F               	goto	u1691
  1928  0F6E  2F70               	goto	u1690
  1929  0F6F                     u1691:
  1930  0F6F  2F7F               	goto	l2463
  1931  0F70                     u1690:
  1932  0F70                     l2459:
  1933  0F70  120A  158A  26CF  120A  158A  	fcall	_EEPROM_ReadFromEEPROM
  1934  0F75  1283               	bcf	3,5	;RP0=0, select bank0
  1935  0F76  1303               	bcf	3,6	;RP1=0, select bank0
  1936  0F77  00DC               	movwf	??_SystemVars_Init
  1937  0F78  3024               	movlw	36
  1938  0F79  025C               	subwf	??_SystemVars_Init,w
  1939  0F7A  1C03               	skipc
  1940  0F7B  2F7D               	goto	u1701
  1941  0F7C  2F7E               	goto	u1700
  1942  0F7D                     u1701:
  1943  0F7D  2F7F               	goto	l2463
  1944  0F7E                     u1700:
  1945  0F7E  2F85               	goto	l63
  1946  0F7F                     l2463:
  1947                           
  1948                           ;APP_Program.c: 64:     {;APP_Program.c: 65:         EEPROM_WriteToEEPROM(60) ;
  1949  0F7F  303C               	movlw	60
  1950  0F80  120A  118A  27D9  120A  158A  	fcall	_EEPROM_WriteToEEPROM
  1951  0F85                     l63:	
  1952                           ;APP_Program.c: 66:     }
  1953                           
  1954                           
  1955                           ;APP_Program.c: 68:     u8_Temp_Set = EEPROM_ReadFromEEPROM() ;
  1956  0F85  120A  158A  26CF  120A  158A  	fcall	_EEPROM_ReadFromEEPROM
  1957  0F8A  00FF               	movwf	btemp+1
  1958  0F8B  087F               	movf	btemp+1,w
  1959  0F8C  1283               	bcf	3,5	;RP0=0, select bank0
  1960  0F8D  1303               	bcf	3,6	;RP1=0, select bank0
  1961  0F8E  00C8               	movwf	_u8_Temp_Set
  1962  0F8F                     l2465:
  1963                           
  1964                           ;APP_Program.c: 69:      ON_OFF_Status = 0 ;
  1965  0F8F  01C7               	clrf	_ON_OFF_Status
  1966  0F90                     l2467:
  1967                           
  1968                           ;APP_Program.c: 70:      ON_OFF_Flag = 0 ;
  1969  0F90  01C6               	clrf	_ON_OFF_Flag
  1970  0F91                     l2469:
  1971                           
  1972                           ;APP_Program.c: 71:      Set_Temp_Flag = 0 ;
  1973  0F91  01C5               	clrf	_Set_Temp_Flag
  1974  0F92                     l2471:
  1975                           
  1976                           ;APP_Program.c: 72:      TempChange_Status = 0 ;
  1977  0F92  01C4               	clrf	_TempChange_Status
  1978  0F93                     l64:
  1979  0F93  0008               	return
  1980  0F94                     __end_of_SystemVars_Init:
  1981                           
  1982                           	psect	text8
  1983  07D9                     __ptext8:	
  1984 ;; *************** function _EEPROM_WriteToEEPROM *****************
  1985 ;; Defined at:
  1986 ;;		line 26 in file "EEPROM_Prog.c"
  1987 ;; Parameters:    Size  Location     Type
  1988 ;;  u8_Data         1    wreg     unsigned char 
  1989 ;; Auto vars:     Size  Location     Type
  1990 ;;  u8_Data         1   17[BANK0 ] unsigned char 
  1991 ;; Return value:  Size  Location     Type
  1992 ;;                  1    wreg      void 
  1993 ;; Registers used:
  1994 ;;		wreg, status,2, status,0, btemp+1, pclath, cstack
  1995 ;; Tracked objects:
  1996 ;;		On entry : 0/0
  1997 ;;		On exit  : 0/0
  1998 ;;		Unchanged: 0/0
  1999 ;; Data sizes:     COMMON   BANK0   BANK1   BANK3   BANK2
  2000 ;;      Params:         0       0       0       0       0
  2001 ;;      Locals:         0       1       0       0       0
  2002 ;;      Temps:          0       0       0       0       0
  2003 ;;      Totals:         0       1       0       0       0
  2004 ;;Total ram usage:        1 bytes
  2005 ;; Hardware stack levels used:    1
  2006 ;; Hardware stack levels required when called:    9
  2007 ;; This function calls:
  2008 ;;		_I2CBegin
  2009 ;;		_I2C_End
  2010 ;;		_I2C_Write
  2011 ;; This function is called by:
  2012 ;;		_SystemVars_Init
  2013 ;; This function uses a non-reentrant model
  2014 ;;
  2015                           
  2016                           
  2017                           ;psect for function _EEPROM_WriteToEEPROM
  2018  07D9                     _EEPROM_WriteToEEPROM:
  2019                           
  2020                           ;incstack = 0
  2021 ;; hardware stack exceeded
  2022                           ; Regs used in _EEPROM_WriteToEEPROM: [wreg+status,2+status,0+btemp+1+pclath+cstack]
  2023                           ;EEPROM_WriteToEEPROM@u8_Data stored from wreg
  2024  07D9  1283               	bcf	3,5	;RP0=0, select bank0
  2025  07DA  1303               	bcf	3,6	;RP1=0, select bank0
  2026  07DB  00DA               	movwf	EEPROM_WriteToEEPROM@u8_Data
  2027  07DC                     l2255:
  2028                           
  2029                           ;EEPROM_Prog.c: 26: void EEPROM_WriteToEEPROM (u8 u8_Data);EEPROM_Prog.c: 27: {;EEPROM_P
      +                          rog.c: 28:     I2CBegin() ;
  2030  07DC  120A  158A  2400  120A  118A  	fcall	_I2CBegin
  2031  07E1                     l2257:
  2032                           
  2033                           ;EEPROM_Prog.c: 30:     I2C_Write(0xA0) ;
  2034  07E1  30A0               	movlw	160
  2035  07E2  120A  158A  248C  120A  118A  	fcall	_I2C_Write
  2036  07E7                     l2259:
  2037                           
  2038                           ;EEPROM_Prog.c: 31:     I2C_Write(0x00);
  2039  07E7  3000               	movlw	0
  2040  07E8  120A  158A  248C  120A  118A  	fcall	_I2C_Write
  2041  07ED                     l2261:
  2042                           
  2043                           ;EEPROM_Prog.c: 32:     I2C_Write(u8_Data);
  2044  07ED  1283               	bcf	3,5	;RP0=0, select bank0
  2045  07EE  1303               	bcf	3,6	;RP1=0, select bank0
  2046  07EF  085A               	movf	EEPROM_WriteToEEPROM@u8_Data,w
  2047  07F0  120A  158A  248C  120A  118A  	fcall	_I2C_Write
  2048  07F5                     l2263:
  2049                           
  2050                           ;EEPROM_Prog.c: 33:     I2C_End() ;
  2051  07F5  120A  158A  2409  120A  118A  	fcall	_I2C_End
  2052  07FA                     l288:
  2053  07FA  0008               	return
  2054  07FB                     __end_of_EEPROM_WriteToEEPROM:
  2055                           
  2056                           	psect	text9
  2057  0ECF                     __ptext9:	
  2058 ;; *************** function _EEPROM_ReadFromEEPROM *****************
  2059 ;; Defined at:
  2060 ;;		line 38 in file "EEPROM_Prog.c"
  2061 ;; Parameters:    Size  Location     Type
  2062 ;;		None
  2063 ;; Auto vars:     Size  Location     Type
  2064 ;;  Data            1   18[BANK0 ] unsigned char 
  2065 ;; Return value:  Size  Location     Type
  2066 ;;                  1    wreg      unsigned char 
  2067 ;; Registers used:
  2068 ;;		wreg, status,2, status,0, btemp+1, pclath, cstack
  2069 ;; Tracked objects:
  2070 ;;		On entry : 0/0
  2071 ;;		On exit  : 0/0
  2072 ;;		Unchanged: 0/0
  2073 ;; Data sizes:     COMMON   BANK0   BANK1   BANK3   BANK2
  2074 ;;      Params:         0       0       0       0       0
  2075 ;;      Locals:         0       1       0       0       0
  2076 ;;      Temps:          0       0       0       0       0
  2077 ;;      Totals:         0       1       0       0       0
  2078 ;;Total ram usage:        1 bytes
  2079 ;; Hardware stack levels used:    1
  2080 ;; Hardware stack levels required when called:    9
  2081 ;; This function calls:
  2082 ;;		_I2CBegin
  2083 ;;		_I2C_End
  2084 ;;		_I2C_Read
  2085 ;;		_I2C_RepeatedStart
  2086 ;;		_I2C_Write
  2087 ;; This function is called by:
  2088 ;;		_SystemVars_Init
  2089 ;; This function uses a non-reentrant model
  2090 ;;
  2091                           
  2092                           
  2093                           ;psect for function _EEPROM_ReadFromEEPROM
  2094  0ECF                     _EEPROM_ReadFromEEPROM:
  2095  0ECF                     l2241:	
  2096                           ;incstack = 0
  2097 ;; hardware stack exceeded
  2098                           ; Regs used in _EEPROM_ReadFromEEPROM: [wreg+status,2+status,0+btemp+1+pclath+cstack]
  2099                           
  2100                           
  2101                           ;EEPROM_Prog.c: 40:      u8 Data ;;EEPROM_Prog.c: 42:     I2CBegin() ;
  2102  0ECF  120A  158A  2400  120A  158A  	fcall	_I2CBegin
  2103  0ED4                     l2243:
  2104                           
  2105                           ;EEPROM_Prog.c: 43:     I2C_Write(0xA0);
  2106  0ED4  30A0               	movlw	160
  2107  0ED5  120A  158A  248C  120A  158A  	fcall	_I2C_Write
  2108  0EDA                     l2245:
  2109                           
  2110                           ;EEPROM_Prog.c: 45:     I2C_Write((u8)0x00);
  2111  0EDA  3000               	movlw	0
  2112  0EDB  120A  158A  248C  120A  158A  	fcall	_I2C_Write
  2113                           
  2114                           ;EEPROM_Prog.c: 46:     I2C_RepeatedStart();
  2115  0EE0  120A  158A  2412  120A  158A  	fcall	_I2C_RepeatedStart
  2116  0EE5                     l2247:
  2117                           
  2118                           ;EEPROM_Prog.c: 48:     I2C_Write((0xA0)+1);
  2119  0EE5  30A1               	movlw	161
  2120  0EE6  120A  158A  248C  120A  158A  	fcall	_I2C_Write
  2121  0EEB                     l2249:
  2122                           
  2123                           ;EEPROM_Prog.c: 50:     Data = I2C_Read(0) ;
  2124  0EEB  3000               	movlw	0
  2125  0EEC  120A  158A  26FF  120A  158A  	fcall	_I2C_Read
  2126  0EF1  00FF               	movwf	btemp+1
  2127  0EF2  087F               	movf	btemp+1,w
  2128  0EF3  1283               	bcf	3,5	;RP0=0, select bank0
  2129  0EF4  1303               	bcf	3,6	;RP1=0, select bank0
  2130  0EF5  00DB               	movwf	EEPROM_ReadFromEEPROM@Data
  2131                           
  2132                           ;EEPROM_Prog.c: 52:    I2C_End() ;
  2133  0EF6  120A  158A  2409  120A  158A  	fcall	_I2C_End
  2134  0EFB                     l2251:
  2135                           
  2136                           ;EEPROM_Prog.c: 54:    return Data ;
  2137  0EFB  1283               	bcf	3,5	;RP0=0, select bank0
  2138  0EFC  1303               	bcf	3,6	;RP1=0, select bank0
  2139  0EFD  085B               	movf	EEPROM_ReadFromEEPROM@Data,w
  2140  0EFE                     l291:
  2141  0EFE  0008               	return
  2142  0EFF                     __end_of_EEPROM_ReadFromEEPROM:
  2143                           
  2144                           	psect	text10
  2145  0C8C                     __ptext10:	
  2146 ;; *************** function _I2C_Write *****************
  2147 ;; Defined at:
  2148 ;;		line 67 in file "I2C_Prog.c"
  2149 ;; Parameters:    Size  Location     Type
  2150 ;;  u8_Data         1    wreg     unsigned char 
  2151 ;; Auto vars:     Size  Location     Type
  2152 ;;  u8_Data         1   16[BANK0 ] unsigned char 
  2153 ;; Return value:  Size  Location     Type
  2154 ;;                  1    wreg      void 
  2155 ;; Registers used:
  2156 ;;		wreg, status,2, status,0, btemp+1, pclath, cstack
  2157 ;; Tracked objects:
  2158 ;;		On entry : 0/0
  2159 ;;		On exit  : 0/0
  2160 ;;		Unchanged: 0/0
  2161 ;; Data sizes:     COMMON   BANK0   BANK1   BANK3   BANK2
  2162 ;;      Params:         0       0       0       0       0
  2163 ;;      Locals:         0       1       0       0       0
  2164 ;;      Temps:          0       0       0       0       0
  2165 ;;      Totals:         0       1       0       0       0
  2166 ;;Total ram usage:        1 bytes
  2167 ;; Hardware stack levels used:    1
  2168 ;; Hardware stack levels required when called:    8
  2169 ;; This function calls:
  2170 ;;		_I2C_Hold
  2171 ;; This function is called by:
  2172 ;;		_EEPROM_WriteToEEPROM
  2173 ;;		_EEPROM_ReadFromEEPROM
  2174 ;; This function uses a non-reentrant model
  2175 ;;
  2176                           
  2177                           
  2178                           ;psect for function _I2C_Write
  2179  0C8C                     _I2C_Write:
  2180                           
  2181                           ;incstack = 0
  2182 ;; hardware stack exceeded
  2183                           ; Regs used in _I2C_Write: [wreg+status,2+status,0+btemp+1+pclath+cstack]
  2184                           ;I2C_Write@u8_Data stored from wreg
  2185  0C8C  1283               	bcf	3,5	;RP0=0, select bank0
  2186  0C8D  1303               	bcf	3,6	;RP1=0, select bank0
  2187  0C8E  00D9               	movwf	I2C_Write@u8_Data
  2188  0C8F                     l2189:
  2189                           
  2190                           ;I2C_Prog.c: 67: void I2C_Write (u8 u8_Data );I2C_Prog.c: 68: {;I2C_Prog.c: 69:     I2C_
      +                          Hold();
  2191  0C8F  120A  158A  2472  120A  158A  	fcall	_I2C_Hold
  2192  0C94                     l2191:
  2193                           
  2194                           ;I2C_Prog.c: 70:     (*((volatile u8*)0x13)) = u8_Data ;
  2195  0C94  1283               	bcf	3,5	;RP0=0, select bank0
  2196  0C95  1303               	bcf	3,6	;RP1=0, select bank0
  2197  0C96  0859               	movf	I2C_Write@u8_Data,w
  2198  0C97  00FF               	movwf	btemp+1
  2199  0C98  087F               	movf	btemp+1,w
  2200  0C99  0093               	movwf	19	;volatile
  2201  0C9A                     l314:
  2202  0C9A  0008               	return
  2203  0C9B                     __end_of_I2C_Write:
  2204                           
  2205                           	psect	text11
  2206  0C12                     __ptext11:	
  2207 ;; *************** function _I2C_RepeatedStart *****************
  2208 ;; Defined at:
  2209 ;;		line 49 in file "I2C_Prog.c"
  2210 ;; Parameters:    Size  Location     Type
  2211 ;;		None
  2212 ;; Auto vars:     Size  Location     Type
  2213 ;;		None
  2214 ;; Return value:  Size  Location     Type
  2215 ;;                  1    wreg      void 
  2216 ;; Registers used:
  2217 ;;		wreg, status,2, status,0, pclath, cstack
  2218 ;; Tracked objects:
  2219 ;;		On entry : 0/0
  2220 ;;		On exit  : 0/0
  2221 ;;		Unchanged: 0/0
  2222 ;; Data sizes:     COMMON   BANK0   BANK1   BANK3   BANK2
  2223 ;;      Params:         0       0       0       0       0
  2224 ;;      Locals:         0       0       0       0       0
  2225 ;;      Temps:          0       0       0       0       0
  2226 ;;      Totals:         0       0       0       0       0
  2227 ;;Total ram usage:        0 bytes
  2228 ;; Hardware stack levels used:    1
  2229 ;; Hardware stack levels required when called:    8
  2230 ;; This function calls:
  2231 ;;		_I2C_Hold
  2232 ;; This function is called by:
  2233 ;;		_EEPROM_ReadFromEEPROM
  2234 ;; This function uses a non-reentrant model
  2235 ;;
  2236                           
  2237                           
  2238                           ;psect for function _I2C_RepeatedStart
  2239  0C12                     _I2C_RepeatedStart:
  2240  0C12                     l2197:	
  2241                           ;incstack = 0
  2242 ;; hardware stack exceeded
  2243                           ; Regs used in _I2C_RepeatedStart: [wreg+status,2+status,0+pclath+cstack]
  2244                           
  2245                           
  2246                           ;I2C_Prog.c: 51:          I2C_Hold() ;
  2247  0C12  120A  158A  2472  120A  158A  	fcall	_I2C_Hold
  2248  0C17                     l2199:
  2249                           
  2250                           ;I2C_Prog.c: 53:      ((*((volatile u8*)0x91))) |= (1 << (1)) ;
  2251  0C17  1683               	bsf	3,5	;RP0=1, select bank1
  2252  0C18  1303               	bcf	3,6	;RP1=0, select bank1
  2253  0C19  1491               	bsf	17,1	;volatile
  2254  0C1A                     l308:
  2255  0C1A  0008               	return
  2256  0C1B                     __end_of_I2C_RepeatedStart:
  2257                           
  2258                           	psect	text12
  2259  0EFF                     __ptext12:	
  2260 ;; *************** function _I2C_Read *****************
  2261 ;; Defined at:
  2262 ;;		line 76 in file "I2C_Prog.c"
  2263 ;; Parameters:    Size  Location     Type
  2264 ;;  ack             1    wreg     unsigned char 
  2265 ;; Auto vars:     Size  Location     Type
  2266 ;;  ack             1   16[BANK0 ] unsigned char 
  2267 ;;  u8_DataRead     1   17[BANK0 ] unsigned char 
  2268 ;; Return value:  Size  Location     Type
  2269 ;;                  1    wreg      unsigned char 
  2270 ;; Registers used:
  2271 ;;		wreg, status,2, status,0, btemp+1, pclath, cstack
  2272 ;; Tracked objects:
  2273 ;;		On entry : 0/0
  2274 ;;		On exit  : 0/0
  2275 ;;		Unchanged: 0/0
  2276 ;; Data sizes:     COMMON   BANK0   BANK1   BANK3   BANK2
  2277 ;;      Params:         0       0       0       0       0
  2278 ;;      Locals:         0       2       0       0       0
  2279 ;;      Temps:          0       0       0       0       0
  2280 ;;      Totals:         0       2       0       0       0
  2281 ;;Total ram usage:        2 bytes
  2282 ;; Hardware stack levels used:    1
  2283 ;; Hardware stack levels required when called:    8
  2284 ;; This function calls:
  2285 ;;		_I2C_Hold
  2286 ;; This function is called by:
  2287 ;;		_EEPROM_ReadFromEEPROM
  2288 ;; This function uses a non-reentrant model
  2289 ;;
  2290                           
  2291                           
  2292                           ;psect for function _I2C_Read
  2293  0EFF                     _I2C_Read:
  2294                           
  2295                           ;incstack = 0
  2296 ;; hardware stack exceeded
  2297                           ; Regs used in _I2C_Read: [wreg+status,2+status,0+btemp+1+pclath+cstack]
  2298                           ;I2C_Read@ack stored from wreg
  2299  0EFF  1283               	bcf	3,5	;RP0=0, select bank0
  2300  0F00  1303               	bcf	3,6	;RP1=0, select bank0
  2301  0F01  00D9               	movwf	I2C_Read@ack
  2302  0F02                     l2201:
  2303                           
  2304                           ;I2C_Prog.c: 76: u8 I2C_Read (u8 ack);I2C_Prog.c: 77: {;I2C_Prog.c: 78:     u8 u8_DataRe
      +                          ad ;;I2C_Prog.c: 79:     I2C_Hold() ;
  2305  0F02  120A  158A  2472  120A  158A  	fcall	_I2C_Hold
  2306  0F07                     l2203:
  2307                           
  2308                           ;I2C_Prog.c: 80:     ((*((volatile u8*)0x91))) |= (1 << (3)) ;
  2309  0F07  1683               	bsf	3,5	;RP0=1, select bank1
  2310  0F08  1303               	bcf	3,6	;RP1=0, select bank1
  2311  0F09  1591               	bsf	17,3	;volatile
  2312                           
  2313                           ;I2C_Prog.c: 82:     I2C_Hold() ;
  2314  0F0A  120A  158A  2472  120A  158A  	fcall	_I2C_Hold
  2315  0F0F                     l2205:
  2316                           
  2317                           ;I2C_Prog.c: 83:     u8_DataRead = (*((volatile u8*)0x13)) ;
  2318  0F0F  1283               	bcf	3,5	;RP0=0, select bank0
  2319  0F10  1303               	bcf	3,6	;RP1=0, select bank0
  2320  0F11  0813               	movf	19,w	;volatile
  2321  0F12  00FF               	movwf	btemp+1
  2322  0F13  087F               	movf	btemp+1,w
  2323  0F14  00DA               	movwf	I2C_Read@u8_DataRead
  2324  0F15                     l2207:
  2325                           
  2326                           ;I2C_Prog.c: 85:     I2C_Hold() ;
  2327  0F15  120A  158A  2472  120A  158A  	fcall	_I2C_Hold
  2328  0F1A                     l2209:
  2329                           
  2330                           ;I2C_Prog.c: 87:     if (ack)
  2331  0F1A  1283               	bcf	3,5	;RP0=0, select bank0
  2332  0F1B  1303               	bcf	3,6	;RP1=0, select bank0
  2333  0F1C  0859               	movf	I2C_Read@ack,w
  2334  0F1D  1903               	btfsc	3,2
  2335  0F1E  2F20               	goto	u1401
  2336  0F1F  2F21               	goto	u1400
  2337  0F20                     u1401:
  2338  0F20  2F25               	goto	l2213
  2339  0F21                     u1400:
  2340  0F21                     l2211:
  2341                           
  2342                           ;I2C_Prog.c: 88:     {;I2C_Prog.c: 89:         ((*((volatile u8*)0x91))) |= (1 << (5));
  2343  0F21  1683               	bsf	3,5	;RP0=1, select bank1
  2344  0F22  1303               	bcf	3,6	;RP1=0, select bank1
  2345  0F23  1691               	bsf	17,5	;volatile
  2346                           
  2347                           ;I2C_Prog.c: 90:     }
  2348  0F24  2F2B               	goto	l2215
  2349  0F25                     l2213:
  2350                           
  2351                           ;I2C_Prog.c: 92:     {;I2C_Prog.c: 93:         ((*((volatile u8*)0x91))) &= ~(1 << (5));
  2352  0F25  30DF               	movlw	223
  2353  0F26  00FF               	movwf	btemp+1
  2354  0F27  087F               	movf	btemp+1,w
  2355  0F28  1683               	bsf	3,5	;RP0=1, select bank1
  2356  0F29  1303               	bcf	3,6	;RP1=0, select bank1
  2357  0F2A  0591               	andwf	17,f	;volatile
  2358  0F2B                     l2215:
  2359                           
  2360                           ;I2C_Prog.c: 97:     ((*((volatile u8*)0x91))) |= (1 << (4)) ;
  2361  0F2B  1611               	bsf	17,4	;volatile
  2362  0F2C                     l2217:
  2363                           
  2364                           ;I2C_Prog.c: 99:     return u8_DataRead ;
  2365  0F2C  1283               	bcf	3,5	;RP0=0, select bank0
  2366  0F2D  1303               	bcf	3,6	;RP1=0, select bank0
  2367  0F2E  085A               	movf	I2C_Read@u8_DataRead,w
  2368  0F2F                     l319:
  2369  0F2F  0008               	return
  2370  0F30                     __end_of_I2C_Read:
  2371                           
  2372                           	psect	text13
  2373  0C09                     __ptext13:	
  2374 ;; *************** function _I2C_End *****************
  2375 ;; Defined at:
  2376 ;;		line 57 in file "I2C_Prog.c"
  2377 ;; Parameters:    Size  Location     Type
  2378 ;;		None
  2379 ;; Auto vars:     Size  Location     Type
  2380 ;;		None
  2381 ;; Return value:  Size  Location     Type
  2382 ;;                  1    wreg      void 
  2383 ;; Registers used:
  2384 ;;		wreg, status,2, status,0, pclath, cstack
  2385 ;; Tracked objects:
  2386 ;;		On entry : 0/0
  2387 ;;		On exit  : 0/0
  2388 ;;		Unchanged: 0/0
  2389 ;; Data sizes:     COMMON   BANK0   BANK1   BANK3   BANK2
  2390 ;;      Params:         0       0       0       0       0
  2391 ;;      Locals:         0       0       0       0       0
  2392 ;;      Temps:          0       0       0       0       0
  2393 ;;      Totals:         0       0       0       0       0
  2394 ;;Total ram usage:        0 bytes
  2395 ;; Hardware stack levels used:    1
  2396 ;; Hardware stack levels required when called:    8
  2397 ;; This function calls:
  2398 ;;		_I2C_Hold
  2399 ;; This function is called by:
  2400 ;;		_EEPROM_WriteToEEPROM
  2401 ;;		_EEPROM_ReadFromEEPROM
  2402 ;; This function uses a non-reentrant model
  2403 ;;
  2404                           
  2405                           
  2406                           ;psect for function _I2C_End
  2407  0C09                     _I2C_End:
  2408  0C09                     l2193:	
  2409                           ;incstack = 0
  2410 ;; hardware stack exceeded
  2411                           ; Regs used in _I2C_End: [wreg+status,2+status,0+pclath+cstack]
  2412                           
  2413                           
  2414                           ;I2C_Prog.c: 59:    I2C_Hold() ;
  2415  0C09  120A  158A  2472  120A  158A  	fcall	_I2C_Hold
  2416  0C0E                     l2195:
  2417                           
  2418                           ;I2C_Prog.c: 60:    ((*((volatile u8*)0x91))) |= (1 << (2)) ;
  2419  0C0E  1683               	bsf	3,5	;RP0=1, select bank1
  2420  0C0F  1303               	bcf	3,6	;RP1=0, select bank1
  2421  0C10  1511               	bsf	17,2	;volatile
  2422  0C11                     l311:
  2423  0C11  0008               	return
  2424  0C12                     __end_of_I2C_End:
  2425                           
  2426                           	psect	text14
  2427  0C00                     __ptext14:	
  2428 ;; *************** function _I2CBegin *****************
  2429 ;; Defined at:
  2430 ;;		line 42 in file "I2C_Prog.c"
  2431 ;; Parameters:    Size  Location     Type
  2432 ;;		None
  2433 ;; Auto vars:     Size  Location     Type
  2434 ;;		None
  2435 ;; Return value:  Size  Location     Type
  2436 ;;                  1    wreg      void 
  2437 ;; Registers used:
  2438 ;;		wreg, status,2, status,0, pclath, cstack
  2439 ;; Tracked objects:
  2440 ;;		On entry : 0/0
  2441 ;;		On exit  : 0/0
  2442 ;;		Unchanged: 0/0
  2443 ;; Data sizes:     COMMON   BANK0   BANK1   BANK3   BANK2
  2444 ;;      Params:         0       0       0       0       0
  2445 ;;      Locals:         0       0       0       0       0
  2446 ;;      Temps:          0       0       0       0       0
  2447 ;;      Totals:         0       0       0       0       0
  2448 ;;Total ram usage:        0 bytes
  2449 ;; Hardware stack levels used:    1
  2450 ;; Hardware stack levels required when called:    8
  2451 ;; This function calls:
  2452 ;;		_I2C_Hold
  2453 ;; This function is called by:
  2454 ;;		_EEPROM_WriteToEEPROM
  2455 ;;		_EEPROM_ReadFromEEPROM
  2456 ;; This function uses a non-reentrant model
  2457 ;;
  2458                           
  2459                           
  2460                           ;psect for function _I2CBegin
  2461  0C00                     _I2CBegin:
  2462  0C00                     l2185:	
  2463                           ;incstack = 0
  2464 ;; hardware stack exceeded
  2465                           ; Regs used in _I2CBegin: [wreg+status,2+status,0+pclath+cstack]
  2466                           
  2467                           
  2468                           ;I2C_Prog.c: 44:      I2C_Hold() ;
  2469  0C00  120A  158A  2472  120A  158A  	fcall	_I2C_Hold
  2470  0C05                     l2187:
  2471                           
  2472                           ;I2C_Prog.c: 45:     ((*((volatile u8*)0x91))) |= (1 << (0)) ;
  2473  0C05  1683               	bsf	3,5	;RP0=1, select bank1
  2474  0C06  1303               	bcf	3,6	;RP1=0, select bank1
  2475  0C07  1411               	bsf	17,0	;volatile
  2476  0C08                     l305:
  2477  0C08  0008               	return
  2478  0C09                     __end_of_I2CBegin:
  2479                           
  2480                           	psect	text15
  2481  0C72                     __ptext15:	
  2482 ;; *************** function _I2C_Hold *****************
  2483 ;; Defined at:
  2484 ;;		line 34 in file "I2C_Prog.c"
  2485 ;; Parameters:    Size  Location     Type
  2486 ;;		None
  2487 ;; Auto vars:     Size  Location     Type
  2488 ;;		None
  2489 ;; Return value:  Size  Location     Type
  2490 ;;                  1    wreg      void 
  2491 ;; Registers used:
  2492 ;;		wreg, status,2
  2493 ;; Tracked objects:
  2494 ;;		On entry : 0/0
  2495 ;;		On exit  : 0/0
  2496 ;;		Unchanged: 0/0
  2497 ;; Data sizes:     COMMON   BANK0   BANK1   BANK3   BANK2
  2498 ;;      Params:         0       0       0       0       0
  2499 ;;      Locals:         0       0       0       0       0
  2500 ;;      Temps:          0       0       0       0       0
  2501 ;;      Totals:         0       0       0       0       0
  2502 ;;Total ram usage:        0 bytes
  2503 ;; Hardware stack levels used:    1
  2504 ;; Hardware stack levels required when called:    7
  2505 ;; This function calls:
  2506 ;;		Nothing
  2507 ;; This function is called by:
  2508 ;;		_I2CBegin
  2509 ;;		_I2C_RepeatedStart
  2510 ;;		_I2C_End
  2511 ;;		_I2C_Write
  2512 ;;		_I2C_Read
  2513 ;; This function uses a non-reentrant model
  2514 ;;
  2515                           
  2516                           
  2517                           ;psect for function _I2C_Hold
  2518  0C72                     _I2C_Hold:
  2519  0C72                     l2093:	
  2520                           ;incstack = 0
  2521 ;; hardware stack exceeded
  2522                           ; Regs used in _I2C_Hold: [wreg+status,2]
  2523                           
  2524  0C72                     l299:	
  2525                           ;I2C_Prog.c: 37:     while ( ((*((volatile u8*)0x94)) & 0x04) || ((*((volatile u8*)0x91)
      +                          ) & 0x1F)) ;
  2526                           
  2527  0C72  1683               	bsf	3,5	;RP0=1, select bank1
  2528  0C73  1303               	bcf	3,6	;RP1=0, select bank1
  2529  0C74  1914               	btfsc	20,2	;volatile
  2530  0C75  2C77               	goto	u1231
  2531  0C76  2C78               	goto	u1230
  2532  0C77                     u1231:
  2533  0C77  2C72               	goto	l299
  2534  0C78                     u1230:
  2535  0C78                     l2095:
  2536  0C78  0811               	movf	17,w	;volatile
  2537  0C79  391F               	andlw	31
  2538  0C7A  1D03               	btfss	3,2
  2539  0C7B  2C7D               	goto	u1241
  2540  0C7C  2C7E               	goto	u1240
  2541  0C7D                     u1241:
  2542  0C7D  2C72               	goto	l299
  2543  0C7E                     u1240:
  2544  0C7E                     l302:
  2545  0C7E  0008               	return
  2546  0C7F                     __end_of_I2C_Hold:
  2547                           
  2548                           	psect	text16
  2549  0CAE                     __ptext16:	
  2550 ;; *************** function _SetCallBacks *****************
  2551 ;; Defined at:
  2552 ;;		line 46 in file "APP_Program.c"
  2553 ;; Parameters:    Size  Location     Type
  2554 ;;		None
  2555 ;; Auto vars:     Size  Location     Type
  2556 ;;		None
  2557 ;; Return value:  Size  Location     Type
  2558 ;;                  1    wreg      void 
  2559 ;; Registers used:
  2560 ;;		wreg, status,2, status,0, btemp+1, pclath, cstack
  2561 ;; Tracked objects:
  2562 ;;		On entry : 0/0
  2563 ;;		On exit  : 0/0
  2564 ;;		Unchanged: 0/0
  2565 ;; Data sizes:     COMMON   BANK0   BANK1   BANK3   BANK2
  2566 ;;      Params:         0       0       0       0       0
  2567 ;;      Locals:         0       0       0       0       0
  2568 ;;      Temps:          0       0       0       0       0
  2569 ;;      Totals:         0       0       0       0       0
  2570 ;;Total ram usage:        0 bytes
  2571 ;; Hardware stack levels used:    1
  2572 ;; Hardware stack levels required when called:    8
  2573 ;; This function calls:
  2574 ;;		_RB0_SetCallBack
  2575 ;;		_RB4_SetCallBack
  2576 ;;		_RB5_SetCallBack
  2577 ;; This function is called by:
  2578 ;;		_main
  2579 ;; This function uses a non-reentrant model
  2580 ;;
  2581                           
  2582                           
  2583                           ;psect for function _SetCallBacks
  2584  0CAE                     _SetCallBacks:
  2585  0CAE                     l2919:	
  2586                           ;incstack = 0
  2587 ;; hardware stack exceeded
  2588                           ; Regs used in _SetCallBacks: [wreg+status,2+status,0+btemp+1+pclath+cstack]
  2589                           
  2590                           
  2591                           ;APP_Program.c: 49:     RB0_SetCallBack (&RB0_Handler) ;
  2592  0CAE  3001               	movlw	(low (fp__RB0_Handler-i1fpbase))& (0+255)
  2593  0CAF  120A  158A  23BC  120A  158A  	fcall	_RB0_SetCallBack
  2594                           
  2595                           ;APP_Program.c: 50:     RB4_SetCallBack (&RB4_Handler) ;
  2596  0CB4  3004               	movlw	(low (fp__RB4_Handler-i1fpbase))& (0+255)
  2597  0CB5  120A  158A  23C4  120A  158A  	fcall	_RB4_SetCallBack
  2598                           
  2599                           ;APP_Program.c: 51:     RB5_SetCallBack (&RB5_Handler) ;
  2600  0CBA  3007               	movlw	(low (fp__RB5_Handler-i1fpbase))& (0+255)
  2601  0CBB  120A  158A  23CC  120A  158A  	fcall	_RB5_SetCallBack
  2602  0CC0                     l59:
  2603  0CC0  0008               	return
  2604  0CC1                     __end_of_SetCallBacks:
  2605                           
  2606                           	psect	text17
  2607  0BCC                     __ptext17:	
  2608 ;; *************** function _RB5_SetCallBack *****************
  2609 ;; Defined at:
  2610 ;;		line 56 in file "EXT_INT_Prog.c"
  2611 ;; Parameters:    Size  Location     Type
  2612 ;;  pFun            1    wreg     PTR FTN()void 
  2613 ;;		 -> RB5_Handler(1), 
  2614 ;; Auto vars:     Size  Location     Type
  2615 ;;  pFun            1   16[BANK0 ] PTR FTN()void 
  2616 ;;		 -> RB5_Handler(1), 
  2617 ;; Return value:  Size  Location     Type
  2618 ;;                  1    wreg      void 
  2619 ;; Registers used:
  2620 ;;		wreg, btemp+1
  2621 ;; Tracked objects:
  2622 ;;		On entry : 0/0
  2623 ;;		On exit  : 0/0
  2624 ;;		Unchanged: 0/0
  2625 ;; Data sizes:     COMMON   BANK0   BANK1   BANK3   BANK2
  2626 ;;      Params:         0       0       0       0       0
  2627 ;;      Locals:         0       1       0       0       0
  2628 ;;      Temps:          0       0       0       0       0
  2629 ;;      Totals:         0       1       0       0       0
  2630 ;;Total ram usage:        1 bytes
  2631 ;; Hardware stack levels used:    1
  2632 ;; Hardware stack levels required when called:    7
  2633 ;; This function calls:
  2634 ;;		Nothing
  2635 ;; This function is called by:
  2636 ;;		_SetCallBacks
  2637 ;; This function uses a non-reentrant model
  2638 ;;
  2639                           
  2640                           
  2641                           ;psect for function _RB5_SetCallBack
  2642  0BCC                     _RB5_SetCallBack:
  2643                           
  2644                           ;incstack = 0
  2645 ;; hardware stack exceeded
  2646                           ; Regs used in _RB5_SetCallBack: [wreg+btemp+1]
  2647                           ;RB5_SetCallBack@pFun stored from wreg
  2648  0BCC  1283               	bcf	3,5	;RP0=0, select bank0
  2649  0BCD  1303               	bcf	3,6	;RP1=0, select bank0
  2650  0BCE  00D9               	movwf	RB5_SetCallBack@pFun
  2651  0BCF                     l2239:
  2652                           
  2653                           ;EXT_INT_Prog.c: 56: void RB5_SetCallBack (void (*pFun) (void));EXT_INT_Prog.c: 57: {;EX
      +                          T_INT_Prog.c: 58:     GptrToFun_RB5 = pFun ;
  2654  0BCF  0859               	movf	RB5_SetCallBack@pFun,w
  2655  0BD0  00FF               	movwf	btemp+1
  2656  0BD1  087F               	movf	btemp+1,w
  2657  0BD2  00BE               	movwf	_GptrToFun_RB5
  2658  0BD3                     l257:
  2659  0BD3  0008               	return
  2660  0BD4                     __end_of_RB5_SetCallBack:
  2661                           
  2662                           	psect	text18
  2663  0BC4                     __ptext18:	
  2664 ;; *************** function _RB4_SetCallBack *****************
  2665 ;; Defined at:
  2666 ;;		line 50 in file "EXT_INT_Prog.c"
  2667 ;; Parameters:    Size  Location     Type
  2668 ;;  pFun            1    wreg     PTR FTN()void 
  2669 ;;		 -> RB4_Handler(1), 
  2670 ;; Auto vars:     Size  Location     Type
  2671 ;;  pFun            1   16[BANK0 ] PTR FTN()void 
  2672 ;;		 -> RB4_Handler(1), 
  2673 ;; Return value:  Size  Location     Type
  2674 ;;                  1    wreg      void 
  2675 ;; Registers used:
  2676 ;;		wreg, btemp+1
  2677 ;; Tracked objects:
  2678 ;;		On entry : 0/0
  2679 ;;		On exit  : 0/0
  2680 ;;		Unchanged: 0/0
  2681 ;; Data sizes:     COMMON   BANK0   BANK1   BANK3   BANK2
  2682 ;;      Params:         0       0       0       0       0
  2683 ;;      Locals:         0       1       0       0       0
  2684 ;;      Temps:          0       0       0       0       0
  2685 ;;      Totals:         0       1       0       0       0
  2686 ;;Total ram usage:        1 bytes
  2687 ;; Hardware stack levels used:    1
  2688 ;; Hardware stack levels required when called:    7
  2689 ;; This function calls:
  2690 ;;		Nothing
  2691 ;; This function is called by:
  2692 ;;		_SetCallBacks
  2693 ;; This function uses a non-reentrant model
  2694 ;;
  2695                           
  2696                           
  2697                           ;psect for function _RB4_SetCallBack
  2698  0BC4                     _RB4_SetCallBack:
  2699                           
  2700                           ;incstack = 0
  2701 ;; hardware stack exceeded
  2702                           ; Regs used in _RB4_SetCallBack: [wreg+btemp+1]
  2703                           ;RB4_SetCallBack@pFun stored from wreg
  2704  0BC4  1283               	bcf	3,5	;RP0=0, select bank0
  2705  0BC5  1303               	bcf	3,6	;RP1=0, select bank0
  2706  0BC6  00D9               	movwf	RB4_SetCallBack@pFun
  2707  0BC7                     l2237:
  2708                           
  2709                           ;EXT_INT_Prog.c: 50: void RB4_SetCallBack (void (*pFun) (void));EXT_INT_Prog.c: 51: {;EX
      +                          T_INT_Prog.c: 52:     GptrToFun_RB4 = pFun ;
  2710  0BC7  0859               	movf	RB4_SetCallBack@pFun,w
  2711  0BC8  00FF               	movwf	btemp+1
  2712  0BC9  087F               	movf	btemp+1,w
  2713  0BCA  00BF               	movwf	_GptrToFun_RB4
  2714  0BCB                     l254:
  2715  0BCB  0008               	return
  2716  0BCC                     __end_of_RB4_SetCallBack:
  2717                           
  2718                           	psect	text19
  2719  0BBC                     __ptext19:	
  2720 ;; *************** function _RB0_SetCallBack *****************
  2721 ;; Defined at:
  2722 ;;		line 44 in file "EXT_INT_Prog.c"
  2723 ;; Parameters:    Size  Location     Type
  2724 ;;  pFun            1    wreg     PTR FTN()void 
  2725 ;;		 -> RB0_Handler(1), 
  2726 ;; Auto vars:     Size  Location     Type
  2727 ;;  pFun            1   16[BANK0 ] PTR FTN()void 
  2728 ;;		 -> RB0_Handler(1), 
  2729 ;; Return value:  Size  Location     Type
  2730 ;;                  1    wreg      void 
  2731 ;; Registers used:
  2732 ;;		wreg, btemp+1
  2733 ;; Tracked objects:
  2734 ;;		On entry : 0/0
  2735 ;;		On exit  : 0/0
  2736 ;;		Unchanged: 0/0
  2737 ;; Data sizes:     COMMON   BANK0   BANK1   BANK3   BANK2
  2738 ;;      Params:         0       0       0       0       0
  2739 ;;      Locals:         0       1       0       0       0
  2740 ;;      Temps:          0       0       0       0       0
  2741 ;;      Totals:         0       1       0       0       0
  2742 ;;Total ram usage:        1 bytes
  2743 ;; Hardware stack levels used:    1
  2744 ;; Hardware stack levels required when called:    7
  2745 ;; This function calls:
  2746 ;;		Nothing
  2747 ;; This function is called by:
  2748 ;;		_SetCallBacks
  2749 ;; This function uses a non-reentrant model
  2750 ;;
  2751                           
  2752                           
  2753                           ;psect for function _RB0_SetCallBack
  2754  0BBC                     _RB0_SetCallBack:
  2755                           
  2756                           ;incstack = 0
  2757 ;; hardware stack exceeded
  2758                           ; Regs used in _RB0_SetCallBack: [wreg+btemp+1]
  2759                           ;RB0_SetCallBack@pFun stored from wreg
  2760  0BBC  1283               	bcf	3,5	;RP0=0, select bank0
  2761  0BBD  1303               	bcf	3,6	;RP1=0, select bank0
  2762  0BBE  00D9               	movwf	RB0_SetCallBack@pFun
  2763  0BBF                     l2235:
  2764                           
  2765                           ;EXT_INT_Prog.c: 44: void RB0_SetCallBack (void (*pFun) (void));EXT_INT_Prog.c: 45: {;EX
      +                          T_INT_Prog.c: 46:     GptrToFun_RB0 = pFun ;
  2766  0BBF  0859               	movf	RB0_SetCallBack@pFun,w
  2767  0BC0  00FF               	movwf	btemp+1
  2768  0BC1  087F               	movf	btemp+1,w
  2769  0BC2  00C0               	movwf	_GptrToFun_RB0
  2770  0BC3                     l251:
  2771  0BC3  0008               	return
  2772  0BC4                     __end_of_RB0_SetCallBack:
  2773                           
  2774                           	psect	text20
  2775  0756                     __ptext20:	
  2776 ;; *************** function _RTO_vid_CreateTask *****************
  2777 ;; Defined at:
  2778 ;;		line 37 in file "RTO_Prog.c"
  2779 ;; Parameters:    Size  Location     Type
  2780 ;;  copy_u8Prior    1    wreg     unsigned char 
  2781 ;;  copy_u16Prio    2    0[BANK1 ] unsigned short 
  2782 ;;  copy_u16Firs    2    2[BANK1 ] unsigned short 
  2783 ;;  copy_pFn        1    4[BANK1 ] PTR FTN()void 
  2784 ;;		 -> Temp_ControlWaterTemp(1), RedLed_TOG(1), System_Power(1), 
  2785 ;; Auto vars:     Size  Location     Type
  2786 ;;  copy_u8Prior    1   19[BANK0 ] unsigned char 
  2787 ;; Return value:  Size  Location     Type
  2788 ;;                  1    wreg      void 
  2789 ;; Registers used:
  2790 ;;		wreg, fsr0l, fsr0h, status,2, status,0, btemp+1, pclath, cstack
  2791 ;; Tracked objects:
  2792 ;;		On entry : 0/0
  2793 ;;		On exit  : 0/0
  2794 ;;		Unchanged: 0/0
  2795 ;; Data sizes:     COMMON   BANK0   BANK1   BANK3   BANK2
  2796 ;;      Params:         0       0       5       0       0
  2797 ;;      Locals:         0       1       0       0       0
  2798 ;;      Temps:          0       0       0       0       0
  2799 ;;      Totals:         0       1       5       0       0
  2800 ;;Total ram usage:        6 bytes
  2801 ;; Hardware stack levels used:    1
  2802 ;; Hardware stack levels required when called:    8
  2803 ;; This function calls:
  2804 ;;		___bmul
  2805 ;; This function is called by:
  2806 ;;		_main
  2807 ;; This function uses a non-reentrant model
  2808 ;;
  2809                           
  2810                           
  2811                           ;psect for function _RTO_vid_CreateTask
  2812  0756                     _RTO_vid_CreateTask:
  2813                           
  2814                           ;incstack = 0
  2815 ;; hardware stack exceeded
  2816                           ; Regs used in _RTO_vid_CreateTask: [wreg-fsr0h+status,2+status,0+btemp+1+pclath+cstack]
  2817                           ;RTO_vid_CreateTask@copy_u8Priority stored from wreg
  2818  0756  1283               	bcf	3,5	;RP0=0, select bank0
  2819  0757  1303               	bcf	3,6	;RP1=0, select bank0
  2820  0758  00DC               	movwf	RTO_vid_CreateTask@copy_u8Priority
  2821  0759                     l2957:
  2822                           
  2823                           ;RTO_Prog.c: 37: void RTO_vid_CreateTask(u8 copy_u8Priority ,u16 copy_u16Priodicity ,u16
      +                           copy_u16FirstDelay ,void (*copy_pFn)(void) );RTO_Prog.c: 38: {;RTO_Prog.c: 40:  Tasks[c
      +                          opy_u8Priority].u16_Periocicity = copy_u16Priodicity ;
  2824  0759  3005               	movlw	5
  2825  075A  00FF               	movwf	btemp+1
  2826  075B  087F               	movf	btemp+1,w
  2827  075C  00D9               	movwf	___bmul@multiplicand
  2828  075D  085C               	movf	RTO_vid_CreateTask@copy_u8Priority,w
  2829  075E  120A  158A  2516  120A  118A  	fcall	___bmul
  2830  0763  3E20               	addlw	(low (_Tasks| 0))& (0+255)
  2831  0764  0084               	movwf	4
  2832  0765  1683               	bsf	3,5	;RP0=1, select bank1
  2833  0766  1303               	bcf	3,6	;RP1=0, select bank1
  2834  0767  0820               	movf	RTO_vid_CreateTask@copy_u16Priodicity^(0+128),w
  2835  0768  1383               	bcf	3,7	;select IRP bank0
  2836  0769  0080               	movwf	0
  2837  076A  0A84               	incf	4,f
  2838  076B  0821               	movf	(RTO_vid_CreateTask@copy_u16Priodicity+1)^(0+128),w
  2839  076C  0080               	movwf	0
  2840                           
  2841                           ;RTO_Prog.c: 41:  Tasks[copy_u8Priority].u16_FirstDelay = copy_u16FirstDelay ;
  2842  076D  3005               	movlw	5
  2843  076E  00FF               	movwf	btemp+1
  2844  076F  087F               	movf	btemp+1,w
  2845  0770  1283               	bcf	3,5	;RP0=0, select bank0
  2846  0771  1303               	bcf	3,6	;RP1=0, select bank0
  2847  0772  00D9               	movwf	___bmul@multiplicand
  2848  0773  085C               	movf	RTO_vid_CreateTask@copy_u8Priority,w
  2849  0774  120A  158A  2516  120A  118A  	fcall	___bmul
  2850  0779  3E22               	addlw	(low ((_Tasks| 0+2)))& (0+255)
  2851  077A  0084               	movwf	4
  2852  077B  1683               	bsf	3,5	;RP0=1, select bank1
  2853  077C  1303               	bcf	3,6	;RP1=0, select bank1
  2854  077D  0822               	movf	RTO_vid_CreateTask@copy_u16FirstDelay^(0+128),w
  2855  077E  1383               	bcf	3,7	;select IRP bank0
  2856  077F  0080               	movwf	0
  2857  0780  0A84               	incf	4,f
  2858  0781  0823               	movf	(RTO_vid_CreateTask@copy_u16FirstDelay+1)^(0+128),w
  2859  0782  0080               	movwf	0
  2860                           
  2861                           ;RTO_Prog.c: 42:  Tasks[copy_u8Priority].pFn = copy_pFn ;
  2862  0783  3005               	movlw	5
  2863  0784  00FF               	movwf	btemp+1
  2864  0785  087F               	movf	btemp+1,w
  2865  0786  1283               	bcf	3,5	;RP0=0, select bank0
  2866  0787  1303               	bcf	3,6	;RP1=0, select bank0
  2867  0788  00D9               	movwf	___bmul@multiplicand
  2868  0789  085C               	movf	RTO_vid_CreateTask@copy_u8Priority,w
  2869  078A  120A  158A  2516  120A  118A  	fcall	___bmul
  2870  078F  3E24               	addlw	(low ((_Tasks| 0+4)))& (0+255)
  2871  0790  0084               	movwf	4
  2872  0791  1683               	bsf	3,5	;RP0=1, select bank1
  2873  0792  1303               	bcf	3,6	;RP1=0, select bank1
  2874  0793  0824               	movf	RTO_vid_CreateTask@copy_pFn^(0+128),w
  2875  0794  00FF               	movwf	btemp+1
  2876  0795  087F               	movf	btemp+1,w
  2877  0796  1383               	bcf	3,7	;select IRP bank0
  2878  0797  0080               	movwf	0
  2879  0798                     l431:
  2880  0798  0008               	return
  2881  0799                     __end_of_RTO_vid_CreateTask:
  2882                           
  2883                           	psect	text21
  2884  0D16                     __ptext21:	
  2885 ;; *************** function ___bmul *****************
  2886 ;; Defined at:
  2887 ;;		line 4 in file "C:\Program Files\Microchip\xc8\v2.20\pic\sources\c90\common\Umul8.c"
  2888 ;; Parameters:    Size  Location     Type
  2889 ;;  multiplier      1    wreg     unsigned char 
  2890 ;;  multiplicand    1   16[BANK0 ] unsigned char 
  2891 ;; Auto vars:     Size  Location     Type
  2892 ;;  multiplier      1   18[BANK0 ] unsigned char 
  2893 ;;  product         1   17[BANK0 ] unsigned char 
  2894 ;; Return value:  Size  Location     Type
  2895 ;;                  1    wreg      unsigned char 
  2896 ;; Registers used:
  2897 ;;		wreg, status,2, status,0, btemp+1
  2898 ;; Tracked objects:
  2899 ;;		On entry : 0/0
  2900 ;;		On exit  : 0/0
  2901 ;;		Unchanged: 0/0
  2902 ;; Data sizes:     COMMON   BANK0   BANK1   BANK3   BANK2
  2903 ;;      Params:         0       1       0       0       0
  2904 ;;      Locals:         0       2       0       0       0
  2905 ;;      Temps:          0       0       0       0       0
  2906 ;;      Totals:         0       3       0       0       0
  2907 ;;Total ram usage:        3 bytes
  2908 ;; Hardware stack levels used:    1
  2909 ;; Hardware stack levels required when called:    7
  2910 ;; This function calls:
  2911 ;;		Nothing
  2912 ;; This function is called by:
  2913 ;;		_RTO_vid_CreateTask
  2914 ;;		_RTO_vid_StartSchedular
  2915 ;; This function uses a non-reentrant model
  2916 ;;
  2917                           
  2918                           
  2919                           ;psect for function ___bmul
  2920  0D16                     ___bmul:
  2921                           
  2922                           ;incstack = 0
  2923 ;; hardware stack exceeded
  2924                           ; Regs used in ___bmul: [wreg+status,2+status,0+btemp+1]
  2925                           ;___bmul@multiplier stored from wreg
  2926  0D16  1283               	bcf	3,5	;RP0=0, select bank0
  2927  0D17  1303               	bcf	3,6	;RP1=0, select bank0
  2928  0D18  00DB               	movwf	___bmul@multiplier
  2929  0D19                     l2423:
  2930  0D19  01DA               	clrf	___bmul@product
  2931  0D1A                     l2425:
  2932  0D1A  1C5B               	btfss	___bmul@multiplier,0
  2933  0D1B  2D1D               	goto	u1651
  2934  0D1C  2D1E               	goto	u1650
  2935  0D1D                     u1651:
  2936  0D1D  2D22               	goto	l2429
  2937  0D1E                     u1650:
  2938  0D1E                     l2427:
  2939  0D1E  0859               	movf	___bmul@multiplicand,w
  2940  0D1F  00FF               	movwf	btemp+1
  2941  0D20  087F               	movf	btemp+1,w
  2942  0D21  07DA               	addwf	___bmul@product,f
  2943  0D22                     l2429:
  2944  0D22  1003               	clrc
  2945  0D23  0DD9               	rlf	___bmul@multiplicand,f
  2946  0D24                     l2431:
  2947  0D24  1003               	clrc
  2948  0D25  0CDB               	rrf	___bmul@multiplier,f
  2949  0D26                     l2433:
  2950  0D26  085B               	movf	___bmul@multiplier,w
  2951  0D27  1D03               	btfss	3,2
  2952  0D28  2D2A               	goto	u1661
  2953  0D29  2D2B               	goto	u1660
  2954  0D2A                     u1661:
  2955  0D2A  2D1A               	goto	l2425
  2956  0D2B                     u1660:
  2957  0D2B                     l2435:
  2958  0D2B  085A               	movf	___bmul@product,w
  2959  0D2C                     l553:
  2960  0D2C  0008               	return
  2961  0D2D                     __end_of___bmul:
  2962                           
  2963                           	psect	text22
  2964  0BAD                     __ptext22:	
  2965 ;; *************** function _RTO_Init *****************
  2966 ;; Defined at:
  2967 ;;		line 28 in file "RTO_Prog.c"
  2968 ;; Parameters:    Size  Location     Type
  2969 ;;		None
  2970 ;; Auto vars:     Size  Location     Type
  2971 ;;		None
  2972 ;; Return value:  Size  Location     Type
  2973 ;;                  1    wreg      void 
  2974 ;; Registers used:
  2975 ;;		wreg, status,2, status,0, btemp+1, pclath, cstack
  2976 ;; Tracked objects:
  2977 ;;		On entry : 0/0
  2978 ;;		On exit  : 0/0
  2979 ;;		Unchanged: 0/0
  2980 ;; Data sizes:     COMMON   BANK0   BANK1   BANK3   BANK2
  2981 ;;      Params:         0       0       0       0       0
  2982 ;;      Locals:         0       0       0       0       0
  2983 ;;      Temps:          0       0       0       0       0
  2984 ;;      Totals:         0       0       0       0       0
  2985 ;;Total ram usage:        0 bytes
  2986 ;; Hardware stack levels used:    1
  2987 ;; Hardware stack levels required when called:    8
  2988 ;; This function calls:
  2989 ;;		_Timer_SetCallBack
  2990 ;; This function is called by:
  2991 ;;		_main
  2992 ;; This function uses a non-reentrant model
  2993 ;;
  2994                           
  2995                           
  2996                           ;psect for function _RTO_Init
  2997  0BAD                     _RTO_Init:
  2998  0BAD                     l2955:	
  2999                           ;incstack = 0
  3000 ;; hardware stack exceeded
  3001                           ; Regs used in _RTO_Init: [wreg+status,2+status,0+btemp+1+pclath+cstack]
  3002                           
  3003                           
  3004                           ;RTO_Prog.c: 30:  Timer_SetCallBack(&RTO_vid_StartSchedular) ;
  3005  0BAD  3013               	movlw	(low (fp__RTO_vid_StartSchedular-i1fpbase))& (0+255)
  3006  0BAE  120A  158A  23B4  120A  158A  	fcall	_Timer_SetCallBack
  3007  0BB3                     l428:
  3008  0BB3  0008               	return
  3009  0BB4                     __end_of_RTO_Init:
  3010                           
  3011                           	psect	text23
  3012  0BB4                     __ptext23:	
  3013 ;; *************** function _Timer_SetCallBack *****************
  3014 ;; Defined at:
  3015 ;;		line 34 in file "EXT_INT_Prog.c"
  3016 ;; Parameters:    Size  Location     Type
  3017 ;;  local_pFn       1    wreg     PTR FTN()void 
  3018 ;;		 -> RTO_vid_StartSchedular(1), 
  3019 ;; Auto vars:     Size  Location     Type
  3020 ;;  local_pFn       1   16[BANK0 ] PTR FTN()void 
  3021 ;;		 -> RTO_vid_StartSchedular(1), 
  3022 ;; Return value:  Size  Location     Type
  3023 ;;                  1    wreg      void 
  3024 ;; Registers used:
  3025 ;;		wreg, btemp+1
  3026 ;; Tracked objects:
  3027 ;;		On entry : 0/0
  3028 ;;		On exit  : 0/0
  3029 ;;		Unchanged: 0/0
  3030 ;; Data sizes:     COMMON   BANK0   BANK1   BANK3   BANK2
  3031 ;;      Params:         0       0       0       0       0
  3032 ;;      Locals:         0       1       0       0       0
  3033 ;;      Temps:          0       0       0       0       0
  3034 ;;      Totals:         0       1       0       0       0
  3035 ;;Total ram usage:        1 bytes
  3036 ;; Hardware stack levels used:    1
  3037 ;; Hardware stack levels required when called:    7
  3038 ;; This function calls:
  3039 ;;		Nothing
  3040 ;; This function is called by:
  3041 ;;		_RTO_Init
  3042 ;; This function uses a non-reentrant model
  3043 ;;
  3044                           
  3045                           
  3046                           ;psect for function _Timer_SetCallBack
  3047  0BB4                     _Timer_SetCallBack:
  3048                           
  3049                           ;incstack = 0
  3050 ;; hardware stack exceeded
  3051                           ; Regs used in _Timer_SetCallBack: [wreg+btemp+1]
  3052                           ;Timer_SetCallBack@local_pFn stored from wreg
  3053  0BB4  1283               	bcf	3,5	;RP0=0, select bank0
  3054  0BB5  1303               	bcf	3,6	;RP1=0, select bank0
  3055  0BB6  00D9               	movwf	Timer_SetCallBack@local_pFn
  3056  0BB7                     l2421:
  3057                           
  3058                           ;EXT_INT_Prog.c: 34:  void Timer_SetCallBack (void (*local_pFn)(void));EXT_INT_Prog.c: 3
      +                          5: {;EXT_INT_Prog.c: 36:  Global_pFn = local_pFn ;
  3059  0BB7  0859               	movf	Timer_SetCallBack@local_pFn,w
  3060  0BB8  00FF               	movwf	btemp+1
  3061  0BB9  087F               	movf	btemp+1,w
  3062  0BBA  00C1               	movwf	_Global_pFn
  3063  0BBB                     l248:
  3064  0BBB  0008               	return
  3065  0BBC                     __end_of_Timer_SetCallBack:
  3066                           
  3067                           	psect	text24
  3068  0BF7                     __ptext24:	
  3069 ;; *************** function _OFF_Mode *****************
  3070 ;; Defined at:
  3071 ;;		line 107 in file "APP_Program.c"
  3072 ;; Parameters:    Size  Location     Type
  3073 ;;		None
  3074 ;; Auto vars:     Size  Location     Type
  3075 ;;		None
  3076 ;; Return value:  Size  Location     Type
  3077 ;;                  1    wreg      void 
  3078 ;; Registers used:
  3079 ;;		wreg, fsr0l, fsr0h, status,2, status,0, btemp+1, pclath, cstack
  3080 ;; Tracked objects:
  3081 ;;		On entry : 0/0
  3082 ;;		On exit  : 0/0
  3083 ;;		Unchanged: 0/0
  3084 ;; Data sizes:     COMMON   BANK0   BANK1   BANK3   BANK2
  3085 ;;      Params:         0       0       0       0       0
  3086 ;;      Locals:         0       0       0       0       0
  3087 ;;      Temps:          0       0       0       0       0
  3088 ;;      Totals:         0       0       0       0       0
  3089 ;;Total ram usage:        0 bytes
  3090 ;; Hardware stack levels used:    1
  3091 ;; Hardware stack levels required when called:    9
  3092 ;; This function calls:
  3093 ;;		_vid_7_Segment_DeInit
  3094 ;; This function is called by:
  3095 ;;		_main
  3096 ;; This function uses a non-reentrant model
  3097 ;;
  3098                           
  3099                           
  3100                           ;psect for function _OFF_Mode
  3101  0BF7                     _OFF_Mode:
  3102  0BF7                     l2473:	
  3103                           ;incstack = 0
  3104 ;; hardware stack exceeded
  3105                           ; Regs used in _OFF_Mode: [wreg-fsr0h+status,2+status,0+btemp+1+pclath+cstack]
  3106                           
  3107                           
  3108                           ;APP_Program.c: 109:     ON_OFF_Status = 0 ;
  3109  0BF7  1283               	bcf	3,5	;RP0=0, select bank0
  3110  0BF8  1303               	bcf	3,6	;RP1=0, select bank0
  3111  0BF9  01C7               	clrf	_ON_OFF_Status
  3112  0BFA                     l2475:
  3113                           
  3114                           ;APP_Program.c: 110:     vid_7_Segment_DeInit () ;
  3115  0BFA  120A  158A  252D  120A  158A  	fcall	_vid_7_Segment_DeInit
  3116  0BFF                     l77:
  3117  0BFF  0008               	return
  3118  0C00                     __end_of_OFF_Mode:
  3119                           
  3120                           	psect	text25
  3121  0D2D                     __ptext25:	
  3122 ;; *************** function _vid_7_Segment_DeInit *****************
  3123 ;; Defined at:
  3124 ;;		line 45 in file "7_Segment_prog.c"
  3125 ;; Parameters:    Size  Location     Type
  3126 ;;		None
  3127 ;; Auto vars:     Size  Location     Type
  3128 ;;		None
  3129 ;; Return value:  Size  Location     Type
  3130 ;;                  1    wreg      void 
  3131 ;; Registers used:
  3132 ;;		wreg, fsr0l, fsr0h, status,2, status,0, btemp+1, pclath, cstack
  3133 ;; Tracked objects:
  3134 ;;		On entry : 0/0
  3135 ;;		On exit  : 0/0
  3136 ;;		Unchanged: 0/0
  3137 ;; Data sizes:     COMMON   BANK0   BANK1   BANK3   BANK2
  3138 ;;      Params:         0       0       0       0       0
  3139 ;;      Locals:         0       0       0       0       0
  3140 ;;      Temps:          0       0       0       0       0
  3141 ;;      Totals:         0       0       0       0       0
  3142 ;;Total ram usage:        0 bytes
  3143 ;; Hardware stack levels used:    1
  3144 ;; Hardware stack levels required when called:    8
  3145 ;; This function calls:
  3146 ;;		_DIO_SetPinValue
  3147 ;; This function is called by:
  3148 ;;		_OFF_Mode
  3149 ;; This function uses a non-reentrant model
  3150 ;;
  3151                           
  3152                           
  3153                           ;psect for function _vid_7_Segment_DeInit
  3154  0D2D                     _vid_7_Segment_DeInit:
  3155  0D2D                     l2275:	
  3156                           ;incstack = 0
  3157 ;; hardware stack exceeded
  3158                           ; Regs used in _vid_7_Segment_DeInit: [wreg-fsr0h+status,2+status,0+btemp+1+pclath+cstac
      +                          k]
  3159                           
  3160  0D2D  3004               	movlw	4
  3161  0D2E  00FF               	movwf	btemp+1
  3162  0D2F  087F               	movf	btemp+1,w
  3163  0D30  1283               	bcf	3,5	;RP0=0, select bank0
  3164  0D31  1303               	bcf	3,6	;RP1=0, select bank0
  3165  0D32  00D9               	movwf	DIO_SetPinValue@u8PinIdCopy
  3166  0D33  01DA               	clrf	DIO_SetPinValue@u8PinValCopy
  3167  0D34  3000               	movlw	0
  3168  0D35  120A  118A  22BF  120A  158A  	fcall	_DIO_SetPinValue
  3169  0D3A  3005               	movlw	5
  3170  0D3B  00FF               	movwf	btemp+1
  3171  0D3C  087F               	movf	btemp+1,w
  3172  0D3D  1283               	bcf	3,5	;RP0=0, select bank0
  3173  0D3E  1303               	bcf	3,6	;RP1=0, select bank0
  3174  0D3F  00D9               	movwf	DIO_SetPinValue@u8PinIdCopy
  3175  0D40  01DA               	clrf	DIO_SetPinValue@u8PinValCopy
  3176  0D41  3000               	movlw	0
  3177  0D42  120A  118A  22BF  120A  158A  	fcall	_DIO_SetPinValue
  3178  0D47                     l408:
  3179  0D47  0008               	return
  3180  0D48                     __end_of_vid_7_Segment_DeInit:
  3181                           
  3182                           	psect	text26
  3183  0E7A                     __ptext26:	
  3184 ;; *************** function _I2C_Init *****************
  3185 ;; Defined at:
  3186 ;;		line 16 in file "I2C_Prog.c"
  3187 ;; Parameters:    Size  Location     Type
  3188 ;;		None
  3189 ;; Auto vars:     Size  Location     Type
  3190 ;;		None
  3191 ;; Return value:  Size  Location     Type
  3192 ;;                  1    wreg      void 
  3193 ;; Registers used:
  3194 ;;		wreg, fsr0l, fsr0h, status,2, status,0, btemp+1, pclath, cstack
  3195 ;; Tracked objects:
  3196 ;;		On entry : 0/0
  3197 ;;		On exit  : 0/0
  3198 ;;		Unchanged: 0/0
  3199 ;; Data sizes:     COMMON   BANK0   BANK1   BANK3   BANK2
  3200 ;;      Params:         0       0       0       0       0
  3201 ;;      Locals:         0       0       0       0       0
  3202 ;;      Temps:          0       0       0       0       0
  3203 ;;      Totals:         0       0       0       0       0
  3204 ;;Total ram usage:        0 bytes
  3205 ;; Hardware stack levels used:    1
  3206 ;; Hardware stack levels required when called:    8
  3207 ;; This function calls:
  3208 ;;		_DIO_SetPinDirection
  3209 ;; This function is called by:
  3210 ;;		_main
  3211 ;; This function uses a non-reentrant model
  3212 ;;
  3213                           
  3214                           
  3215                           ;psect for function _I2C_Init
  3216  0E7A                     _I2C_Init:
  3217  0E7A                     l2561:	
  3218                           ;incstack = 0
  3219 ;; hardware stack exceeded
  3220                           ; Regs used in _I2C_Init: [wreg-fsr0h+status,2+status,0+btemp+1+pclath+cstack]
  3221                           
  3222                           
  3223                           ;I2C_Prog.c: 19:     (*((volatile u8*)0x93)) = (20000000/(4*1000000)) - 1;
  3224  0E7A  3004               	movlw	4
  3225  0E7B  00FF               	movwf	btemp+1
  3226  0E7C  087F               	movf	btemp+1,w
  3227  0E7D  1683               	bsf	3,5	;RP0=1, select bank1
  3228  0E7E  1303               	bcf	3,6	;RP1=0, select bank1
  3229  0E7F  0093               	movwf	19	;volatile
  3230                           
  3231                           ;I2C_Prog.c: 21:     (*((volatile u8*)0x14)) = 0b00101000 ;
  3232  0E80  3028               	movlw	40
  3233  0E81  00FF               	movwf	btemp+1
  3234  0E82  087F               	movf	btemp+1,w
  3235  0E83  1283               	bcf	3,5	;RP0=0, select bank0
  3236  0E84  1303               	bcf	3,6	;RP1=0, select bank0
  3237  0E85  0094               	movwf	20	;volatile
  3238  0E86                     l2563:
  3239                           
  3240                           ;I2C_Prog.c: 25:     (*((volatile u8*)0x94)) = 0x00 ;
  3241  0E86  1683               	bsf	3,5	;RP0=1, select bank1
  3242  0E87  1303               	bcf	3,6	;RP1=0, select bank1
  3243  0E88  0194               	clrf	20	;volatile
  3244  0E89                     l2565:
  3245                           
  3246                           ;I2C_Prog.c: 27:     DIO_SetPinDirection(2 , 3 , 0) ;
  3247  0E89  3003               	movlw	3
  3248  0E8A  00FF               	movwf	btemp+1
  3249  0E8B  087F               	movf	btemp+1,w
  3250  0E8C  1283               	bcf	3,5	;RP0=0, select bank0
  3251  0E8D  1303               	bcf	3,6	;RP1=0, select bank0
  3252  0E8E  00D9               	movwf	DIO_SetPinDirection@u8PinIdCopy
  3253  0E8F  01DA               	clrf	DIO_SetPinDirection@u8PinDirCopy
  3254  0E90  3002               	movlw	2
  3255  0E91  120A  118A  2129  120A  158A  	fcall	_DIO_SetPinDirection
  3256  0E96                     l2567:
  3257                           
  3258                           ;I2C_Prog.c: 28:     DIO_SetPinDirection(2 , 4 , 0) ;
  3259  0E96  3004               	movlw	4
  3260  0E97  00FF               	movwf	btemp+1
  3261  0E98  087F               	movf	btemp+1,w
  3262  0E99  1283               	bcf	3,5	;RP0=0, select bank0
  3263  0E9A  1303               	bcf	3,6	;RP1=0, select bank0
  3264  0E9B  00D9               	movwf	DIO_SetPinDirection@u8PinIdCopy
  3265  0E9C  01DA               	clrf	DIO_SetPinDirection@u8PinDirCopy
  3266  0E9D  3002               	movlw	2
  3267  0E9E  120A  118A  2129  120A  158A  	fcall	_DIO_SetPinDirection
  3268  0EA3                     l296:
  3269  0EA3  0008               	return
  3270  0EA4                     __end_of_I2C_Init:
  3271                           
  3272                           	psect	text27
  3273  0D64                     __ptext27:	
  3274 ;; *************** function _Heater_Init *****************
  3275 ;; Defined at:
  3276 ;;		line 270 in file "APP_Program.c"
  3277 ;; Parameters:    Size  Location     Type
  3278 ;;		None
  3279 ;; Auto vars:     Size  Location     Type
  3280 ;;		None
  3281 ;; Return value:  Size  Location     Type
  3282 ;;                  1    wreg      void 
  3283 ;; Registers used:
  3284 ;;		wreg, fsr0l, fsr0h, status,2, status,0, btemp+1, pclath, cstack
  3285 ;; Tracked objects:
  3286 ;;		On entry : 0/0
  3287 ;;		On exit  : 0/0
  3288 ;;		Unchanged: 0/0
  3289 ;; Data sizes:     COMMON   BANK0   BANK1   BANK3   BANK2
  3290 ;;      Params:         0       0       0       0       0
  3291 ;;      Locals:         0       0       0       0       0
  3292 ;;      Temps:          0       0       0       0       0
  3293 ;;      Totals:         0       0       0       0       0
  3294 ;;Total ram usage:        0 bytes
  3295 ;; Hardware stack levels used:    1
  3296 ;; Hardware stack levels required when called:    8
  3297 ;; This function calls:
  3298 ;;		_DIO_SetPinDirection
  3299 ;;		_DIO_SetPinValue
  3300 ;; This function is called by:
  3301 ;;		_main
  3302 ;; This function uses a non-reentrant model
  3303 ;;
  3304                           
  3305                           
  3306                           ;psect for function _Heater_Init
  3307  0D64                     _Heater_Init:
  3308  0D64                     l2513:	
  3309                           ;incstack = 0
  3310 ;; hardware stack exceeded
  3311                           ; Regs used in _Heater_Init: [wreg-fsr0h+status,2+status,0+btemp+1+pclath+cstack]
  3312                           
  3313                           
  3314                           ;APP_Program.c: 272:     DIO_SetPinDirection ( 2 , 5 , 1 ) ;
  3315  0D64  3005               	movlw	5
  3316  0D65  00FF               	movwf	btemp+1
  3317  0D66  087F               	movf	btemp+1,w
  3318  0D67  1283               	bcf	3,5	;RP0=0, select bank0
  3319  0D68  1303               	bcf	3,6	;RP1=0, select bank0
  3320  0D69  00D9               	movwf	DIO_SetPinDirection@u8PinIdCopy
  3321  0D6A  01DA               	clrf	DIO_SetPinDirection@u8PinDirCopy
  3322  0D6B  0ADA               	incf	DIO_SetPinDirection@u8PinDirCopy,f
  3323  0D6C  3002               	movlw	2
  3324  0D6D  120A  118A  2129  120A  158A  	fcall	_DIO_SetPinDirection
  3325                           
  3326                           ;APP_Program.c: 273:     DIO_SetPinValue ( 2 , 5 , 0 ) ;
  3327  0D72  3005               	movlw	5
  3328  0D73  00FF               	movwf	btemp+1
  3329  0D74  087F               	movf	btemp+1,w
  3330  0D75  1283               	bcf	3,5	;RP0=0, select bank0
  3331  0D76  1303               	bcf	3,6	;RP1=0, select bank0
  3332  0D77  00D9               	movwf	DIO_SetPinValue@u8PinIdCopy
  3333  0D78  01DA               	clrf	DIO_SetPinValue@u8PinValCopy
  3334  0D79  3002               	movlw	2
  3335  0D7A  120A  118A  22BF  120A  158A  	fcall	_DIO_SetPinValue
  3336  0D7F                     l122:
  3337  0D7F  0008               	return
  3338  0D80                     __end_of_Heater_Init:
  3339                           
  3340                           	psect	text28
  3341  0F30                     __ptext28:	
  3342 ;; *************** function _EXT_INT_Init *****************
  3343 ;; Defined at:
  3344 ;;		line 73 in file "EXT_INT_Prog.c"
  3345 ;; Parameters:    Size  Location     Type
  3346 ;;		None
  3347 ;; Auto vars:     Size  Location     Type
  3348 ;;		None
  3349 ;; Return value:  Size  Location     Type
  3350 ;;                  1    wreg      void 
  3351 ;; Registers used:
  3352 ;;		wreg, fsr0l, fsr0h, status,2, status,0, btemp+1, pclath, cstack
  3353 ;; Tracked objects:
  3354 ;;		On entry : 0/0
  3355 ;;		On exit  : 0/0
  3356 ;;		Unchanged: 0/0
  3357 ;; Data sizes:     COMMON   BANK0   BANK1   BANK3   BANK2
  3358 ;;      Params:         0       0       0       0       0
  3359 ;;      Locals:         0       0       0       0       0
  3360 ;;      Temps:          0       0       0       0       0
  3361 ;;      Totals:         0       0       0       0       0
  3362 ;;Total ram usage:        0 bytes
  3363 ;; Hardware stack levels used:    1
  3364 ;; Hardware stack levels required when called:    8
  3365 ;; This function calls:
  3366 ;;		_DIO_SetPinDirection
  3367 ;; This function is called by:
  3368 ;;		_main
  3369 ;; This function uses a non-reentrant model
  3370 ;;
  3371                           
  3372                           
  3373                           ;psect for function _EXT_INT_Init
  3374  0F30                     _EXT_INT_Init:
  3375  0F30                     l2549:	
  3376                           ;incstack = 0
  3377 ;; hardware stack exceeded
  3378                           ; Regs used in _EXT_INT_Init: [wreg-fsr0h+status,2+status,0+btemp+1+pclath+cstack]
  3379                           
  3380                           
  3381                           ;EXT_INT_Prog.c: 75:     DIO_SetPinDirection ( 1 , 0 , 0 ) ;
  3382  0F30  1283               	bcf	3,5	;RP0=0, select bank0
  3383  0F31  1303               	bcf	3,6	;RP1=0, select bank0
  3384  0F32  01D9               	clrf	DIO_SetPinDirection@u8PinIdCopy
  3385  0F33  01DA               	clrf	DIO_SetPinDirection@u8PinDirCopy
  3386  0F34  3001               	movlw	1
  3387  0F35  120A  118A  2129  120A  158A  	fcall	_DIO_SetPinDirection
  3388                           
  3389                           ;EXT_INT_Prog.c: 76:     DIO_SetPinDirection ( 1 , 4 , 0 ) ;
  3390  0F3A  3004               	movlw	4
  3391  0F3B  00FF               	movwf	btemp+1
  3392  0F3C  087F               	movf	btemp+1,w
  3393  0F3D  1283               	bcf	3,5	;RP0=0, select bank0
  3394  0F3E  1303               	bcf	3,6	;RP1=0, select bank0
  3395  0F3F  00D9               	movwf	DIO_SetPinDirection@u8PinIdCopy
  3396  0F40  01DA               	clrf	DIO_SetPinDirection@u8PinDirCopy
  3397  0F41  3001               	movlw	1
  3398  0F42  120A  118A  2129  120A  158A  	fcall	_DIO_SetPinDirection
  3399                           
  3400                           ;EXT_INT_Prog.c: 77:     DIO_SetPinDirection ( 1 , 5 , 0 ) ;
  3401  0F47  3005               	movlw	5
  3402  0F48  00FF               	movwf	btemp+1
  3403  0F49  087F               	movf	btemp+1,w
  3404  0F4A  1283               	bcf	3,5	;RP0=0, select bank0
  3405  0F4B  1303               	bcf	3,6	;RP1=0, select bank0
  3406  0F4C  00D9               	movwf	DIO_SetPinDirection@u8PinIdCopy
  3407  0F4D  01DA               	clrf	DIO_SetPinDirection@u8PinDirCopy
  3408  0F4E  3001               	movlw	1
  3409  0F4F  120A  118A  2129  120A  158A  	fcall	_DIO_SetPinDirection
  3410  0F54                     l2551:
  3411                           
  3412                           ;EXT_INT_Prog.c: 79:     ((*((volatile u8*)0x81))) &= ~(1 << (7)) ;
  3413  0F54  307F               	movlw	127
  3414  0F55  00FF               	movwf	btemp+1
  3415  0F56  087F               	movf	btemp+1,w
  3416  0F57  1683               	bsf	3,5	;RP0=1, select bank1
  3417  0F58  1303               	bcf	3,6	;RP1=0, select bank1
  3418  0F59  0581               	andwf	1,f	;volatile
  3419  0F5A                     l2553:
  3420                           
  3421                           ;EXT_INT_Prog.c: 81:     ((*((volatile u8*)0x81))) &= ~(1 << (6)) ;
  3422  0F5A  30BF               	movlw	191
  3423  0F5B  00FF               	movwf	btemp+1
  3424  0F5C  087F               	movf	btemp+1,w
  3425  0F5D  0581               	andwf	1,f	;volatile
  3426  0F5E                     l2555:
  3427                           
  3428                           ;EXT_INT_Prog.c: 82:     ((*((volatile u8*)0x0B))) |= (1 << (4)) ;
  3429  0F5E  160B               	bsf	11,4	;volatile
  3430  0F5F                     l2557:
  3431                           
  3432                           ;EXT_INT_Prog.c: 83:     ((*((volatile u8*)0x0B))) |= (1 << (3)) ;
  3433  0F5F  158B               	bsf	11,3	;volatile
  3434  0F60                     l2559:
  3435                           
  3436                           ;EXT_INT_Prog.c: 84:     ((*((volatile u8*)0x0B))) |= (1 << (7)) ;
  3437  0F60  178B               	bsf	11,7	;volatile
  3438  0F61                     l260:
  3439  0F61  0008               	return
  3440  0F62                     __end_of_EXT_INT_Init:
  3441                           
  3442                           	psect	text29
  3443  0D48                     __ptext29:	
  3444 ;; *************** function _Cooler_Init *****************
  3445 ;; Defined at:
  3446 ;;		line 244 in file "APP_Program.c"
  3447 ;; Parameters:    Size  Location     Type
  3448 ;;		None
  3449 ;; Auto vars:     Size  Location     Type
  3450 ;;		None
  3451 ;; Return value:  Size  Location     Type
  3452 ;;                  1    wreg      void 
  3453 ;; Registers used:
  3454 ;;		wreg, fsr0l, fsr0h, status,2, status,0, btemp+1, pclath, cstack
  3455 ;; Tracked objects:
  3456 ;;		On entry : 0/0
  3457 ;;		On exit  : 0/0
  3458 ;;		Unchanged: 0/0
  3459 ;; Data sizes:     COMMON   BANK0   BANK1   BANK3   BANK2
  3460 ;;      Params:         0       0       0       0       0
  3461 ;;      Locals:         0       0       0       0       0
  3462 ;;      Temps:          0       0       0       0       0
  3463 ;;      Totals:         0       0       0       0       0
  3464 ;;Total ram usage:        0 bytes
  3465 ;; Hardware stack levels used:    1
  3466 ;; Hardware stack levels required when called:    8
  3467 ;; This function calls:
  3468 ;;		_DIO_SetPinDirection
  3469 ;;		_DIO_SetPinValue
  3470 ;; This function is called by:
  3471 ;;		_main
  3472 ;; This function uses a non-reentrant model
  3473 ;;
  3474                           
  3475                           
  3476                           ;psect for function _Cooler_Init
  3477  0D48                     _Cooler_Init:
  3478  0D48                     l2511:	
  3479                           ;incstack = 0
  3480 ;; hardware stack exceeded
  3481                           ; Regs used in _Cooler_Init: [wreg-fsr0h+status,2+status,0+btemp+1+pclath+cstack]
  3482                           
  3483                           
  3484                           ;APP_Program.c: 246:     DIO_SetPinDirection ( 2 , 2 , 1 ) ;
  3485  0D48  3002               	movlw	2
  3486  0D49  00FF               	movwf	btemp+1
  3487  0D4A  087F               	movf	btemp+1,w
  3488  0D4B  1283               	bcf	3,5	;RP0=0, select bank0
  3489  0D4C  1303               	bcf	3,6	;RP1=0, select bank0
  3490  0D4D  00D9               	movwf	DIO_SetPinDirection@u8PinIdCopy
  3491  0D4E  01DA               	clrf	DIO_SetPinDirection@u8PinDirCopy
  3492  0D4F  0ADA               	incf	DIO_SetPinDirection@u8PinDirCopy,f
  3493  0D50  3002               	movlw	2
  3494  0D51  120A  118A  2129  120A  158A  	fcall	_DIO_SetPinDirection
  3495                           
  3496                           ;APP_Program.c: 247:     DIO_SetPinValue ( 2 , 2 , 0 ) ;
  3497  0D56  3002               	movlw	2
  3498  0D57  00FF               	movwf	btemp+1
  3499  0D58  087F               	movf	btemp+1,w
  3500  0D59  1283               	bcf	3,5	;RP0=0, select bank0
  3501  0D5A  1303               	bcf	3,6	;RP1=0, select bank0
  3502  0D5B  00D9               	movwf	DIO_SetPinValue@u8PinIdCopy
  3503  0D5C  01DA               	clrf	DIO_SetPinValue@u8PinValCopy
  3504  0D5D  3002               	movlw	2
  3505  0D5E  120A  118A  22BF  120A  158A  	fcall	_DIO_SetPinValue
  3506  0D63                     l113:
  3507  0D63  0008               	return
  3508  0D64                     __end_of_Cooler_Init:
  3509                           
  3510                           	psect	text30
  3511  02BF                     __ptext30:	
  3512 ;; *************** function _DIO_SetPinValue *****************
  3513 ;; Defined at:
  3514 ;;		line 61 in file "DIO_Prog.c"
  3515 ;; Parameters:    Size  Location     Type
  3516 ;;  u8PortIdCopy    1    wreg     unsigned char 
  3517 ;;  u8PinIdCopy     1   16[BANK0 ] unsigned char 
  3518 ;;  u8PinValCopy    1   17[BANK0 ] unsigned char 
  3519 ;; Auto vars:     Size  Location     Type
  3520 ;;  u8PortIdCopy    1   20[BANK0 ] unsigned char 
  3521 ;; Return value:  Size  Location     Type
  3522 ;;                  1    wreg      void 
  3523 ;; Registers used:
  3524 ;;		wreg, fsr0l, fsr0h, status,2, status,0, btemp+1
  3525 ;; Tracked objects:
  3526 ;;		On entry : 0/0
  3527 ;;		On exit  : 0/0
  3528 ;;		Unchanged: 0/0
  3529 ;; Data sizes:     COMMON   BANK0   BANK1   BANK3   BANK2
  3530 ;;      Params:         0       2       0       0       0
  3531 ;;      Locals:         0       1       0       0       0
  3532 ;;      Temps:          0       2       0       0       0
  3533 ;;      Totals:         0       5       0       0       0
  3534 ;;Total ram usage:        5 bytes
  3535 ;; Hardware stack levels used:    1
  3536 ;; Hardware stack levels required when called:    7
  3537 ;; This function calls:
  3538 ;;		Nothing
  3539 ;; This function is called by:
  3540 ;;		_Cooler_Init
  3541 ;;		_Heater_Init
  3542 ;;		_vid_7_Segment_Init
  3543 ;;		_vid_7_Segment_DeInit
  3544 ;; This function uses a non-reentrant model
  3545 ;;
  3546                           
  3547                           
  3548                           ;psect for function _DIO_SetPinValue
  3549  02BF                     _DIO_SetPinValue:
  3550                           
  3551                           ;incstack = 0
  3552 ;; hardware stack exceeded
  3553                           ; Regs used in _DIO_SetPinValue: [wreg-fsr0h+status,2+status,0+btemp+1]
  3554                           ;DIO_SetPinValue@u8PortIdCopy stored from wreg
  3555  02BF  1283               	bcf	3,5	;RP0=0, select bank0
  3556  02C0  1303               	bcf	3,6	;RP1=0, select bank0
  3557  02C1  00DD               	movwf	DIO_SetPinValue@u8PortIdCopy
  3558  02C2                     l2119:
  3559                           
  3560                           ;DIO_Prog.c: 61: void DIO_SetPinValue(u8 u8PortIdCopy , u8 u8PinIdCopy, u8 u8PinValCopy)
      +                          ;DIO_Prog.c: 62: {;DIO_Prog.c: 64:  if ((u8PortIdCopy <= 3) && (u8PinIdCopy <= 7))
  3561  02C2  3004               	movlw	4
  3562  02C3  025D               	subwf	DIO_SetPinValue@u8PortIdCopy,w
  3563  02C4  1803               	skipnc
  3564  02C5  2AC7               	goto	u1251
  3565  02C6  2AC8               	goto	u1250
  3566  02C7                     u1251:
  3567  02C7  2B7A               	goto	l202
  3568  02C8                     u1250:
  3569  02C8                     l2121:
  3570  02C8  3008               	movlw	8
  3571  02C9  0259               	subwf	DIO_SetPinValue@u8PinIdCopy,w
  3572  02CA  1803               	skipnc
  3573  02CB  2ACD               	goto	u1261
  3574  02CC  2ACE               	goto	u1260
  3575  02CD                     u1261:
  3576  02CD  2B7A               	goto	l202
  3577  02CE                     u1260:
  3578  02CE                     l2123:
  3579                           
  3580                           ;DIO_Prog.c: 65:  {;DIO_Prog.c: 66:   if (u8PinValCopy == 1)
  3581  02CE  035A               	decf	DIO_SetPinValue@u8PinValCopy,w
  3582  02CF  1D03               	btfss	3,2
  3583  02D0  2AD2               	goto	u1271
  3584  02D1  2AD3               	goto	u1270
  3585  02D2                     u1271:
  3586  02D2  2B22               	goto	l2139
  3587  02D3                     u1270:
  3588  02D3  2B0C               	goto	l2137
  3589  02D4                     l2127:
  3590  02D4  3001               	movlw	1
  3591  02D5  00DB               	movwf	??_DIO_SetPinValue
  3592  02D6  0A59               	incf	DIO_SetPinValue@u8PinIdCopy,w
  3593  02D7  2ADA               	goto	u1284
  3594  02D8                     u1285:
  3595  02D8  1003               	clrc
  3596  02D9  0DDB               	rlf	??_DIO_SetPinValue,f
  3597  02DA                     u1284:
  3598  02DA  3EFF               	addlw	-1
  3599  02DB  1D03               	skipz
  3600  02DC  2AD8               	goto	u1285
  3601  02DD  085B               	movf	??_DIO_SetPinValue,w
  3602  02DE  00FF               	movwf	btemp+1
  3603  02DF  087F               	movf	btemp+1,w
  3604  02E0  0485               	iorwf	5,f	;volatile
  3605  02E1  2B7A               	goto	l202
  3606  02E2                     l2129:
  3607  02E2  3001               	movlw	1
  3608  02E3  00DB               	movwf	??_DIO_SetPinValue
  3609  02E4  0A59               	incf	DIO_SetPinValue@u8PinIdCopy,w
  3610  02E5  2AE8               	goto	u1294
  3611  02E6                     u1295:
  3612  02E6  1003               	clrc
  3613  02E7  0DDB               	rlf	??_DIO_SetPinValue,f
  3614  02E8                     u1294:
  3615  02E8  3EFF               	addlw	-1
  3616  02E9  1D03               	skipz
  3617  02EA  2AE6               	goto	u1295
  3618  02EB  085B               	movf	??_DIO_SetPinValue,w
  3619  02EC  00FF               	movwf	btemp+1
  3620  02ED  087F               	movf	btemp+1,w
  3621  02EE  0486               	iorwf	6,f	;volatile
  3622  02EF  2B7A               	goto	l202
  3623  02F0                     l2131:
  3624  02F0  3001               	movlw	1
  3625  02F1  00DB               	movwf	??_DIO_SetPinValue
  3626  02F2  0A59               	incf	DIO_SetPinValue@u8PinIdCopy,w
  3627  02F3  2AF6               	goto	u1304
  3628  02F4                     u1305:
  3629  02F4  1003               	clrc
  3630  02F5  0DDB               	rlf	??_DIO_SetPinValue,f
  3631  02F6                     u1304:
  3632  02F6  3EFF               	addlw	-1
  3633  02F7  1D03               	skipz
  3634  02F8  2AF4               	goto	u1305
  3635  02F9  085B               	movf	??_DIO_SetPinValue,w
  3636  02FA  00FF               	movwf	btemp+1
  3637  02FB  087F               	movf	btemp+1,w
  3638  02FC  0487               	iorwf	7,f	;volatile
  3639  02FD  2B7A               	goto	l202
  3640  02FE                     l2133:
  3641  02FE  3001               	movlw	1
  3642  02FF  00DB               	movwf	??_DIO_SetPinValue
  3643  0300  0A59               	incf	DIO_SetPinValue@u8PinIdCopy,w
  3644  0301  2B04               	goto	u1314
  3645  0302                     u1315:
  3646  0302  1003               	clrc
  3647  0303  0DDB               	rlf	??_DIO_SetPinValue,f
  3648  0304                     u1314:
  3649  0304  3EFF               	addlw	-1
  3650  0305  1D03               	skipz
  3651  0306  2B02               	goto	u1315
  3652  0307  085B               	movf	??_DIO_SetPinValue,w
  3653  0308  00FF               	movwf	btemp+1
  3654  0309  087F               	movf	btemp+1,w
  3655  030A  0488               	iorwf	8,f	;volatile
  3656  030B  2B7A               	goto	l202
  3657  030C                     l2137:
  3658  030C  085D               	movf	DIO_SetPinValue@u8PortIdCopy,w
  3659  030D  00DB               	movwf	??_DIO_SetPinValue
  3660  030E  01DC               	clrf	??_DIO_SetPinValue+1
  3661                           
  3662                           ; Switch on 2 bytes has been partitioned into a top level switch of size 1, and 1 sub-sw
      +                          itches
  3663                           ; Switch size 1, requested type "simple"
  3664                           ; Number of cases is 1, Range of values is 0 to 0
  3665                           ; switch strategies available:
  3666                           ; Name         Instructions Cycles
  3667                           ; simple_byte            4     3 (average)
  3668                           ; direct_byte           11     8 (fixed)
  3669                           ; jumptable            260     6 (fixed)
  3670                           ;	Chosen strategy is simple_byte
  3671  030F  085C               	movf	??_DIO_SetPinValue+1,w
  3672  0310  3A00               	xorlw	0	; case 0
  3673  0311  1903               	skipnz
  3674  0312  2B14               	goto	l3203
  3675  0313  2B7A               	goto	l202
  3676  0314                     l3203:
  3677                           
  3678                           ; Switch size 1, requested type "simple"
  3679                           ; Number of cases is 4, Range of values is 0 to 3
  3680                           ; switch strategies available:
  3681                           ; Name         Instructions Cycles
  3682                           ; simple_byte           13     7 (average)
  3683                           ; direct_byte           20     8 (fixed)
  3684                           ; jumptable            260     6 (fixed)
  3685                           ;	Chosen strategy is simple_byte
  3686  0314  085B               	movf	??_DIO_SetPinValue,w
  3687  0315  3A00               	xorlw	0	; case 0
  3688  0316  1903               	skipnz
  3689  0317  2AD4               	goto	l2127
  3690  0318  3A01               	xorlw	1	; case 1
  3691  0319  1903               	skipnz
  3692  031A  2AE2               	goto	l2129
  3693  031B  3A03               	xorlw	3	; case 2
  3694  031C  1903               	skipnz
  3695  031D  2AF0               	goto	l2131
  3696  031E  3A01               	xorlw	1	; case 3
  3697  031F  1903               	skipnz
  3698  0320  2AFE               	goto	l2133
  3699  0321  2B7A               	goto	l202
  3700  0322                     l2139:
  3701  0322  085A               	movf	DIO_SetPinValue@u8PinValCopy,w
  3702  0323  1D03               	btfss	3,2
  3703  0324  2B26               	goto	u1321
  3704  0325  2B27               	goto	u1320
  3705  0326                     u1321:
  3706  0326  2B7A               	goto	l192
  3707  0327                     u1320:
  3708  0327  2B64               	goto	l2153
  3709  0328                     l2143:
  3710  0328  3001               	movlw	1
  3711  0329  00DB               	movwf	??_DIO_SetPinValue
  3712  032A  0A59               	incf	DIO_SetPinValue@u8PinIdCopy,w
  3713  032B  2B2E               	goto	u1334
  3714  032C                     u1335:
  3715  032C  1003               	clrc
  3716  032D  0DDB               	rlf	??_DIO_SetPinValue,f
  3717  032E                     u1334:
  3718  032E  3EFF               	addlw	-1
  3719  032F  1D03               	skipz
  3720  0330  2B2C               	goto	u1335
  3721  0331  085B               	movf	??_DIO_SetPinValue,w
  3722  0332  3AFF               	xorlw	255
  3723  0333  00FF               	movwf	btemp+1
  3724  0334  087F               	movf	btemp+1,w
  3725  0335  0585               	andwf	5,f	;volatile
  3726  0336  2B7A               	goto	l202
  3727  0337                     l2145:
  3728  0337  3001               	movlw	1
  3729  0338  00DB               	movwf	??_DIO_SetPinValue
  3730  0339  0A59               	incf	DIO_SetPinValue@u8PinIdCopy,w
  3731  033A  2B3D               	goto	u1344
  3732  033B                     u1345:
  3733  033B  1003               	clrc
  3734  033C  0DDB               	rlf	??_DIO_SetPinValue,f
  3735  033D                     u1344:
  3736  033D  3EFF               	addlw	-1
  3737  033E  1D03               	skipz
  3738  033F  2B3B               	goto	u1345
  3739  0340  085B               	movf	??_DIO_SetPinValue,w
  3740  0341  3AFF               	xorlw	255
  3741  0342  00FF               	movwf	btemp+1
  3742  0343  087F               	movf	btemp+1,w
  3743  0344  0586               	andwf	6,f	;volatile
  3744  0345  2B7A               	goto	l202
  3745  0346                     l2147:
  3746  0346  3001               	movlw	1
  3747  0347  00DB               	movwf	??_DIO_SetPinValue
  3748  0348  0A59               	incf	DIO_SetPinValue@u8PinIdCopy,w
  3749  0349  2B4C               	goto	u1354
  3750  034A                     u1355:
  3751  034A  1003               	clrc
  3752  034B  0DDB               	rlf	??_DIO_SetPinValue,f
  3753  034C                     u1354:
  3754  034C  3EFF               	addlw	-1
  3755  034D  1D03               	skipz
  3756  034E  2B4A               	goto	u1355
  3757  034F  085B               	movf	??_DIO_SetPinValue,w
  3758  0350  3AFF               	xorlw	255
  3759  0351  00FF               	movwf	btemp+1
  3760  0352  087F               	movf	btemp+1,w
  3761  0353  0587               	andwf	7,f	;volatile
  3762  0354  2B7A               	goto	l202
  3763  0355                     l2149:
  3764  0355  3001               	movlw	1
  3765  0356  00DB               	movwf	??_DIO_SetPinValue
  3766  0357  0A59               	incf	DIO_SetPinValue@u8PinIdCopy,w
  3767  0358  2B5B               	goto	u1364
  3768  0359                     u1365:
  3769  0359  1003               	clrc
  3770  035A  0DDB               	rlf	??_DIO_SetPinValue,f
  3771  035B                     u1364:
  3772  035B  3EFF               	addlw	-1
  3773  035C  1D03               	skipz
  3774  035D  2B59               	goto	u1365
  3775  035E  085B               	movf	??_DIO_SetPinValue,w
  3776  035F  3AFF               	xorlw	255
  3777  0360  00FF               	movwf	btemp+1
  3778  0361  087F               	movf	btemp+1,w
  3779  0362  0588               	andwf	8,f	;volatile
  3780  0363  2B7A               	goto	l202
  3781  0364                     l2153:
  3782  0364  085D               	movf	DIO_SetPinValue@u8PortIdCopy,w
  3783  0365  00DB               	movwf	??_DIO_SetPinValue
  3784  0366  01DC               	clrf	??_DIO_SetPinValue+1
  3785                           
  3786                           ; Switch on 2 bytes has been partitioned into a top level switch of size 1, and 1 sub-sw
      +                          itches
  3787                           ; Switch size 1, requested type "simple"
  3788                           ; Number of cases is 1, Range of values is 0 to 0
  3789                           ; switch strategies available:
  3790                           ; Name         Instructions Cycles
  3791                           ; simple_byte            4     3 (average)
  3792                           ; direct_byte           11     8 (fixed)
  3793                           ; jumptable            260     6 (fixed)
  3794                           ;	Chosen strategy is simple_byte
  3795  0367  085C               	movf	??_DIO_SetPinValue+1,w
  3796  0368  3A00               	xorlw	0	; case 0
  3797  0369  1903               	skipnz
  3798  036A  2B6C               	goto	l3205
  3799  036B  2B7A               	goto	l192
  3800  036C                     l3205:
  3801                           
  3802                           ; Switch size 1, requested type "simple"
  3803                           ; Number of cases is 4, Range of values is 0 to 3
  3804                           ; switch strategies available:
  3805                           ; Name         Instructions Cycles
  3806                           ; simple_byte           13     7 (average)
  3807                           ; direct_byte           20     8 (fixed)
  3808                           ; jumptable            260     6 (fixed)
  3809                           ;	Chosen strategy is simple_byte
  3810  036C  085B               	movf	??_DIO_SetPinValue,w
  3811  036D  3A00               	xorlw	0	; case 0
  3812  036E  1903               	skipnz
  3813  036F  2B28               	goto	l2143
  3814  0370  3A01               	xorlw	1	; case 1
  3815  0371  1903               	skipnz
  3816  0372  2B37               	goto	l2145
  3817  0373  3A03               	xorlw	3	; case 2
  3818  0374  1903               	skipnz
  3819  0375  2B46               	goto	l2147
  3820  0376  3A01               	xorlw	1	; case 3
  3821  0377  1903               	skipnz
  3822  0378  2B55               	goto	l2149
  3823  0379  2B7A               	goto	l192
  3824  037A                     l192:
  3825  037A                     l202:	
  3826                           ;DIO_Prog.c: 95:  }
  3827                           
  3828  037A  0008               	return
  3829  037B                     __end_of_DIO_SetPinValue:
  3830                           
  3831                           	psect	text31
  3832  0129                     __ptext31:	
  3833 ;; *************** function _DIO_SetPinDirection *****************
  3834 ;; Defined at:
  3835 ;;		line 17 in file "DIO_Prog.c"
  3836 ;; Parameters:    Size  Location     Type
  3837 ;;  u8PortIdCopy    1    wreg     unsigned char 
  3838 ;;  u8PinIdCopy     1   16[BANK0 ] unsigned char 
  3839 ;;  u8PinDirCopy    1   17[BANK0 ] unsigned char 
  3840 ;; Auto vars:     Size  Location     Type
  3841 ;;  u8PortIdCopy    1   20[BANK0 ] unsigned char 
  3842 ;; Return value:  Size  Location     Type
  3843 ;;                  1    wreg      void 
  3844 ;; Registers used:
  3845 ;;		wreg, fsr0l, fsr0h, status,2, status,0, btemp+1
  3846 ;; Tracked objects:
  3847 ;;		On entry : 0/0
  3848 ;;		On exit  : 0/0
  3849 ;;		Unchanged: 0/0
  3850 ;; Data sizes:     COMMON   BANK0   BANK1   BANK3   BANK2
  3851 ;;      Params:         0       2       0       0       0
  3852 ;;      Locals:         0       1       0       0       0
  3853 ;;      Temps:          0       2       0       0       0
  3854 ;;      Totals:         0       5       0       0       0
  3855 ;;Total ram usage:        5 bytes
  3856 ;; Hardware stack levels used:    1
  3857 ;; Hardware stack levels required when called:    7
  3858 ;; This function calls:
  3859 ;;		Nothing
  3860 ;; This function is called by:
  3861 ;;		_Cooler_Init
  3862 ;;		_Heater_Init
  3863 ;;		_TempSensor_Init
  3864 ;;		_vid_SystemInit
  3865 ;;		_EXT_INT_Init
  3866 ;;		_I2C_Init
  3867 ;;		_vid_7_Segment_Init
  3868 ;; This function uses a non-reentrant model
  3869 ;;
  3870                           
  3871                           
  3872                           ;psect for function _DIO_SetPinDirection
  3873  0129                     _DIO_SetPinDirection:
  3874                           
  3875                           ;incstack = 0
  3876 ;; hardware stack exceeded
  3877                           ; Regs used in _DIO_SetPinDirection: [wreg-fsr0h+status,2+status,0+btemp+1]
  3878                           ;DIO_SetPinDirection@u8PortIdCopy stored from wreg
  3879  0129  1283               	bcf	3,5	;RP0=0, select bank0
  3880  012A  1303               	bcf	3,6	;RP1=0, select bank0
  3881  012B  00DD               	movwf	DIO_SetPinDirection@u8PortIdCopy
  3882  012C                     l2309:
  3883                           
  3884                           ;DIO_Prog.c: 17: void DIO_SetPinDirection (u8 u8PortIdCopy, u8 u8PinIdCopy, u8 u8PinDirC
      +                          opy);DIO_Prog.c: 18: {;DIO_Prog.c: 20:  if ((u8PortIdCopy <= 3) && (u8PinIdCopy <= 7))
  3885  012C  3004               	movlw	4
  3886  012D  025D               	subwf	DIO_SetPinDirection@u8PortIdCopy,w
  3887  012E  1803               	skipnc
  3888  012F  2931               	goto	u1471
  3889  0130  2932               	goto	u1470
  3890  0131                     u1471:
  3891  0131  29F4               	goto	l181
  3892  0132                     u1470:
  3893  0132                     l2311:
  3894  0132  3008               	movlw	8
  3895  0133  0259               	subwf	DIO_SetPinDirection@u8PinIdCopy,w
  3896  0134  1803               	skipnc
  3897  0135  2937               	goto	u1481
  3898  0136  2938               	goto	u1480
  3899  0137                     u1481:
  3900  0137  29F4               	goto	l181
  3901  0138                     u1480:
  3902  0138                     l2313:
  3903                           
  3904                           ;DIO_Prog.c: 21:  {;DIO_Prog.c: 22:   if ( u8PinDirCopy == 1 )
  3905  0138  035A               	decf	DIO_SetPinDirection@u8PinDirCopy,w
  3906  0139  1D03               	btfss	3,2
  3907  013A  293C               	goto	u1491
  3908  013B  293D               	goto	u1490
  3909  013C                     u1491:
  3910  013C  2998               	goto	l2329
  3911  013D                     u1490:
  3912  013D  2982               	goto	l2327
  3913  013E                     l2317:
  3914  013E  3001               	movlw	1
  3915  013F  00DB               	movwf	??_DIO_SetPinDirection
  3916  0140  0A59               	incf	DIO_SetPinDirection@u8PinIdCopy,w
  3917  0141  2944               	goto	u1504
  3918  0142                     u1505:
  3919  0142  1003               	clrc
  3920  0143  0DDB               	rlf	??_DIO_SetPinDirection,f
  3921  0144                     u1504:
  3922  0144  3EFF               	addlw	-1
  3923  0145  1D03               	skipz
  3924  0146  2942               	goto	u1505
  3925  0147  085B               	movf	??_DIO_SetPinDirection,w
  3926  0148  3AFF               	xorlw	255
  3927  0149  00FF               	movwf	btemp+1
  3928  014A  087F               	movf	btemp+1,w
  3929  014B  1683               	bsf	3,5	;RP0=1, select bank1
  3930  014C  1303               	bcf	3,6	;RP1=0, select bank1
  3931  014D  0585               	andwf	5,f	;volatile
  3932  014E  29F4               	goto	l181
  3933  014F                     l2319:
  3934  014F  3001               	movlw	1
  3935  0150  00DB               	movwf	??_DIO_SetPinDirection
  3936  0151  0A59               	incf	DIO_SetPinDirection@u8PinIdCopy,w
  3937  0152  2955               	goto	u1514
  3938  0153                     u1515:
  3939  0153  1003               	clrc
  3940  0154  0DDB               	rlf	??_DIO_SetPinDirection,f
  3941  0155                     u1514:
  3942  0155  3EFF               	addlw	-1
  3943  0156  1D03               	skipz
  3944  0157  2953               	goto	u1515
  3945  0158  085B               	movf	??_DIO_SetPinDirection,w
  3946  0159  3AFF               	xorlw	255
  3947  015A  00FF               	movwf	btemp+1
  3948  015B  087F               	movf	btemp+1,w
  3949  015C  1683               	bsf	3,5	;RP0=1, select bank1
  3950  015D  1303               	bcf	3,6	;RP1=0, select bank1
  3951  015E  0586               	andwf	6,f	;volatile
  3952  015F  29F4               	goto	l181
  3953  0160                     l2321:
  3954  0160  3001               	movlw	1
  3955  0161  00DB               	movwf	??_DIO_SetPinDirection
  3956  0162  0A59               	incf	DIO_SetPinDirection@u8PinIdCopy,w
  3957  0163  2966               	goto	u1524
  3958  0164                     u1525:
  3959  0164  1003               	clrc
  3960  0165  0DDB               	rlf	??_DIO_SetPinDirection,f
  3961  0166                     u1524:
  3962  0166  3EFF               	addlw	-1
  3963  0167  1D03               	skipz
  3964  0168  2964               	goto	u1525
  3965  0169  085B               	movf	??_DIO_SetPinDirection,w
  3966  016A  3AFF               	xorlw	255
  3967  016B  00FF               	movwf	btemp+1
  3968  016C  087F               	movf	btemp+1,w
  3969  016D  1683               	bsf	3,5	;RP0=1, select bank1
  3970  016E  1303               	bcf	3,6	;RP1=0, select bank1
  3971  016F  0587               	andwf	7,f	;volatile
  3972  0170  29F4               	goto	l181
  3973  0171                     l2323:
  3974  0171  3001               	movlw	1
  3975  0172  00DB               	movwf	??_DIO_SetPinDirection
  3976  0173  0A59               	incf	DIO_SetPinDirection@u8PinIdCopy,w
  3977  0174  2977               	goto	u1534
  3978  0175                     u1535:
  3979  0175  1003               	clrc
  3980  0176  0DDB               	rlf	??_DIO_SetPinDirection,f
  3981  0177                     u1534:
  3982  0177  3EFF               	addlw	-1
  3983  0178  1D03               	skipz
  3984  0179  2975               	goto	u1535
  3985  017A  085B               	movf	??_DIO_SetPinDirection,w
  3986  017B  3AFF               	xorlw	255
  3987  017C  00FF               	movwf	btemp+1
  3988  017D  087F               	movf	btemp+1,w
  3989  017E  1683               	bsf	3,5	;RP0=1, select bank1
  3990  017F  1303               	bcf	3,6	;RP1=0, select bank1
  3991  0180  0588               	andwf	8,f	;volatile
  3992  0181  29F4               	goto	l181
  3993  0182                     l2327:
  3994  0182  085D               	movf	DIO_SetPinDirection@u8PortIdCopy,w
  3995  0183  00DB               	movwf	??_DIO_SetPinDirection
  3996  0184  01DC               	clrf	??_DIO_SetPinDirection+1
  3997                           
  3998                           ; Switch on 2 bytes has been partitioned into a top level switch of size 1, and 1 sub-sw
      +                          itches
  3999                           ; Switch size 1, requested type "simple"
  4000                           ; Number of cases is 1, Range of values is 0 to 0
  4001                           ; switch strategies available:
  4002                           ; Name         Instructions Cycles
  4003                           ; simple_byte            4     3 (average)
  4004                           ; direct_byte           11     8 (fixed)
  4005                           ; jumptable            260     6 (fixed)
  4006                           ;	Chosen strategy is simple_byte
  4007  0185  085C               	movf	??_DIO_SetPinDirection+1,w
  4008  0186  3A00               	xorlw	0	; case 0
  4009  0187  1903               	skipnz
  4010  0188  298A               	goto	l3207
  4011  0189  29F4               	goto	l181
  4012  018A                     l3207:
  4013                           
  4014                           ; Switch size 1, requested type "simple"
  4015                           ; Number of cases is 4, Range of values is 0 to 3
  4016                           ; switch strategies available:
  4017                           ; Name         Instructions Cycles
  4018                           ; simple_byte           13     7 (average)
  4019                           ; direct_byte           20     8 (fixed)
  4020                           ; jumptable            260     6 (fixed)
  4021                           ;	Chosen strategy is simple_byte
  4022  018A  085B               	movf	??_DIO_SetPinDirection,w
  4023  018B  3A00               	xorlw	0	; case 0
  4024  018C  1903               	skipnz
  4025  018D  293E               	goto	l2317
  4026  018E  3A01               	xorlw	1	; case 1
  4027  018F  1903               	skipnz
  4028  0190  294F               	goto	l2319
  4029  0191  3A03               	xorlw	3	; case 2
  4030  0192  1903               	skipnz
  4031  0193  2960               	goto	l2321
  4032  0194  3A01               	xorlw	1	; case 3
  4033  0195  1903               	skipnz
  4034  0196  2971               	goto	l2323
  4035  0197  29F4               	goto	l181
  4036  0198                     l2329:
  4037  0198  085A               	movf	DIO_SetPinDirection@u8PinDirCopy,w
  4038  0199  1D03               	btfss	3,2
  4039  019A  299C               	goto	u1541
  4040  019B  299D               	goto	u1540
  4041  019C                     u1541:
  4042  019C  29F4               	goto	l171
  4043  019D                     u1540:
  4044  019D  29DE               	goto	l2343
  4045  019E                     l2333:
  4046  019E  3001               	movlw	1
  4047  019F  00DB               	movwf	??_DIO_SetPinDirection
  4048  01A0  0A59               	incf	DIO_SetPinDirection@u8PinIdCopy,w
  4049  01A1  29A4               	goto	u1554
  4050  01A2                     u1555:
  4051  01A2  1003               	clrc
  4052  01A3  0DDB               	rlf	??_DIO_SetPinDirection,f
  4053  01A4                     u1554:
  4054  01A4  3EFF               	addlw	-1
  4055  01A5  1D03               	skipz
  4056  01A6  29A2               	goto	u1555
  4057  01A7  085B               	movf	??_DIO_SetPinDirection,w
  4058  01A8  00FF               	movwf	btemp+1
  4059  01A9  087F               	movf	btemp+1,w
  4060  01AA  1683               	bsf	3,5	;RP0=1, select bank1
  4061  01AB  1303               	bcf	3,6	;RP1=0, select bank1
  4062  01AC  0485               	iorwf	5,f	;volatile
  4063  01AD  29F4               	goto	l181
  4064  01AE                     l2335:
  4065  01AE  3001               	movlw	1
  4066  01AF  00DB               	movwf	??_DIO_SetPinDirection
  4067  01B0  0A59               	incf	DIO_SetPinDirection@u8PinIdCopy,w
  4068  01B1  29B4               	goto	u1564
  4069  01B2                     u1565:
  4070  01B2  1003               	clrc
  4071  01B3  0DDB               	rlf	??_DIO_SetPinDirection,f
  4072  01B4                     u1564:
  4073  01B4  3EFF               	addlw	-1
  4074  01B5  1D03               	skipz
  4075  01B6  29B2               	goto	u1565
  4076  01B7  085B               	movf	??_DIO_SetPinDirection,w
  4077  01B8  00FF               	movwf	btemp+1
  4078  01B9  087F               	movf	btemp+1,w
  4079  01BA  1683               	bsf	3,5	;RP0=1, select bank1
  4080  01BB  1303               	bcf	3,6	;RP1=0, select bank1
  4081  01BC  0486               	iorwf	6,f	;volatile
  4082  01BD  29F4               	goto	l181
  4083  01BE                     l2337:
  4084  01BE  3001               	movlw	1
  4085  01BF  00DB               	movwf	??_DIO_SetPinDirection
  4086  01C0  0A59               	incf	DIO_SetPinDirection@u8PinIdCopy,w
  4087  01C1  29C4               	goto	u1574
  4088  01C2                     u1575:
  4089  01C2  1003               	clrc
  4090  01C3  0DDB               	rlf	??_DIO_SetPinDirection,f
  4091  01C4                     u1574:
  4092  01C4  3EFF               	addlw	-1
  4093  01C5  1D03               	skipz
  4094  01C6  29C2               	goto	u1575
  4095  01C7  085B               	movf	??_DIO_SetPinDirection,w
  4096  01C8  00FF               	movwf	btemp+1
  4097  01C9  087F               	movf	btemp+1,w
  4098  01CA  1683               	bsf	3,5	;RP0=1, select bank1
  4099  01CB  1303               	bcf	3,6	;RP1=0, select bank1
  4100  01CC  0487               	iorwf	7,f	;volatile
  4101  01CD  29F4               	goto	l181
  4102  01CE                     l2339:
  4103  01CE  3001               	movlw	1
  4104  01CF  00DB               	movwf	??_DIO_SetPinDirection
  4105  01D0  0A59               	incf	DIO_SetPinDirection@u8PinIdCopy,w
  4106  01D1  29D4               	goto	u1584
  4107  01D2                     u1585:
  4108  01D2  1003               	clrc
  4109  01D3  0DDB               	rlf	??_DIO_SetPinDirection,f
  4110  01D4                     u1584:
  4111  01D4  3EFF               	addlw	-1
  4112  01D5  1D03               	skipz
  4113  01D6  29D2               	goto	u1585
  4114  01D7  085B               	movf	??_DIO_SetPinDirection,w
  4115  01D8  00FF               	movwf	btemp+1
  4116  01D9  087F               	movf	btemp+1,w
  4117  01DA  1683               	bsf	3,5	;RP0=1, select bank1
  4118  01DB  1303               	bcf	3,6	;RP1=0, select bank1
  4119  01DC  0488               	iorwf	8,f	;volatile
  4120  01DD  29F4               	goto	l181
  4121  01DE                     l2343:
  4122  01DE  085D               	movf	DIO_SetPinDirection@u8PortIdCopy,w
  4123  01DF  00DB               	movwf	??_DIO_SetPinDirection
  4124  01E0  01DC               	clrf	??_DIO_SetPinDirection+1
  4125                           
  4126                           ; Switch on 2 bytes has been partitioned into a top level switch of size 1, and 1 sub-sw
      +                          itches
  4127                           ; Switch size 1, requested type "simple"
  4128                           ; Number of cases is 1, Range of values is 0 to 0
  4129                           ; switch strategies available:
  4130                           ; Name         Instructions Cycles
  4131                           ; simple_byte            4     3 (average)
  4132                           ; direct_byte           11     8 (fixed)
  4133                           ; jumptable            260     6 (fixed)
  4134                           ;	Chosen strategy is simple_byte
  4135  01E1  085C               	movf	??_DIO_SetPinDirection+1,w
  4136  01E2  3A00               	xorlw	0	; case 0
  4137  01E3  1903               	skipnz
  4138  01E4  29E6               	goto	l3209
  4139  01E5  29F4               	goto	l171
  4140  01E6                     l3209:
  4141                           
  4142                           ; Switch size 1, requested type "simple"
  4143                           ; Number of cases is 4, Range of values is 0 to 3
  4144                           ; switch strategies available:
  4145                           ; Name         Instructions Cycles
  4146                           ; simple_byte           13     7 (average)
  4147                           ; direct_byte           20     8 (fixed)
  4148                           ; jumptable            260     6 (fixed)
  4149                           ;	Chosen strategy is simple_byte
  4150  01E6  085B               	movf	??_DIO_SetPinDirection,w
  4151  01E7  3A00               	xorlw	0	; case 0
  4152  01E8  1903               	skipnz
  4153  01E9  299E               	goto	l2333
  4154  01EA  3A01               	xorlw	1	; case 1
  4155  01EB  1903               	skipnz
  4156  01EC  29AE               	goto	l2335
  4157  01ED  3A03               	xorlw	3	; case 2
  4158  01EE  1903               	skipnz
  4159  01EF  29BE               	goto	l2337
  4160  01F0  3A01               	xorlw	1	; case 3
  4161  01F1  1903               	skipnz
  4162  01F2  29CE               	goto	l2339
  4163  01F3  29F4               	goto	l171
  4164  01F4                     l171:
  4165  01F4                     l181:	
  4166                           ;DIO_Prog.c: 50:  }
  4167                           
  4168  01F4  0008               	return
  4169  01F5                     __end_of_DIO_SetPinDirection:
  4170                           
  4171                           	psect	text32
  4172  047C                     __ptext32:	
  4173 ;; *************** function _ISR *****************
  4174 ;; Defined at:
  4175 ;;		line 89 in file "EXT_INT_Prog.c"
  4176 ;; Parameters:    Size  Location     Type
  4177 ;;		None
  4178 ;; Auto vars:     Size  Location     Type
  4179 ;;		None
  4180 ;; Return value:  Size  Location     Type
  4181 ;;                  1    wreg      void 
  4182 ;; Registers used:
  4183 ;;		wreg, fsr0l, fsr0h, status,2, status,0, btemp+1, pclath, cstack
  4184 ;; Tracked objects:
  4185 ;;		On entry : 0/0
  4186 ;;		On exit  : 0/0
  4187 ;;		Unchanged: 0/0
  4188 ;; Data sizes:     COMMON   BANK0   BANK1   BANK3   BANK2
  4189 ;;      Params:         0       0       0       0       0
  4190 ;;      Locals:         0       0       0       0       0
  4191 ;;      Temps:          0       5       0       0       0
  4192 ;;      Totals:         0       5       0       0       0
  4193 ;;Total ram usage:        5 bytes
  4194 ;; Hardware stack levels used:    1
  4195 ;; Hardware stack levels required when called:    6
  4196 ;; This function calls:
  4197 ;;		Absolute function
  4198 ;;		_DIO_GetPinValue
  4199 ;;		_RB0_Handler
  4200 ;;		_RB4_Handler
  4201 ;;		_RB5_Handler
  4202 ;;		_RTO_vid_StartSchedular
  4203 ;; This function is called by:
  4204 ;;		Interrupt level 1
  4205 ;; This function uses a non-reentrant model
  4206 ;;
  4207                           
  4208                           
  4209                           ;psect for function _ISR
  4210  047C                     _ISR:
  4211  047C                     i1l2975:
  4212                           
  4213                           ;EXT_INT_Prog.c: 92:     if (((((*((volatile u8*)0x0B))) >> (1)) & 0x01))
  4214  047C  080B               	movf	11,w	;volatile
  4215  047D  00D4               	movwf	??_ISR
  4216  047E  3001               	movlw	1
  4217  047F                     u220_25:
  4218  047F  1003               	clrc
  4219  0480  0CD4               	rrf	??_ISR,f
  4220  0481  3EFF               	addlw	-1
  4221  0482  1D03               	skipz
  4222  0483  2C7F               	goto	u220_25
  4223  0484  1C54               	btfss	??_ISR,0
  4224  0485  2C87               	goto	u221_21
  4225  0486  2C88               	goto	u221_20
  4226  0487                     u221_21:
  4227  0487  2C93               	goto	i1l265
  4228  0488                     u221_20:
  4229  0488                     i1l2977:
  4230                           
  4231                           ;EXT_INT_Prog.c: 93:     {;EXT_INT_Prog.c: 94:        GptrToFun_RB0 ();
  4232  0488  0840               	movf	_GptrToFun_RB0,w
  4233  0489  120A  118A  2023  120A  118A  	fcall	i1fptable
  4234  048E                     i1l2979:
  4235                           
  4236                           ;EXT_INT_Prog.c: 95:        ((*((volatile u8*)0x0B))) &= ~(1 << (1)) ;
  4237  048E  30FD               	movlw	253
  4238  048F  00FF               	movwf	btemp+1
  4239  0490  087F               	movf	btemp+1,w
  4240  0491  058B               	andwf	11,f	;volatile
  4241                           
  4242                           ;EXT_INT_Prog.c: 97:     }
  4243  0492  2CE4               	goto	i1l275
  4244  0493                     i1l265:	
  4245                           ;EXT_INT_Prog.c: 98:     else if ( ((((*((volatile u8*)0x0B))) >> (0)) & 0x01) )
  4246                           
  4247  0493  1C0B               	btfss	11,0	;volatile
  4248  0494  2C96               	goto	u222_21
  4249  0495  2C97               	goto	u222_20
  4250  0496                     u222_21:
  4251  0496  2CCB               	goto	i1l2991
  4252  0497                     u222_20:
  4253  0497                     i1l2981:
  4254                           
  4255                           ;EXT_INT_Prog.c: 99:     {;EXT_INT_Prog.c: 101:         if ( ! DIO_GetPinValue(1,4) )
  4256  0497  3004               	movlw	4
  4257  0498  00FF               	movwf	btemp+1
  4258  0499  087F               	movf	btemp+1,w
  4259  049A  00F0               	movwf	DIO_GetPinValue@u8PinIdCopy
  4260  049B  3001               	movlw	1
  4261  049C  120A  118A  24F1  120A  118A  	fcall	_DIO_GetPinValue
  4262  04A1  3A00               	xorlw	0
  4263  04A2  1D03               	skipz
  4264  04A3  2CA5               	goto	u223_21
  4265  04A4  2CA6               	goto	u223_20
  4266  04A5                     u223_21:
  4267  04A5  2CAF               	goto	i1l2985
  4268  04A6                     u223_20:
  4269  04A6                     i1l2983:
  4270                           
  4271                           ;EXT_INT_Prog.c: 102:         {;EXT_INT_Prog.c: 103:             GptrToFun_RB4 () ;
  4272  04A6  1283               	bcf	3,5	;RP0=0, select bank0
  4273  04A7  1303               	bcf	3,6	;RP1=0, select bank0
  4274  04A8  083F               	movf	_GptrToFun_RB4,w
  4275  04A9  120A  118A  2023  120A  118A  	fcall	i1fptable
  4276                           
  4277                           ;EXT_INT_Prog.c: 104:         }
  4278  04AE  2CC6               	goto	i1l2989
  4279  04AF                     i1l2985:
  4280  04AF  3005               	movlw	5
  4281  04B0  00FF               	movwf	btemp+1
  4282  04B1  087F               	movf	btemp+1,w
  4283  04B2  00F0               	movwf	DIO_GetPinValue@u8PinIdCopy
  4284  04B3  3001               	movlw	1
  4285  04B4  120A  118A  24F1  120A  118A  	fcall	_DIO_GetPinValue
  4286  04B9  3A00               	xorlw	0
  4287  04BA  1D03               	skipz
  4288  04BB  2CBD               	goto	u224_21
  4289  04BC  2CBE               	goto	u224_20
  4290  04BD                     u224_21:
  4291  04BD  2CC6               	goto	i1l2989
  4292  04BE                     u224_20:
  4293  04BE                     i1l2987:
  4294                           
  4295                           ;EXT_INT_Prog.c: 107:         {;EXT_INT_Prog.c: 108:             GptrToFun_RB5 () ;
  4296  04BE  1283               	bcf	3,5	;RP0=0, select bank0
  4297  04BF  1303               	bcf	3,6	;RP1=0, select bank0
  4298  04C0  083E               	movf	_GptrToFun_RB5,w
  4299  04C1  120A  118A  2023  120A  118A  	fcall	i1fptable
  4300  04C6                     i1l2989:	
  4301                           ;EXT_INT_Prog.c: 110:         }
  4302                           
  4303                           
  4304                           ;EXT_INT_Prog.c: 115:         ((*((volatile u8*)0x0B))) &= ~(1 << (0)) ;
  4305  04C6  30FE               	movlw	254
  4306  04C7  00FF               	movwf	btemp+1
  4307  04C8  087F               	movf	btemp+1,w
  4308  04C9  058B               	andwf	11,f	;volatile
  4309                           
  4310                           ;EXT_INT_Prog.c: 117:     }
  4311  04CA  2CE4               	goto	i1l275
  4312  04CB                     i1l2991:
  4313  04CB  080C               	movf	12,w	;volatile
  4314  04CC  00D4               	movwf	??_ISR
  4315  04CD  3002               	movlw	2
  4316  04CE                     u225_25:
  4317  04CE  1003               	clrc
  4318  04CF  0CD4               	rrf	??_ISR,f
  4319  04D0  3EFF               	addlw	-1
  4320  04D1  1D03               	skipz
  4321  04D2  2CCE               	goto	u225_25
  4322  04D3  1C54               	btfss	??_ISR,0
  4323  04D4  2CD6               	goto	u226_21
  4324  04D5  2CD7               	goto	u226_20
  4325  04D6                     u226_21:
  4326  04D6  2CE4               	goto	i1l272
  4327  04D7                     u226_20:
  4328  04D7                     i1l2993:
  4329                           
  4330                           ;EXT_INT_Prog.c: 119:     {;EXT_INT_Prog.c: 120:         Global_pFn () ;
  4331  04D7  0841               	movf	_Global_pFn,w
  4332  04D8  120A  118A  2023  120A  118A  	fcall	i1fptable
  4333  04DD                     i1l2995:
  4334                           
  4335                           ;EXT_INT_Prog.c: 121:         ((*((volatile u8*)0x0C))) &= ~(1 << (2)) ;
  4336  04DD  30FB               	movlw	251
  4337  04DE  00FF               	movwf	btemp+1
  4338  04DF  087F               	movf	btemp+1,w
  4339  04E0  1283               	bcf	3,5	;RP0=0, select bank0
  4340  04E1  1303               	bcf	3,6	;RP1=0, select bank0
  4341  04E2  058C               	andwf	12,f	;volatile
  4342                           
  4343                           ;EXT_INT_Prog.c: 123:     }
  4344  04E3  2CE4               	goto	i1l275
  4345  04E4                     i1l272:
  4346  04E4                     i1l275:
  4347  04E4  1283               	bcf	3,5	;RP0=0, select bank0
  4348  04E5  1303               	bcf	3,6	;RP1=0, select bank0
  4349  04E6  0858               	movf	??_ISR+4,w
  4350  04E7  00FF               	movwf	btemp+1
  4351  04E8  0857               	movf	??_ISR+3,w
  4352  04E9  008A               	movwf	10
  4353  04EA  0856               	movf	??_ISR+2,w
  4354  04EB  0084               	movwf	4
  4355  04EC  0E55               	swapf	(??_ISR+1)^0,w
  4356  04ED  0083               	movwf	3
  4357  04EE  0EFE               	swapf	btemp,f
  4358  04EF  0E7E               	swapf	btemp,w
  4359  04F0  0009               	retfie
  4360  04F1                     __end_of_ISR:
  4361                           
  4362                           	psect	intentry
  4363  0004                     __pintentry:	
  4364                           ;incstack = 0
  4365 ;; hardware stack exceeded
  4366                           ; Regs used in _ISR: [wreg-fsr0h+status,2+status,0+btemp+1+pclath+cstack]
  4367                           
  4368  0004                     interrupt_function:
  4369  007E                     saved_w	set	btemp
  4370  0004  00FE               	movwf	btemp
  4371  0005  0E03               	swapf	3,w
  4372  0006  1283               	bcf	3,5	;RP0=0, select bank0
  4373  0007  1303               	bcf	3,6	;RP1=0, select bank0
  4374  0008  00D5               	movwf	??_ISR+1
  4375  0009  0804               	movf	4,w
  4376  000A  00D6               	movwf	??_ISR+2
  4377  000B  080A               	movf	10,w
  4378  000C  00D7               	movwf	??_ISR+3
  4379  000D  087F               	movf	btemp+1,w
  4380  000E  00D8               	movwf	??_ISR+4
  4381  000F  120A  118A  2C7C   	ljmp	_ISR
  4382                           
  4383                           	psect	text33
  4384  037B                     __ptext33:	
  4385 ;; *************** function _RTO_vid_StartSchedular *****************
  4386 ;; Defined at:
  4387 ;;		line 49 in file "RTO_Prog.c"
  4388 ;; Parameters:    Size  Location     Type
  4389 ;;		None
  4390 ;; Auto vars:     Size  Location     Type
  4391 ;;  u8_TCB_Count    1   10[BANK0 ] unsigned char 
  4392 ;; Return value:  Size  Location     Type
  4393 ;;                  1    wreg      void 
  4394 ;; Registers used:
  4395 ;;		wreg, fsr0l, fsr0h, status,2, status,0, btemp+1, pclath, cstack
  4396 ;; Tracked objects:
  4397 ;;		On entry : 0/0
  4398 ;;		On exit  : 0/0
  4399 ;;		Unchanged: 0/0
  4400 ;; Data sizes:     COMMON   BANK0   BANK1   BANK3   BANK2
  4401 ;;      Params:         0       0       0       0       0
  4402 ;;      Locals:         0       1       0       0       0
  4403 ;;      Temps:          0       4       0       0       0
  4404 ;;      Totals:         0       5       0       0       0
  4405 ;;Total ram usage:        5 bytes
  4406 ;; Hardware stack levels used:    1
  4407 ;; Hardware stack levels required when called:    5
  4408 ;; This function calls:
  4409 ;;		_RedLed_TOG
  4410 ;;		_System_Power
  4411 ;;		_Temp_ControlWaterTemp
  4412 ;;		i1___bmul
  4413 ;; This function is called by:
  4414 ;;		_RTO_Init
  4415 ;;		_ISR
  4416 ;; This function uses a non-reentrant model
  4417 ;;
  4418                           
  4419                           
  4420                           ;psect for function _RTO_vid_StartSchedular
  4421  037B                     _RTO_vid_StartSchedular:
  4422  037B                     i1l2959:	
  4423                           ;incstack = 0
  4424 ;; hardware stack exceeded
  4425                           ; Regs used in _RTO_vid_StartSchedular: [wreg-fsr0h+status,2+status,0+btemp+1+pclath+cst
      +                          ack]
  4426                           
  4427                           
  4428                           ;RTO_Prog.c: 51:  u8 u8_TCB_Counter =0;
  4429  037B  1283               	bcf	3,5	;RP0=0, select bank0
  4430  037C  1303               	bcf	3,6	;RP1=0, select bank0
  4431  037D  01D3               	clrf	RTO_vid_StartSchedular@u8_TCB_Counter
  4432                           
  4433                           ;RTO_Prog.c: 52:  for (u8_TCB_Counter = 0 ;u8_TCB_Counter<3 ; u8_TCB_Counter ++ )
  4434  037E  01D3               	clrf	RTO_vid_StartSchedular@u8_TCB_Counter
  4435  037F                     i1l2965:
  4436                           
  4437                           ;RTO_Prog.c: 53:  {;RTO_Prog.c: 54:   if ( (Tasks[u8_TCB_Counter].u16_FirstDelay)== 0)
  4438  037F  3005               	movlw	5
  4439  0380  00FF               	movwf	btemp+1
  4440  0381  087F               	movf	btemp+1,w
  4441  0382  00F0               	movwf	i1___bmul@multiplicand
  4442  0383  0853               	movf	RTO_vid_StartSchedular@u8_TCB_Counter,w
  4443  0384  120A  158A  24D4  120A  118A  	fcall	i1___bmul
  4444  0389  3E22               	addlw	(low ((_Tasks| 0+2)))& (0+255)
  4445  038A  0084               	movwf	4
  4446  038B  1383               	bcf	3,7	;select IRP bank0
  4447  038C  0800               	movf	0,w
  4448  038D  1283               	bcf	3,5	;RP0=0, select bank0
  4449  038E  1303               	bcf	3,6	;RP1=0, select bank0
  4450  038F  00CF               	movwf	??_RTO_vid_StartSchedular
  4451  0390  0A84               	incf	4,f
  4452  0391  0800               	movf	0,w
  4453  0392  00D0               	movwf	??_RTO_vid_StartSchedular+1
  4454  0393  084F               	movf	??_RTO_vid_StartSchedular,w
  4455  0394  0450               	iorwf	??_RTO_vid_StartSchedular+1,w
  4456  0395  1D03               	btfss	3,2
  4457  0396  2B98               	goto	u218_21
  4458  0397  2B99               	goto	u218_20
  4459  0398                     u218_21:
  4460  0398  2BDF               	goto	i1l2969
  4461  0399                     u218_20:
  4462  0399                     i1l2967:
  4463                           
  4464                           ;RTO_Prog.c: 55:   {;RTO_Prog.c: 57:    Tasks[u8_TCB_Counter].pFn() ;
  4465  0399  3005               	movlw	5
  4466  039A  00FF               	movwf	btemp+1
  4467  039B  087F               	movf	btemp+1,w
  4468  039C  00F0               	movwf	i1___bmul@multiplicand
  4469  039D  0853               	movf	RTO_vid_StartSchedular@u8_TCB_Counter,w
  4470  039E  120A  158A  24D4  120A  118A  	fcall	i1___bmul
  4471  03A3  3E24               	addlw	(low ((_Tasks| 0+4)))& (0+255)
  4472  03A4  0084               	movwf	4
  4473  03A5  1383               	bcf	3,7	;select IRP bank0
  4474  03A6  0800               	movf	0,w
  4475  03A7  120A  118A  2023  120A  118A  	fcall	i1fptable
  4476                           
  4477                           ;RTO_Prog.c: 61:    Tasks[u8_TCB_Counter].u16_FirstDelay = ( Tasks[u8_TCB_Counter].u16_P
      +                          eriocicity ) -1 ;
  4478  03AC  3005               	movlw	5
  4479  03AD  00FF               	movwf	btemp+1
  4480  03AE  087F               	movf	btemp+1,w
  4481  03AF  00F0               	movwf	i1___bmul@multiplicand
  4482  03B0  1283               	bcf	3,5	;RP0=0, select bank0
  4483  03B1  1303               	bcf	3,6	;RP1=0, select bank0
  4484  03B2  0853               	movf	RTO_vid_StartSchedular@u8_TCB_Counter,w
  4485  03B3  120A  158A  24D4  120A  118A  	fcall	i1___bmul
  4486  03B8  3E20               	addlw	(low (_Tasks| 0))& (0+255)
  4487  03B9  0084               	movwf	4
  4488  03BA  1383               	bcf	3,7	;select IRP bank0
  4489  03BB  0800               	movf	0,w
  4490  03BC  1283               	bcf	3,5	;RP0=0, select bank0
  4491  03BD  1303               	bcf	3,6	;RP1=0, select bank0
  4492  03BE  00CF               	movwf	??_RTO_vid_StartSchedular
  4493  03BF  0A84               	incf	4,f
  4494  03C0  0800               	movf	0,w
  4495  03C1  00D0               	movwf	??_RTO_vid_StartSchedular+1
  4496  03C2  084F               	movf	??_RTO_vid_StartSchedular,w
  4497  03C3  3EFF               	addlw	255
  4498  03C4  00D1               	movwf	??_RTO_vid_StartSchedular+2
  4499  03C5  0850               	movf	??_RTO_vid_StartSchedular+1,w
  4500  03C6  1803               	skipnc
  4501  03C7  3E01               	addlw	1
  4502  03C8  3EFF               	addlw	255
  4503  03C9  00D2               	movwf	??_RTO_vid_StartSchedular+3
  4504  03CA  3005               	movlw	5
  4505  03CB  00FF               	movwf	btemp+1
  4506  03CC  087F               	movf	btemp+1,w
  4507  03CD  00F0               	movwf	i1___bmul@multiplicand
  4508  03CE  0853               	movf	RTO_vid_StartSchedular@u8_TCB_Counter,w
  4509  03CF  120A  158A  24D4  120A  118A  	fcall	i1___bmul
  4510  03D4  3E22               	addlw	(low ((_Tasks| 0+2)))& (0+255)
  4511  03D5  0084               	movwf	4
  4512  03D6  1283               	bcf	3,5	;RP0=0, select bank0
  4513  03D7  1303               	bcf	3,6	;RP1=0, select bank0
  4514  03D8  0851               	movf	??_RTO_vid_StartSchedular+2,w
  4515  03D9  1383               	bcf	3,7	;select IRP bank0
  4516  03DA  0080               	movwf	0
  4517  03DB  0A84               	incf	4,f
  4518  03DC  0852               	movf	??_RTO_vid_StartSchedular+3,w
  4519  03DD  0080               	movwf	0
  4520                           
  4521                           ;RTO_Prog.c: 64:   }
  4522  03DE  2BF4               	goto	i1l2971
  4523  03DF                     i1l2969:
  4524                           
  4525                           ;RTO_Prog.c: 66:   {;RTO_Prog.c: 67:    ( Tasks[u8_TCB_Counter].u16_FirstDelay ) -- ;
  4526  03DF  3005               	movlw	5
  4527  03E0  00FF               	movwf	btemp+1
  4528  03E1  087F               	movf	btemp+1,w
  4529  03E2  00F0               	movwf	i1___bmul@multiplicand
  4530  03E3  0853               	movf	RTO_vid_StartSchedular@u8_TCB_Counter,w
  4531  03E4  120A  158A  24D4  120A  118A  	fcall	i1___bmul
  4532  03E9  3E22               	addlw	(low ((_Tasks| 0+2)))& (0+255)
  4533  03EA  0084               	movwf	4
  4534  03EB  3001               	movlw	1
  4535  03EC  1383               	bcf	3,7	;select IRP bank0
  4536  03ED  0280               	subwf	0,f
  4537  03EE  0F84               	incfsz	4,f
  4538  03EF  3000               	movlw	0
  4539  03F0  1C03               	skipc
  4540  03F1  0380               	decf	0,f
  4541  03F2  0280               	subwf	0,f
  4542  03F3  0384               	decf	4,f
  4543  03F4                     i1l2971:
  4544                           
  4545                           ;RTO_Prog.c: 71:  }
  4546  03F4  3001               	movlw	1
  4547  03F5  00FF               	movwf	btemp+1
  4548  03F6  087F               	movf	btemp+1,w
  4549  03F7  1283               	bcf	3,5	;RP0=0, select bank0
  4550  03F8  1303               	bcf	3,6	;RP1=0, select bank0
  4551  03F9  07D3               	addwf	RTO_vid_StartSchedular@u8_TCB_Counter,f
  4552  03FA                     i1l2973:
  4553  03FA  3003               	movlw	3
  4554  03FB  0253               	subwf	RTO_vid_StartSchedular@u8_TCB_Counter,w
  4555  03FC  1C03               	skipc
  4556  03FD  2BFF               	goto	u219_21
  4557  03FE  2C00               	goto	u219_20
  4558  03FF                     u219_21:
  4559  03FF  2B7F               	goto	i1l2965
  4560  0400                     u219_20:
  4561  0400                     i1l438:
  4562  0400  0008               	return
  4563  0401                     __end_of_RTO_vid_StartSchedular:
  4564                           
  4565                           	psect	text34
  4566  0CD4                     __ptext34:	
  4567 ;; *************** function i1___bmul *****************
  4568 ;; Defined at:
  4569 ;;		line 4 in file "C:\Program Files\Microchip\xc8\v2.20\pic\sources\c90\common\Umul8.c"
  4570 ;; Parameters:    Size  Location     Type
  4571 ;;  multiplier      1    wreg     unsigned char 
  4572 ;;  multiplicand    1    0[COMMON] unsigned char 
  4573 ;; Auto vars:     Size  Location     Type
  4574 ;;  multiplier      1    2[COMMON] unsigned char 
  4575 ;;  product         1    1[COMMON] unsigned char 
  4576 ;; Return value:  Size  Location     Type
  4577 ;;                  1    wreg      unsigned char 
  4578 ;; Registers used:
  4579 ;;		wreg, status,2, status,0, btemp+1
  4580 ;; Tracked objects:
  4581 ;;		On entry : 0/0
  4582 ;;		On exit  : 0/0
  4583 ;;		Unchanged: 0/0
  4584 ;; Data sizes:     COMMON   BANK0   BANK1   BANK3   BANK2
  4585 ;;      Params:         1       0       0       0       0
  4586 ;;      Locals:         2       0       0       0       0
  4587 ;;      Temps:          0       0       0       0       0
  4588 ;;      Totals:         3       0       0       0       0
  4589 ;;Total ram usage:        3 bytes
  4590 ;; Hardware stack levels used:    1
  4591 ;; This function calls:
  4592 ;;		Nothing
  4593 ;; This function is called by:
  4594 ;;		_RTO_vid_StartSchedular
  4595 ;; This function uses a non-reentrant model
  4596 ;;
  4597                           
  4598                           
  4599                           ;psect for function i1___bmul
  4600  0CD4                     i1___bmul:
  4601                           
  4602                           ;incstack = 0
  4603                           ; Regs used in i1___bmul: [wreg+status,2+status,0+btemp+1]
  4604                           ;i1___bmul@multiplier stored from wreg
  4605  0CD4  00F2               	movwf	i1___bmul@multiplier
  4606  0CD5                     i1l2439:
  4607  0CD5  01F1               	clrf	i1___bmul@product
  4608  0CD6                     i1l2441:
  4609  0CD6  1C72               	btfss	i1___bmul@multiplier,0
  4610  0CD7  2CD9               	goto	u167_21
  4611  0CD8  2CDA               	goto	u167_20
  4612  0CD9                     u167_21:
  4613  0CD9  2CDE               	goto	i1l2445
  4614  0CDA                     u167_20:
  4615  0CDA                     i1l2443:
  4616  0CDA  0870               	movf	i1___bmul@multiplicand,w
  4617  0CDB  00FF               	movwf	btemp+1
  4618  0CDC  087F               	movf	btemp+1,w
  4619  0CDD  07F1               	addwf	i1___bmul@product,f
  4620  0CDE                     i1l2445:
  4621  0CDE  1003               	clrc
  4622  0CDF  0DF0               	rlf	i1___bmul@multiplicand,f
  4623  0CE0                     i1l2447:
  4624  0CE0  1003               	clrc
  4625  0CE1  0CF2               	rrf	i1___bmul@multiplier,f
  4626  0CE2                     i1l2449:
  4627  0CE2  0872               	movf	i1___bmul@multiplier,w
  4628  0CE3  1D03               	btfss	3,2
  4629  0CE4  2CE6               	goto	u168_21
  4630  0CE5  2CE7               	goto	u168_20
  4631  0CE6                     u168_21:
  4632  0CE6  2CD6               	goto	i1l2441
  4633  0CE7                     u168_20:
  4634  0CE7                     i1l2451:
  4635  0CE7  0871               	movf	i1___bmul@product,w
  4636  0CE8                     i1l553:
  4637  0CE8  0008               	return
  4638  0CE9                     __end_ofi1___bmul:
  4639                           
  4640                           	psect	text35
  4641  0D80                     __ptext35:	
  4642 ;; *************** function _System_Power *****************
  4643 ;; Defined at:
  4644 ;;		line 77 in file "APP_Program.c"
  4645 ;; Parameters:    Size  Location     Type
  4646 ;;		None
  4647 ;; Auto vars:     Size  Location     Type
  4648 ;;		None
  4649 ;; Return value:  Size  Location     Type
  4650 ;;                  1    wreg      void 
  4651 ;; Registers used:
  4652 ;;		wreg, fsr0l, fsr0h, status,2, status,0, btemp+1, pclath, cstack
  4653 ;; Tracked objects:
  4654 ;;		On entry : 0/0
  4655 ;;		On exit  : 0/0
  4656 ;;		Unchanged: 0/0
  4657 ;; Data sizes:     COMMON   BANK0   BANK1   BANK3   BANK2
  4658 ;;      Params:         0       0       0       0       0
  4659 ;;      Locals:         0       0       0       0       0
  4660 ;;      Temps:          0       0       0       0       0
  4661 ;;      Totals:         0       0       0       0       0
  4662 ;;Total ram usage:        0 bytes
  4663 ;; Hardware stack levels used:    1
  4664 ;; Hardware stack levels required when called:    4
  4665 ;; This function calls:
  4666 ;;		_ON_Mode
  4667 ;;		_RedLed_TOG
  4668 ;;		i1_OFF_Mode
  4669 ;; This function is called by:
  4670 ;;		_main
  4671 ;;		_RTO_vid_StartSchedular
  4672 ;; This function uses a non-reentrant model
  4673 ;;
  4674                           
  4675                           
  4676                           ;psect for function _System_Power
  4677  0D80                     _System_Power:
  4678  0D80                     i1l2265:	
  4679                           ;incstack = 0
  4680 ;; hardware stack exceeded
  4681                           ; Regs used in _System_Power: [wreg-fsr0h+status,2+status,0+btemp+1+pclath+cstack]
  4682                           
  4683                           
  4684                           ;APP_Program.c: 79:         RedLed_TOG();
  4685  0D80  120A  158A  23A6  120A  158A  	fcall	_RedLed_TOG
  4686  0D85                     i1l2267:
  4687                           
  4688                           ;APP_Program.c: 81:     if (ON_OFF_Status == 1)
  4689  0D85  1283               	bcf	3,5	;RP0=0, select bank0
  4690  0D86  1303               	bcf	3,6	;RP1=0, select bank0
  4691  0D87  0347               	decf	_ON_OFF_Status,w
  4692  0D88  1D03               	btfss	3,2
  4693  0D89  2D8B               	goto	u141_21
  4694  0D8A  2D8C               	goto	u141_20
  4695  0D8B                     u141_21:
  4696  0D8B  2D92               	goto	i1l2271
  4697  0D8C                     u141_20:
  4698  0D8C                     i1l2269:
  4699                           
  4700                           ;APP_Program.c: 82:         {;APP_Program.c: 83:             ON_Mode() ;
  4701  0D8C  120A  158A  241B  120A  158A  	fcall	_ON_Mode
  4702                           
  4703                           ;APP_Program.c: 84:         }
  4704  0D91  2D9C               	goto	i1l71
  4705  0D92                     i1l2271:
  4706  0D92  0847               	movf	_ON_OFF_Status,w
  4707  0D93  1D03               	btfss	3,2
  4708  0D94  2D96               	goto	u142_21
  4709  0D95  2D97               	goto	u142_20
  4710  0D96                     u142_21:
  4711  0D96  2D9C               	goto	i1l71
  4712  0D97                     u142_20:
  4713  0D97                     i1l2273:
  4714                           
  4715                           ;APP_Program.c: 86:         {;APP_Program.c: 87:             OFF_Mode() ;
  4716  0D97  120A  158A  23DC  120A  158A  	fcall	i1_OFF_Mode
  4717  0D9C                     i1l71:	
  4718                           ;APP_Program.c: 88:         }
  4719                           
  4720  0D9C  0008               	return
  4721  0D9D                     __end_of_System_Power:
  4722                           
  4723                           	psect	text36
  4724  0BA6                     __ptext36:	
  4725 ;; *************** function _RedLed_TOG *****************
  4726 ;; Defined at:
  4727 ;;		line 380 in file "APP_Program.c"
  4728 ;; Parameters:    Size  Location     Type
  4729 ;;		None
  4730 ;; Auto vars:     Size  Location     Type
  4731 ;;		None
  4732 ;; Return value:  Size  Location     Type
  4733 ;;                  1    wreg      void 
  4734 ;; Registers used:
  4735 ;;		wreg, status,2, status,0, btemp+1
  4736 ;; Tracked objects:
  4737 ;;		On entry : 0/0
  4738 ;;		On exit  : 0/0
  4739 ;;		Unchanged: 0/0
  4740 ;; Data sizes:     COMMON   BANK0   BANK1   BANK3   BANK2
  4741 ;;      Params:         0       0       0       0       0
  4742 ;;      Locals:         0       0       0       0       0
  4743 ;;      Temps:          0       0       0       0       0
  4744 ;;      Totals:         0       0       0       0       0
  4745 ;;Total ram usage:        0 bytes
  4746 ;; Hardware stack levels used:    1
  4747 ;; This function calls:
  4748 ;;		Nothing
  4749 ;; This function is called by:
  4750 ;;		_System_Power
  4751 ;;		_main
  4752 ;;		_RTO_vid_StartSchedular
  4753 ;; This function uses a non-reentrant model
  4754 ;;
  4755                           
  4756                           
  4757                           ;psect for function _RedLed_TOG
  4758  0BA6                     _RedLed_TOG:
  4759  0BA6                     i1l2111:	
  4760                           ;incstack = 0
  4761                           ; Regs used in _RedLed_TOG: [wreg+status,2+status,0+btemp+1]
  4762                           
  4763                           
  4764                           ;APP_Program.c: 382:     ((*((volatile u8*)0x06))) ^= (1 << (1)) ;
  4765  0BA6  3002               	movlw	2
  4766  0BA7  00FF               	movwf	btemp+1
  4767  0BA8  087F               	movf	btemp+1,w
  4768  0BA9  1283               	bcf	3,5	;RP0=0, select bank0
  4769  0BAA  1303               	bcf	3,6	;RP1=0, select bank0
  4770  0BAB  0686               	xorwf	6,f	;volatile
  4771  0BAC                     i1l154:
  4772  0BAC  0008               	return
  4773  0BAD                     __end_of_RedLed_TOG:
  4774                           
  4775                           	psect	text37
  4776  003E                     __ptext37:	
  4777 ;; *************** function _Temp_ControlWaterTemp *****************
  4778 ;; Defined at:
  4779 ;;		line 303 in file "APP_Program.c"
  4780 ;; Parameters:    Size  Location     Type
  4781 ;;		None
  4782 ;; Auto vars:     Size  Location     Type
  4783 ;;  u8_Temp_Avg     1    5[BANK0 ] unsigned char 
  4784 ;;  iterator        1    4[BANK0 ] unsigned char 
  4785 ;; Return value:  Size  Location     Type
  4786 ;;                  1    wreg      void 
  4787 ;; Registers used:
  4788 ;;		wreg, fsr0l, fsr0h, status,2, status,0, btemp+1, pclath, cstack
  4789 ;; Tracked objects:
  4790 ;;		On entry : 0/0
  4791 ;;		On exit  : 0/0
  4792 ;;		Unchanged: 0/0
  4793 ;; Data sizes:     COMMON   BANK0   BANK1   BANK3   BANK2
  4794 ;;      Params:         0       0       0       0       0
  4795 ;;      Locals:         0       2       0       0       0
  4796 ;;      Temps:          0       4       0       0       0
  4797 ;;      Totals:         0       6       0       0       0
  4798 ;;Total ram usage:        6 bytes
  4799 ;; Hardware stack levels used:    1
  4800 ;; Hardware stack levels required when called:    3
  4801 ;; This function calls:
  4802 ;;		_ADC_Read
  4803 ;;		_Cooler_TurnOff
  4804 ;;		_Cooler_TurnOn
  4805 ;;		_Heater_TurnOff
  4806 ;;		_Heater_TurnOn
  4807 ;;		_YellowLed_TOG
  4808 ;;		___awdiv
  4809 ;;		___lmul
  4810 ;;		___lwdiv
  4811 ;;		_vid_7_Segment_Display_2Digits
  4812 ;; This function is called by:
  4813 ;;		_main
  4814 ;;		_RTO_vid_StartSchedular
  4815 ;; This function uses a non-reentrant model
  4816 ;;
  4817                           
  4818                           
  4819                           ;psect for function _Temp_ControlWaterTemp
  4820  003E                     _Temp_ControlWaterTemp:
  4821  003E                     i1l2873:	
  4822                           ;incstack = 0
  4823 ;; hardware stack exceeded
  4824                           ; Regs used in _Temp_ControlWaterTemp: [wreg-fsr0h+status,2+status,0+btemp+1+pclath+csta
      +                          ck]
  4825                           
  4826                           
  4827                           ;APP_Program.c: 305:     YellowLed_TOG() ;
  4828  003E  120A  158A  239F  120A  118A  	fcall	_YellowLed_TOG
  4829  0043                     i1l2875:
  4830  0043                     i1l2877:
  4831                           
  4832                           ;APP_Program.c: 310:     u8 u8_Temp_Avg = 0 ;
  4833  0043  1283               	bcf	3,5	;RP0=0, select bank0
  4834  0044  1303               	bcf	3,6	;RP1=0, select bank0
  4835  0045  01CE               	clrf	Temp_ControlWaterTemp@u8_Temp_Avg
  4836  0046                     i1l2879:
  4837                           
  4838                           ;APP_Program.c: 312:     if (ON_OFF_Status == 1)
  4839  0046  0347               	decf	_ON_OFF_Status,w
  4840  0047  1D03               	btfss	3,2
  4841  0048  284A               	goto	u205_21
  4842  0049  284B               	goto	u205_20
  4843  004A                     u205_21:
  4844  004A  2928               	goto	i1l148
  4845  004B                     u205_20:
  4846  004B                     i1l2881:
  4847                           
  4848                           ;APP_Program.c: 313:     {;APP_Program.c: 315:     u16_ADC_Read = ADC_Read(2);
  4849  004B  3002               	movlw	2
  4850  004C  120A  158A  26A4  120A  118A  	fcall	_ADC_Read
  4851  0051  0871               	movf	?_ADC_Read+1,w
  4852  0052  1283               	bcf	3,5	;RP0=0, select bank0
  4853  0053  1303               	bcf	3,6	;RP1=0, select bank0
  4854  0054  00BC               	movwf	_u16_ADC_Read+1
  4855  0055  0870               	movf	?_ADC_Read,w
  4856  0056  00BB               	movwf	_u16_ADC_Read
  4857  0057                     i1l2883:
  4858                           
  4859                           ;APP_Program.c: 316:     u16_Voltage = ((u16_ADC_Read * 5000UL) /1024UL ) ;
  4860  0057  083B               	movf	_u16_ADC_Read,w
  4861  0058  00F0               	movwf	___lmul@multiplier
  4862  0059  083C               	movf	_u16_ADC_Read+1,w
  4863  005A  00F1               	movwf	___lmul@multiplier+1
  4864  005B  01F2               	clrf	___lmul@multiplier+2
  4865  005C  01F3               	clrf	___lmul@multiplier+3
  4866  005D  3000               	movlw	0
  4867  005E  00F7               	movwf	___lmul@multiplicand+3
  4868  005F  3000               	movlw	0
  4869  0060  00F6               	movwf	___lmul@multiplicand+2
  4870  0061  3013               	movlw	19
  4871  0062  00F5               	movwf	___lmul@multiplicand+1
  4872  0063  3088               	movlw	136
  4873  0064  00F4               	movwf	___lmul@multiplicand
  4874  0065  120A  118A  26CC  120A  118A  	fcall	___lmul
  4875  006A  0870               	movf	?___lmul,w
  4876  006B  1283               	bcf	3,5	;RP0=0, select bank0
  4877  006C  1303               	bcf	3,6	;RP1=0, select bank0
  4878  006D  00C9               	movwf	??_Temp_ControlWaterTemp
  4879  006E  0871               	movf	?___lmul+1,w
  4880  006F  00CA               	movwf	??_Temp_ControlWaterTemp+1
  4881  0070  0872               	movf	?___lmul+2,w
  4882  0071  00CB               	movwf	??_Temp_ControlWaterTemp+2
  4883  0072  0873               	movf	?___lmul+3,w
  4884  0073  00CC               	movwf	??_Temp_ControlWaterTemp+3
  4885  0074  300A               	movlw	10
  4886  0075                     u206_25:
  4887  0075  1003               	clrc
  4888  0076  0CCC               	rrf	??_Temp_ControlWaterTemp+3,f
  4889  0077  0CCB               	rrf	??_Temp_ControlWaterTemp+2,f
  4890  0078  0CCA               	rrf	??_Temp_ControlWaterTemp+1,f
  4891  0079  0CC9               	rrf	??_Temp_ControlWaterTemp,f
  4892  007A                     u206_20:
  4893  007A  3EFF               	addlw	-1
  4894  007B  1D03               	skipz
  4895  007C  2875               	goto	u206_25
  4896  007D  084A               	movf	??_Temp_ControlWaterTemp+1,w
  4897  007E  00BA               	movwf	_u16_Voltage+1
  4898  007F  0849               	movf	??_Temp_ControlWaterTemp,w
  4899  0080  00B9               	movwf	_u16_Voltage
  4900  0081                     i1l2885:
  4901                           
  4902                           ;APP_Program.c: 317:     u8_Water_Temp = (u8) (u16_Voltage / 10 );
  4903  0081  300A               	movlw	10
  4904  0082  00F0               	movwf	___lwdiv@divisor
  4905  0083  3000               	movlw	0
  4906  0084  00F1               	movwf	___lwdiv@divisor+1
  4907  0085  083A               	movf	_u16_Voltage+1,w
  4908  0086  00F3               	movwf	___lwdiv@dividend+1
  4909  0087  0839               	movf	_u16_Voltage,w
  4910  0088  00F2               	movwf	___lwdiv@dividend
  4911  0089  120A  118A  2712  120A  118A  	fcall	___lwdiv
  4912  008E  0870               	movf	?___lwdiv,w
  4913  008F  00FF               	movwf	btemp+1
  4914  0090  087F               	movf	btemp+1,w
  4915  0091  1283               	bcf	3,5	;RP0=0, select bank0
  4916  0092  1303               	bcf	3,6	;RP1=0, select bank0
  4917  0093  00C3               	movwf	_u8_Water_Temp
  4918  0094                     i1l2887:
  4919                           
  4920                           ;APP_Program.c: 319:     u8_arr_Temp[u8_Counter] = u8_Water_Temp ;
  4921  0094  0843               	movf	_u8_Water_Temp,w
  4922  0095  00FF               	movwf	btemp+1
  4923  0096  0842               	movf	Temp_ControlWaterTemp@u8_Counter,w
  4924  0097  3E2F               	addlw	(low (Temp_ControlWaterTemp@u8_arr_Temp| 0))& (0+255)
  4925  0098  0084               	movwf	4
  4926  0099  087F               	movf	btemp+1,w
  4927  009A  1383               	bcf	3,7	;select IRP bank0
  4928  009B  0080               	movwf	0
  4929  009C                     i1l2889:
  4930                           
  4931                           ;APP_Program.c: 320:     u8_Counter ++ ;
  4932  009C  3001               	movlw	1
  4933  009D  00FF               	movwf	btemp+1
  4934  009E  087F               	movf	btemp+1,w
  4935  009F  07C2               	addwf	Temp_ControlWaterTemp@u8_Counter,f
  4936  00A0                     i1l2891:
  4937                           
  4938                           ;APP_Program.c: 321:     if (u8_Counter == 10 )
  4939  00A0  300A               	movlw	10
  4940  00A1  0642               	xorwf	Temp_ControlWaterTemp@u8_Counter,w
  4941  00A2  1D03               	btfss	3,2
  4942  00A3  28A5               	goto	u207_21
  4943  00A4  28A6               	goto	u207_20
  4944  00A5                     u207_21:
  4945  00A5  2920               	goto	i1l2917
  4946  00A6                     u207_20:
  4947  00A6                     i1l2893:
  4948                           
  4949                           ;APP_Program.c: 322:     {;APP_Program.c: 323:         u8_Counter = 0 ;
  4950  00A6  01C2               	clrf	Temp_ControlWaterTemp@u8_Counter
  4951                           
  4952                           ;APP_Program.c: 325:         for ( iterator = 0 ; iterator < 10 ; iterator ++ )
  4953  00A7  01CD               	clrf	Temp_ControlWaterTemp@iterator
  4954  00A8                     i1l2899:
  4955                           
  4956                           ;APP_Program.c: 326:         {;APP_Program.c: 328:             u8_Temp_Avg = u8_Temp_Avg
      +                           + u8_arr_Temp[iterator] ;
  4957  00A8  084D               	movf	Temp_ControlWaterTemp@iterator,w
  4958  00A9  3E2F               	addlw	(low (Temp_ControlWaterTemp@u8_arr_Temp| 0))& (0+255)
  4959  00AA  0084               	movwf	4
  4960  00AB  084E               	movf	Temp_ControlWaterTemp@u8_Temp_Avg,w
  4961  00AC  0700               	addwf	0,w
  4962  00AD  00FF               	movwf	btemp+1
  4963  00AE  087F               	movf	btemp+1,w
  4964  00AF  00CE               	movwf	Temp_ControlWaterTemp@u8_Temp_Avg
  4965  00B0                     i1l2901:
  4966                           
  4967                           ;APP_Program.c: 329:         }
  4968  00B0  3001               	movlw	1
  4969  00B1  00FF               	movwf	btemp+1
  4970  00B2  087F               	movf	btemp+1,w
  4971  00B3  07CD               	addwf	Temp_ControlWaterTemp@iterator,f
  4972  00B4                     i1l2903:
  4973  00B4  300A               	movlw	10
  4974  00B5  024D               	subwf	Temp_ControlWaterTemp@iterator,w
  4975  00B6  1C03               	skipc
  4976  00B7  28B9               	goto	u208_21
  4977  00B8  28BA               	goto	u208_20
  4978  00B9                     u208_21:
  4979  00B9  28A8               	goto	i1l2899
  4980  00BA                     u208_20:
  4981  00BA                     i1l2905:
  4982                           
  4983                           ;APP_Program.c: 331:         u8_Temp_Avg = u8_Temp_Avg / 10 ;
  4984  00BA  300A               	movlw	10
  4985  00BB  00F0               	movwf	___awdiv@divisor
  4986  00BC  3000               	movlw	0
  4987  00BD  00F1               	movwf	___awdiv@divisor+1
  4988  00BE  084E               	movf	Temp_ControlWaterTemp@u8_Temp_Avg,w
  4989  00BF  00C9               	movwf	??_Temp_ControlWaterTemp
  4990  00C0  01CA               	clrf	??_Temp_ControlWaterTemp+1
  4991  00C1  0849               	movf	??_Temp_ControlWaterTemp,w
  4992  00C2  00F2               	movwf	___awdiv@dividend
  4993  00C3  084A               	movf	??_Temp_ControlWaterTemp+1,w
  4994  00C4  00F3               	movwf	___awdiv@dividend+1
  4995  00C5  120A  118A  255F  120A  118A  	fcall	___awdiv
  4996  00CA  0870               	movf	?___awdiv,w
  4997  00CB  00FF               	movwf	btemp+1
  4998  00CC  087F               	movf	btemp+1,w
  4999  00CD  1283               	bcf	3,5	;RP0=0, select bank0
  5000  00CE  1303               	bcf	3,6	;RP1=0, select bank0
  5001  00CF  00CE               	movwf	Temp_ControlWaterTemp@u8_Temp_Avg
  5002  00D0                     i1l2907:
  5003                           
  5004                           ;APP_Program.c: 334:         if ( (u8_Temp_Avg - u8_Temp_Set ) >= 5)
  5005  00D0  084E               	movf	Temp_ControlWaterTemp@u8_Temp_Avg,w
  5006  00D1  00C9               	movwf	??_Temp_ControlWaterTemp
  5007  00D2  01CA               	clrf	??_Temp_ControlWaterTemp+1
  5008  00D3  084A               	movf	??_Temp_ControlWaterTemp+1,w
  5009  00D4  00CC               	movwf	??_Temp_ControlWaterTemp+3
  5010  00D5  0848               	movf	_u8_Temp_Set,w
  5011  00D6  0249               	subwf	??_Temp_ControlWaterTemp,w
  5012  00D7  00CB               	movwf	??_Temp_ControlWaterTemp+2
  5013  00D8  1C03               	skipc
  5014  00D9  03CC               	decf	??_Temp_ControlWaterTemp+3,f
  5015  00DA  084C               	movf	??_Temp_ControlWaterTemp+3,w
  5016  00DB  3A80               	xorlw	128
  5017  00DC  00FF               	movwf	btemp+1
  5018  00DD  3080               	movlw	128
  5019  00DE  027F               	subwf	btemp+1,w
  5020  00DF  1D03               	skipz
  5021  00E0  28E3               	goto	u209_25
  5022  00E1  3005               	movlw	5
  5023  00E2  024B               	subwf	??_Temp_ControlWaterTemp+2,w
  5024  00E3                     u209_25:
  5025  00E3  1C03               	skipc
  5026  00E4  28E6               	goto	u209_21
  5027  00E5  28E7               	goto	u209_20
  5028  00E6                     u209_21:
  5029  00E6  28F2               	goto	i1l2911
  5030  00E7                     u209_20:
  5031  00E7                     i1l2909:
  5032                           
  5033                           ;APP_Program.c: 335:         {;APP_Program.c: 336:              Cooler_TurnOn() ;
  5034  00E7  120A  158A  2458  120A  118A  	fcall	_Cooler_TurnOn
  5035                           
  5036                           ;APP_Program.c: 337:              Heater_TurnOff() ;
  5037  00EC  120A  158A  2432  120A  118A  	fcall	_Heater_TurnOff
  5038                           
  5039                           ;APP_Program.c: 338:         }
  5040  00F1  2920               	goto	i1l2917
  5041  00F2                     i1l2911:
  5042  00F2  1283               	bcf	3,5	;RP0=0, select bank0
  5043  00F3  1303               	bcf	3,6	;RP1=0, select bank0
  5044  00F4  0848               	movf	_u8_Temp_Set,w
  5045  00F5  00C9               	movwf	??_Temp_ControlWaterTemp
  5046  00F6  01CA               	clrf	??_Temp_ControlWaterTemp+1
  5047  00F7  084A               	movf	??_Temp_ControlWaterTemp+1,w
  5048  00F8  00CC               	movwf	??_Temp_ControlWaterTemp+3
  5049  00F9  084E               	movf	Temp_ControlWaterTemp@u8_Temp_Avg,w
  5050  00FA  0249               	subwf	??_Temp_ControlWaterTemp,w
  5051  00FB  00CB               	movwf	??_Temp_ControlWaterTemp+2
  5052  00FC  1C03               	skipc
  5053  00FD  03CC               	decf	??_Temp_ControlWaterTemp+3,f
  5054  00FE  084C               	movf	??_Temp_ControlWaterTemp+3,w
  5055  00FF  3A80               	xorlw	128
  5056  0100  00FF               	movwf	btemp+1
  5057  0101  3080               	movlw	128
  5058  0102  027F               	subwf	btemp+1,w
  5059  0103  1D03               	skipz
  5060  0104  2907               	goto	u210_25
  5061  0105  3005               	movlw	5
  5062  0106  024B               	subwf	??_Temp_ControlWaterTemp+2,w
  5063  0107                     u210_25:
  5064  0107  1C03               	skipc
  5065  0108  290A               	goto	u210_21
  5066  0109  290B               	goto	u210_20
  5067  010A                     u210_21:
  5068  010A  2916               	goto	i1l2915
  5069  010B                     u210_20:
  5070  010B                     i1l2913:
  5071                           
  5072                           ;APP_Program.c: 340:         {;APP_Program.c: 341:              Heater_TurnOn() ;
  5073  010B  120A  158A  2465  120A  118A  	fcall	_Heater_TurnOn
  5074                           
  5075                           ;APP_Program.c: 342:              Cooler_TurnOff() ;
  5076  0110  120A  158A  2426  120A  118A  	fcall	_Cooler_TurnOff
  5077                           
  5078                           ;APP_Program.c: 343:         }
  5079  0115  2920               	goto	i1l2917
  5080  0116                     i1l2915:
  5081                           
  5082                           ;APP_Program.c: 345:         {;APP_Program.c: 346:              Cooler_TurnOff() ;
  5083  0116  120A  158A  2426  120A  118A  	fcall	_Cooler_TurnOff
  5084                           
  5085                           ;APP_Program.c: 347:              Heater_TurnOff() ;
  5086  011B  120A  158A  2432  120A  118A  	fcall	_Heater_TurnOff
  5087  0120                     i1l2917:
  5088                           
  5089                           ;APP_Program.c: 357:             vid_7_Segment_Display_2Digits(u8_Water_Temp) ;
  5090  0120  1283               	bcf	3,5	;RP0=0, select bank0
  5091  0121  1303               	bcf	3,6	;RP1=0, select bank0
  5092  0122  0843               	movf	_u8_Water_Temp,w
  5093  0123  120A  118A  25C6  120A  118A  	fcall	_vid_7_Segment_Display_2Digits
  5094  0128                     i1l148:	
  5095                           ;APP_Program.c: 358:     }
  5096                           
  5097  0128  0008               	return
  5098  0129                     __end_of_Temp_ControlWaterTemp:
  5099                           
  5100                           	psect	text38
  5101  0712                     __ptext38:	
  5102 ;; *************** function ___lwdiv *****************
  5103 ;; Defined at:
  5104 ;;		line 5 in file "C:\Program Files\Microchip\xc8\v2.20\pic\sources\c90\common\lwdiv.c"
  5105 ;; Parameters:    Size  Location     Type
  5106 ;;  divisor         2    0[COMMON] unsigned int 
  5107 ;;  dividend        2    2[COMMON] unsigned int 
  5108 ;; Auto vars:     Size  Location     Type
  5109 ;;  quotient        2    4[COMMON] unsigned int 
  5110 ;;  counter         1    6[COMMON] unsigned char 
  5111 ;; Return value:  Size  Location     Type
  5112 ;;                  2    0[COMMON] unsigned int 
  5113 ;; Registers used:
  5114 ;;		wreg, status,2, status,0, btemp+1
  5115 ;; Tracked objects:
  5116 ;;		On entry : 0/0
  5117 ;;		On exit  : 0/0
  5118 ;;		Unchanged: 0/0
  5119 ;; Data sizes:     COMMON   BANK0   BANK1   BANK3   BANK2
  5120 ;;      Params:         4       0       0       0       0
  5121 ;;      Locals:         3       0       0       0       0
  5122 ;;      Temps:          0       0       0       0       0
  5123 ;;      Totals:         7       0       0       0       0
  5124 ;;Total ram usage:        7 bytes
  5125 ;; Hardware stack levels used:    1
  5126 ;; This function calls:
  5127 ;;		Nothing
  5128 ;; This function is called by:
  5129 ;;		_Temp_ControlWaterTemp
  5130 ;; This function uses a non-reentrant model
  5131 ;;
  5132                           
  5133                           
  5134                           ;psect for function ___lwdiv
  5135  0712                     ___lwdiv:
  5136  0712                     i1l2847:	
  5137                           ;incstack = 0
  5138                           ; Regs used in ___lwdiv: [wreg+status,2+status,0+btemp+1]
  5139                           
  5140  0712  01F4               	clrf	___lwdiv@quotient
  5141  0713  01F5               	clrf	___lwdiv@quotient+1
  5142  0714                     i1l2849:
  5143  0714  0870               	movf	___lwdiv@divisor,w
  5144  0715  0471               	iorwf	___lwdiv@divisor+1,w
  5145  0716  1903               	btfsc	3,2
  5146  0717  2F19               	goto	u198_21
  5147  0718  2F1A               	goto	u198_20
  5148  0719                     u198_21:
  5149  0719  2F51               	goto	i1l2869
  5150  071A                     u198_20:
  5151  071A                     i1l2851:
  5152  071A  01F6               	clrf	___lwdiv@counter
  5153  071B  0AF6               	incf	___lwdiv@counter,f
  5154  071C  2F28               	goto	i1l2857
  5155  071D                     i1l2853:
  5156  071D  3001               	movlw	1
  5157  071E                     u199_25:
  5158  071E  1003               	clrc
  5159  071F  0DF0               	rlf	___lwdiv@divisor,f
  5160  0720  0DF1               	rlf	___lwdiv@divisor+1,f
  5161  0721  3EFF               	addlw	-1
  5162  0722  1D03               	skipz
  5163  0723  2F1E               	goto	u199_25
  5164  0724                     i1l2855:
  5165  0724  3001               	movlw	1
  5166  0725  00FF               	movwf	btemp+1
  5167  0726  087F               	movf	btemp+1,w
  5168  0727  07F6               	addwf	___lwdiv@counter,f
  5169  0728                     i1l2857:
  5170  0728  1FF1               	btfss	___lwdiv@divisor+1,7
  5171  0729  2F2B               	goto	u200_21
  5172  072A  2F2C               	goto	u200_20
  5173  072B                     u200_21:
  5174  072B  2F1D               	goto	i1l2853
  5175  072C                     u200_20:
  5176  072C                     i1l2859:
  5177  072C  3001               	movlw	1
  5178  072D                     u201_25:
  5179  072D  1003               	clrc
  5180  072E  0DF4               	rlf	___lwdiv@quotient,f
  5181  072F  0DF5               	rlf	___lwdiv@quotient+1,f
  5182  0730  3EFF               	addlw	-1
  5183  0731  1D03               	skipz
  5184  0732  2F2D               	goto	u201_25
  5185  0733  0871               	movf	___lwdiv@divisor+1,w
  5186  0734  0273               	subwf	___lwdiv@dividend+1,w
  5187  0735  1D03               	skipz
  5188  0736  2F39               	goto	u202_25
  5189  0737  0870               	movf	___lwdiv@divisor,w
  5190  0738  0272               	subwf	___lwdiv@dividend,w
  5191  0739                     u202_25:
  5192  0739  1C03               	skipc
  5193  073A  2F3C               	goto	u202_21
  5194  073B  2F3D               	goto	u202_20
  5195  073C                     u202_21:
  5196  073C  2F44               	goto	i1l2865
  5197  073D                     u202_20:
  5198  073D                     i1l2861:
  5199  073D  0870               	movf	___lwdiv@divisor,w
  5200  073E  02F2               	subwf	___lwdiv@dividend,f
  5201  073F  0871               	movf	___lwdiv@divisor+1,w
  5202  0740  1C03               	skipc
  5203  0741  03F3               	decf	___lwdiv@dividend+1,f
  5204  0742  02F3               	subwf	___lwdiv@dividend+1,f
  5205  0743                     i1l2863:
  5206  0743  1474               	bsf	___lwdiv@quotient,0
  5207  0744                     i1l2865:
  5208  0744  3001               	movlw	1
  5209  0745                     u203_25:
  5210  0745  1003               	clrc
  5211  0746  0CF1               	rrf	___lwdiv@divisor+1,f
  5212  0747  0CF0               	rrf	___lwdiv@divisor,f
  5213  0748  3EFF               	addlw	-1
  5214  0749  1D03               	skipz
  5215  074A  2F45               	goto	u203_25
  5216  074B                     i1l2867:
  5217  074B  3001               	movlw	1
  5218  074C  02F6               	subwf	___lwdiv@counter,f
  5219  074D  1D03               	btfss	3,2
  5220  074E  2F50               	goto	u204_21
  5221  074F  2F51               	goto	u204_20
  5222  0750                     u204_21:
  5223  0750  2F2C               	goto	i1l2859
  5224  0751                     u204_20:
  5225  0751                     i1l2869:
  5226  0751  0875               	movf	___lwdiv@quotient+1,w
  5227  0752  00F1               	movwf	?___lwdiv+1
  5228  0753  0874               	movf	___lwdiv@quotient,w
  5229  0754  00F0               	movwf	?___lwdiv
  5230  0755                     i1l799:
  5231  0755  0008               	return
  5232  0756                     __end_of___lwdiv:
  5233                           
  5234                           	psect	text39
  5235  06CC                     __ptext39:	
  5236 ;; *************** function ___lmul *****************
  5237 ;; Defined at:
  5238 ;;		line 15 in file "C:\Program Files\Microchip\xc8\v2.20\pic\sources\c90\common\Umul32.c"
  5239 ;; Parameters:    Size  Location     Type
  5240 ;;  multiplier      4    0[COMMON] unsigned long 
  5241 ;;  multiplicand    4    4[COMMON] unsigned long 
  5242 ;; Auto vars:     Size  Location     Type
  5243 ;;  product         4    9[COMMON] unsigned long 
  5244 ;; Return value:  Size  Location     Type
  5245 ;;                  4    0[COMMON] unsigned long 
  5246 ;; Registers used:
  5247 ;;		wreg, status,2, status,0
  5248 ;; Tracked objects:
  5249 ;;		On entry : 0/0
  5250 ;;		On exit  : 0/0
  5251 ;;		Unchanged: 0/0
  5252 ;; Data sizes:     COMMON   BANK0   BANK1   BANK3   BANK2
  5253 ;;      Params:         8       0       0       0       0
  5254 ;;      Locals:         4       0       0       0       0
  5255 ;;      Temps:          1       0       0       0       0
  5256 ;;      Totals:        13       0       0       0       0
  5257 ;;Total ram usage:       13 bytes
  5258 ;; Hardware stack levels used:    1
  5259 ;; This function calls:
  5260 ;;		Nothing
  5261 ;; This function is called by:
  5262 ;;		_Temp_ControlWaterTemp
  5263 ;; This function uses a non-reentrant model
  5264 ;;
  5265                           
  5266                           
  5267                           ;psect for function ___lmul
  5268  06CC                     ___lmul:
  5269  06CC                     i1l2833:	
  5270                           ;incstack = 0
  5271                           ; Regs used in ___lmul: [wreg+status,2+status,0]
  5272                           
  5273  06CC  3000               	movlw	0
  5274  06CD  00FC               	movwf	___lmul@product+3
  5275  06CE  3000               	movlw	0
  5276  06CF  00FB               	movwf	___lmul@product+2
  5277  06D0  3000               	movlw	0
  5278  06D1  00FA               	movwf	___lmul@product+1
  5279  06D2  3000               	movlw	0
  5280  06D3  00F9               	movwf	___lmul@product
  5281  06D4                     i1l2835:
  5282  06D4  1C70               	btfss	___lmul@multiplier,0
  5283  06D5  2ED7               	goto	u193_21
  5284  06D6  2ED8               	goto	u193_20
  5285  06D7                     u193_21:
  5286  06D7  2EEF               	goto	i1l2839
  5287  06D8                     u193_20:
  5288  06D8                     i1l2837:
  5289  06D8  0874               	movf	___lmul@multiplicand,w
  5290  06D9  07F9               	addwf	___lmul@product,f
  5291  06DA  0875               	movf	___lmul@multiplicand+1,w
  5292  06DB  1103               	clrz
  5293  06DC  1803               	skipnc
  5294  06DD  3E01               	addlw	1
  5295  06DE  1903               	skipnz
  5296  06DF  2EE1               	goto	u194_21
  5297  06E0  07FA               	addwf	___lmul@product+1,f
  5298  06E1                     u194_21:
  5299  06E1  0876               	movf	___lmul@multiplicand+2,w
  5300  06E2  1103               	clrz
  5301  06E3  1803               	skipnc
  5302  06E4  3E01               	addlw	1
  5303  06E5  1903               	skipnz
  5304  06E6  2EE8               	goto	u194_22
  5305  06E7  07FB               	addwf	___lmul@product+2,f
  5306  06E8                     u194_22:
  5307  06E8  0877               	movf	___lmul@multiplicand+3,w
  5308  06E9  1103               	clrz
  5309  06EA  1803               	skipnc
  5310  06EB  3E01               	addlw	1
  5311  06EC  1903               	skipnz
  5312  06ED  2EEF               	goto	u194_23
  5313  06EE  07FC               	addwf	___lmul@product+3,f
  5314  06EF                     u194_23:
  5315  06EF                     i1l2839:
  5316  06EF  3001               	movlw	1
  5317  06F0  00F8               	movwf	??___lmul
  5318  06F1                     u195_25:
  5319  06F1  1003               	clrc
  5320  06F2  0DF4               	rlf	___lmul@multiplicand,f
  5321  06F3  0DF5               	rlf	___lmul@multiplicand+1,f
  5322  06F4  0DF6               	rlf	___lmul@multiplicand+2,f
  5323  06F5  0DF7               	rlf	___lmul@multiplicand+3,f
  5324  06F6  0BF8               	decfsz	??___lmul,f
  5325  06F7  2EF1               	goto	u195_25
  5326  06F8                     i1l2841:
  5327  06F8  3001               	movlw	1
  5328  06F9                     u196_25:
  5329  06F9  1003               	clrc
  5330  06FA  0CF3               	rrf	___lmul@multiplier+3,f
  5331  06FB  0CF2               	rrf	___lmul@multiplier+2,f
  5332  06FC  0CF1               	rrf	___lmul@multiplier+1,f
  5333  06FD  0CF0               	rrf	___lmul@multiplier,f
  5334  06FE  3EFF               	addlw	-1
  5335  06FF  1D03               	skipz
  5336  0700  2EF9               	goto	u196_25
  5337  0701  0873               	movf	___lmul@multiplier+3,w
  5338  0702  0472               	iorwf	___lmul@multiplier+2,w
  5339  0703  0471               	iorwf	___lmul@multiplier+1,w
  5340  0704  0470               	iorwf	___lmul@multiplier,w
  5341  0705  1D03               	skipz
  5342  0706  2F08               	goto	u197_21
  5343  0707  2F09               	goto	u197_20
  5344  0708                     u197_21:
  5345  0708  2ED4               	goto	i1l2835
  5346  0709                     u197_20:
  5347  0709                     i1l2843:
  5348  0709  087C               	movf	___lmul@product+3,w
  5349  070A  00F3               	movwf	?___lmul+3
  5350  070B  087B               	movf	___lmul@product+2,w
  5351  070C  00F2               	movwf	?___lmul+2
  5352  070D  087A               	movf	___lmul@product+1,w
  5353  070E  00F1               	movwf	?___lmul+1
  5354  070F  0879               	movf	___lmul@product,w
  5355  0710  00F0               	movwf	?___lmul
  5356  0711                     i1l541:
  5357  0711  0008               	return
  5358  0712                     __end_of___lmul:
  5359                           
  5360                           	psect	text40
  5361  0B9F                     __ptext40:	
  5362 ;; *************** function _YellowLed_TOG *****************
  5363 ;; Defined at:
  5364 ;;		line 388 in file "APP_Program.c"
  5365 ;; Parameters:    Size  Location     Type
  5366 ;;		None
  5367 ;; Auto vars:     Size  Location     Type
  5368 ;;		None
  5369 ;; Return value:  Size  Location     Type
  5370 ;;                  1    wreg      void 
  5371 ;; Registers used:
  5372 ;;		wreg, status,2, status,0, btemp+1
  5373 ;; Tracked objects:
  5374 ;;		On entry : 0/0
  5375 ;;		On exit  : 0/0
  5376 ;;		Unchanged: 0/0
  5377 ;; Data sizes:     COMMON   BANK0   BANK1   BANK3   BANK2
  5378 ;;      Params:         0       0       0       0       0
  5379 ;;      Locals:         0       0       0       0       0
  5380 ;;      Temps:          0       0       0       0       0
  5381 ;;      Totals:         0       0       0       0       0
  5382 ;;Total ram usage:        0 bytes
  5383 ;; Hardware stack levels used:    1
  5384 ;; This function calls:
  5385 ;;		Nothing
  5386 ;; This function is called by:
  5387 ;;		_Temp_ControlWaterTemp
  5388 ;; This function uses a non-reentrant model
  5389 ;;
  5390                           
  5391                           
  5392                           ;psect for function _YellowLed_TOG
  5393  0B9F                     _YellowLed_TOG:
  5394  0B9F                     i1l2171:	
  5395                           ;incstack = 0
  5396                           ; Regs used in _YellowLed_TOG: [wreg+status,2+status,0+btemp+1]
  5397                           
  5398                           
  5399                           ;APP_Program.c: 390:     ((*((volatile u8*)0x06))) ^= (1 << (3)) ;
  5400  0B9F  3008               	movlw	8
  5401  0BA0  00FF               	movwf	btemp+1
  5402  0BA1  087F               	movf	btemp+1,w
  5403  0BA2  1283               	bcf	3,5	;RP0=0, select bank0
  5404  0BA3  1303               	bcf	3,6	;RP1=0, select bank0
  5405  0BA4  0686               	xorwf	6,f	;volatile
  5406  0BA5                     i1l160:
  5407  0BA5  0008               	return
  5408  0BA6                     __end_of_YellowLed_TOG:
  5409                           
  5410                           	psect	text41
  5411  0C65                     __ptext41:	
  5412 ;; *************** function _Heater_TurnOn *****************
  5413 ;; Defined at:
  5414 ;;		line 278 in file "APP_Program.c"
  5415 ;; Parameters:    Size  Location     Type
  5416 ;;		None
  5417 ;; Auto vars:     Size  Location     Type
  5418 ;;		None
  5419 ;; Return value:  Size  Location     Type
  5420 ;;                  1    wreg      void 
  5421 ;; Registers used:
  5422 ;;		wreg, fsr0l, fsr0h, status,2, status,0, btemp+1, pclath, cstack
  5423 ;; Tracked objects:
  5424 ;;		On entry : 0/0
  5425 ;;		On exit  : 0/0
  5426 ;;		Unchanged: 0/0
  5427 ;; Data sizes:     COMMON   BANK0   BANK1   BANK3   BANK2
  5428 ;;      Params:         0       0       0       0       0
  5429 ;;      Locals:         0       0       0       0       0
  5430 ;;      Temps:          0       0       0       0       0
  5431 ;;      Totals:         0       0       0       0       0
  5432 ;;Total ram usage:        0 bytes
  5433 ;; Hardware stack levels used:    1
  5434 ;; Hardware stack levels required when called:    1
  5435 ;; This function calls:
  5436 ;;		i1_DIO_SetPinValue
  5437 ;; This function is called by:
  5438 ;;		_Temp_ControlWaterTemp
  5439 ;; This function uses a non-reentrant model
  5440 ;;
  5441                           
  5442                           
  5443                           ;psect for function _Heater_TurnOn
  5444  0C65                     _Heater_TurnOn:
  5445  0C65                     i1l2167:	
  5446                           ;incstack = 0
  5447 ;; hardware stack exceeded
  5448                           ; Regs used in _Heater_TurnOn: [wreg-fsr0h+status,2+status,0+btemp+1+pclath+cstack]
  5449                           
  5450                           
  5451                           ;APP_Program.c: 280:     DIO_SetPinValue ( 2 , 5 , 1 ) ;
  5452  0C65  3005               	movlw	5
  5453  0C66  00FF               	movwf	btemp+1
  5454  0C67  087F               	movf	btemp+1,w
  5455  0C68  00F0               	movwf	i1DIO_SetPinValue@u8PinIdCopy
  5456  0C69  01F1               	clrf	i1DIO_SetPinValue@u8PinValCopy
  5457  0C6A  0AF1               	incf	i1DIO_SetPinValue@u8PinValCopy,f
  5458  0C6B  3002               	movlw	2
  5459  0C6C  120A  118A  21F5  120A  158A  	fcall	i1_DIO_SetPinValue
  5460  0C71                     i1l125:
  5461  0C71  0008               	return
  5462  0C72                     __end_of_Heater_TurnOn:
  5463                           
  5464                           	psect	text42
  5465  0C32                     __ptext42:	
  5466 ;; *************** function _Heater_TurnOff *****************
  5467 ;; Defined at:
  5468 ;;		line 285 in file "APP_Program.c"
  5469 ;; Parameters:    Size  Location     Type
  5470 ;;		None
  5471 ;; Auto vars:     Size  Location     Type
  5472 ;;		None
  5473 ;; Return value:  Size  Location     Type
  5474 ;;                  1    wreg      void 
  5475 ;; Registers used:
  5476 ;;		wreg, fsr0l, fsr0h, status,2, status,0, btemp+1, pclath, cstack
  5477 ;; Tracked objects:
  5478 ;;		On entry : 0/0
  5479 ;;		On exit  : 0/0
  5480 ;;		Unchanged: 0/0
  5481 ;; Data sizes:     COMMON   BANK0   BANK1   BANK3   BANK2
  5482 ;;      Params:         0       0       0       0       0
  5483 ;;      Locals:         0       0       0       0       0
  5484 ;;      Temps:          0       0       0       0       0
  5485 ;;      Totals:         0       0       0       0       0
  5486 ;;Total ram usage:        0 bytes
  5487 ;; Hardware stack levels used:    1
  5488 ;; Hardware stack levels required when called:    1
  5489 ;; This function calls:
  5490 ;;		i1_DIO_SetPinValue
  5491 ;; This function is called by:
  5492 ;;		_Temp_ControlWaterTemp
  5493 ;; This function uses a non-reentrant model
  5494 ;;
  5495                           
  5496                           
  5497                           ;psect for function _Heater_TurnOff
  5498  0C32                     _Heater_TurnOff:
  5499  0C32                     i1l2169:	
  5500                           ;incstack = 0
  5501 ;; hardware stack exceeded
  5502                           ; Regs used in _Heater_TurnOff: [wreg-fsr0h+status,2+status,0+btemp+1+pclath+cstack]
  5503                           
  5504                           
  5505                           ;APP_Program.c: 287:     DIO_SetPinValue ( 2 , 5 , 0 ) ;
  5506  0C32  3005               	movlw	5
  5507  0C33  00FF               	movwf	btemp+1
  5508  0C34  087F               	movf	btemp+1,w
  5509  0C35  00F0               	movwf	i1DIO_SetPinValue@u8PinIdCopy
  5510  0C36  01F1               	clrf	i1DIO_SetPinValue@u8PinValCopy
  5511  0C37  3002               	movlw	2
  5512  0C38  120A  118A  21F5  120A  158A  	fcall	i1_DIO_SetPinValue
  5513  0C3D                     i1l128:
  5514  0C3D  0008               	return
  5515  0C3E                     __end_of_Heater_TurnOff:
  5516                           
  5517                           	psect	text43
  5518  0C58                     __ptext43:	
  5519 ;; *************** function _Cooler_TurnOn *****************
  5520 ;; Defined at:
  5521 ;;		line 252 in file "APP_Program.c"
  5522 ;; Parameters:    Size  Location     Type
  5523 ;;		None
  5524 ;; Auto vars:     Size  Location     Type
  5525 ;;		None
  5526 ;; Return value:  Size  Location     Type
  5527 ;;                  1    wreg      void 
  5528 ;; Registers used:
  5529 ;;		wreg, fsr0l, fsr0h, status,2, status,0, btemp+1, pclath, cstack
  5530 ;; Tracked objects:
  5531 ;;		On entry : 0/0
  5532 ;;		On exit  : 0/0
  5533 ;;		Unchanged: 0/0
  5534 ;; Data sizes:     COMMON   BANK0   BANK1   BANK3   BANK2
  5535 ;;      Params:         0       0       0       0       0
  5536 ;;      Locals:         0       0       0       0       0
  5537 ;;      Temps:          0       0       0       0       0
  5538 ;;      Totals:         0       0       0       0       0
  5539 ;;Total ram usage:        0 bytes
  5540 ;; Hardware stack levels used:    1
  5541 ;; Hardware stack levels required when called:    1
  5542 ;; This function calls:
  5543 ;;		i1_DIO_SetPinValue
  5544 ;; This function is called by:
  5545 ;;		_Temp_ControlWaterTemp
  5546 ;; This function uses a non-reentrant model
  5547 ;;
  5548                           
  5549                           
  5550                           ;psect for function _Cooler_TurnOn
  5551  0C58                     _Cooler_TurnOn:
  5552  0C58                     i1l2163:	
  5553                           ;incstack = 0
  5554 ;; hardware stack exceeded
  5555                           ; Regs used in _Cooler_TurnOn: [wreg-fsr0h+status,2+status,0+btemp+1+pclath+cstack]
  5556                           
  5557                           
  5558                           ;APP_Program.c: 254:     DIO_SetPinValue ( 2 , 2 , 1 ) ;
  5559  0C58  3002               	movlw	2
  5560  0C59  00FF               	movwf	btemp+1
  5561  0C5A  087F               	movf	btemp+1,w
  5562  0C5B  00F0               	movwf	i1DIO_SetPinValue@u8PinIdCopy
  5563  0C5C  01F1               	clrf	i1DIO_SetPinValue@u8PinValCopy
  5564  0C5D  0AF1               	incf	i1DIO_SetPinValue@u8PinValCopy,f
  5565  0C5E  3002               	movlw	2
  5566  0C5F  120A  118A  21F5  120A  158A  	fcall	i1_DIO_SetPinValue
  5567  0C64                     i1l116:
  5568  0C64  0008               	return
  5569  0C65                     __end_of_Cooler_TurnOn:
  5570                           
  5571                           	psect	text44
  5572  0C26                     __ptext44:	
  5573 ;; *************** function _Cooler_TurnOff *****************
  5574 ;; Defined at:
  5575 ;;		line 259 in file "APP_Program.c"
  5576 ;; Parameters:    Size  Location     Type
  5577 ;;		None
  5578 ;; Auto vars:     Size  Location     Type
  5579 ;;		None
  5580 ;; Return value:  Size  Location     Type
  5581 ;;                  1    wreg      void 
  5582 ;; Registers used:
  5583 ;;		wreg, fsr0l, fsr0h, status,2, status,0, btemp+1, pclath, cstack
  5584 ;; Tracked objects:
  5585 ;;		On entry : 0/0
  5586 ;;		On exit  : 0/0
  5587 ;;		Unchanged: 0/0
  5588 ;; Data sizes:     COMMON   BANK0   BANK1   BANK3   BANK2
  5589 ;;      Params:         0       0       0       0       0
  5590 ;;      Locals:         0       0       0       0       0
  5591 ;;      Temps:          0       0       0       0       0
  5592 ;;      Totals:         0       0       0       0       0
  5593 ;;Total ram usage:        0 bytes
  5594 ;; Hardware stack levels used:    1
  5595 ;; Hardware stack levels required when called:    1
  5596 ;; This function calls:
  5597 ;;		i1_DIO_SetPinValue
  5598 ;; This function is called by:
  5599 ;;		_Temp_ControlWaterTemp
  5600 ;; This function uses a non-reentrant model
  5601 ;;
  5602                           
  5603                           
  5604                           ;psect for function _Cooler_TurnOff
  5605  0C26                     _Cooler_TurnOff:
  5606  0C26                     i1l2165:	
  5607                           ;incstack = 0
  5608 ;; hardware stack exceeded
  5609                           ; Regs used in _Cooler_TurnOff: [wreg-fsr0h+status,2+status,0+btemp+1+pclath+cstack]
  5610                           
  5611                           
  5612                           ;APP_Program.c: 261:     DIO_SetPinValue ( 2 , 2 , 0 ) ;
  5613  0C26  3002               	movlw	2
  5614  0C27  00FF               	movwf	btemp+1
  5615  0C28  087F               	movf	btemp+1,w
  5616  0C29  00F0               	movwf	i1DIO_SetPinValue@u8PinIdCopy
  5617  0C2A  01F1               	clrf	i1DIO_SetPinValue@u8PinValCopy
  5618  0C2B  3002               	movlw	2
  5619  0C2C  120A  118A  21F5  120A  158A  	fcall	i1_DIO_SetPinValue
  5620  0C31                     i1l119:
  5621  0C31  0008               	return
  5622  0C32                     __end_of_Cooler_TurnOff:
  5623                           
  5624                           	psect	text45
  5625  0EA4                     __ptext45:	
  5626 ;; *************** function _ADC_Read *****************
  5627 ;; Defined at:
  5628 ;;		line 30 in file "ADC_Prog.c"
  5629 ;; Parameters:    Size  Location     Type
  5630 ;;  u8_Channel      1    wreg     unsigned char 
  5631 ;; Auto vars:     Size  Location     Type
  5632 ;;  u8_Channel      1    3[COMMON] unsigned char 
  5633 ;; Return value:  Size  Location     Type
  5634 ;;                  2    0[COMMON] unsigned short 
  5635 ;; Registers used:
  5636 ;;		wreg, status,2, status,0, btemp+1
  5637 ;; Tracked objects:
  5638 ;;		On entry : 0/0
  5639 ;;		On exit  : 0/0
  5640 ;;		Unchanged: 0/0
  5641 ;; Data sizes:     COMMON   BANK0   BANK1   BANK3   BANK2
  5642 ;;      Params:         2       0       0       0       0
  5643 ;;      Locals:         1       0       0       0       0
  5644 ;;      Temps:          1       0       0       0       0
  5645 ;;      Totals:         4       0       0       0       0
  5646 ;;Total ram usage:        4 bytes
  5647 ;; Hardware stack levels used:    1
  5648 ;; This function calls:
  5649 ;;		Nothing
  5650 ;; This function is called by:
  5651 ;;		_Temp_ControlWaterTemp
  5652 ;; This function uses a non-reentrant model
  5653 ;;
  5654                           
  5655                           
  5656                           ;psect for function _ADC_Read
  5657  0EA4                     _ADC_Read:
  5658                           
  5659                           ;incstack = 0
  5660                           ; Regs used in _ADC_Read: [wreg+status,2+status,0+btemp+1]
  5661                           ;ADC_Read@u8_Channel stored from wreg
  5662  0EA4  00F3               	movwf	ADC_Read@u8_Channel
  5663  0EA5                     i1l2173:
  5664                           
  5665                           ;ADC_Prog.c: 30: u16 ADC_Read (u8 u8_Channel);ADC_Prog.c: 31: {;ADC_Prog.c: 39:     (*((
      +                          volatile u8*)0x1F)) |= (u8_Channel <<3) ;
  5666  0EA5  0873               	movf	ADC_Read@u8_Channel,w
  5667  0EA6  00F2               	movwf	??_ADC_Read
  5668  0EA7  3002               	movlw	2
  5669  0EA8                     u137_25:
  5670  0EA8  1003               	clrc
  5671  0EA9  0DF2               	rlf	??_ADC_Read,f
  5672  0EAA  3EFF               	addlw	-1
  5673  0EAB  1D03               	skipz
  5674  0EAC  2EA8               	goto	u137_25
  5675  0EAD  1003               	clrc
  5676  0EAE  0D72               	rlf	??_ADC_Read,w
  5677  0EAF  00FF               	movwf	btemp+1
  5678  0EB0  087F               	movf	btemp+1,w
  5679  0EB1  1283               	bcf	3,5	;RP0=0, select bank0
  5680  0EB2  1303               	bcf	3,6	;RP1=0, select bank0
  5681  0EB3  049F               	iorwf	31,f	;volatile
  5682  0EB4                     i1l2175:
  5683                           
  5684                           ;ADC_Prog.c: 41:     _delay((unsigned long)((30)*(8000000/4000000.0))) ;
  5685  0EB4  3013               	movlw	19
  5686  0EB5  00F2               	movwf	??_ADC_Read
  5687  0EB6                     u227_27:
  5688  0EB6  0BF2               	decfsz	??_ADC_Read,f
  5689  0EB7  2EB6               	goto	u227_27
  5690  0EB8  2EB9               	nop2
  5691  0EB9                     i1l2177:
  5692                           
  5693                           ;ADC_Prog.c: 43:     ((*((volatile u8*)0x1F))) |= (1 << (2)) ;
  5694  0EB9  1283               	bcf	3,5	;RP0=0, select bank0
  5695  0EBA  1303               	bcf	3,6	;RP1=0, select bank0
  5696  0EBB  151F               	bsf	31,2	;volatile
  5697  0EBC                     i1l2179:	
  5698                           ;ADC_Prog.c: 45:     while ( ((((*((volatile u8*)0x1F))) >> (2)) & 0x01)) ;
  5699                           
  5700  0EBC  081F               	movf	31,w	;volatile
  5701  0EBD  00F2               	movwf	??_ADC_Read
  5702  0EBE  3002               	movlw	2
  5703  0EBF                     u138_25:
  5704  0EBF  1003               	clrc
  5705  0EC0  0CF2               	rrf	??_ADC_Read,f
  5706  0EC1  3EFF               	addlw	-1
  5707  0EC2  1D03               	skipz
  5708  0EC3  2EBF               	goto	u138_25
  5709  0EC4  1872               	btfsc	??_ADC_Read,0
  5710  0EC5  2EC7               	goto	u139_21
  5711  0EC6  2EC8               	goto	u139_20
  5712  0EC7                     u139_21:
  5713  0EC7  2EBC               	goto	i1l2179
  5714  0EC8                     u139_20:
  5715  0EC8                     i1l2181:
  5716                           
  5717                           ;ADC_Prog.c: 47:   return (u16)( ((*((volatile u8*)0x1E)) << 8) + (*((volatile u8*)0x9E)
      +                          ) ) ;
  5718  0EC8  081E               	movf	30,w	;volatile
  5719  0EC9  00F1               	movwf	?_ADC_Read+1
  5720  0ECA  1683               	bsf	3,5	;RP0=1, select bank1
  5721  0ECB  1303               	bcf	3,6	;RP1=0, select bank1
  5722  0ECC  081E               	movf	30,w	;volatile
  5723  0ECD  00F0               	movwf	?_ADC_Read
  5724  0ECE                     i1l330:
  5725  0ECE  0008               	return
  5726  0ECF                     __end_of_ADC_Read:
  5727                           
  5728                           	psect	text46
  5729  0DBB                     __ptext46:	
  5730 ;; *************** function _RB5_Handler *****************
  5731 ;; Defined at:
  5732 ;;		line 211 in file "APP_Program.c"
  5733 ;; Parameters:    Size  Location     Type
  5734 ;;		None
  5735 ;; Auto vars:     Size  Location     Type
  5736 ;;		None
  5737 ;; Return value:  Size  Location     Type
  5738 ;;                  1    wreg      void 
  5739 ;; Registers used:
  5740 ;;		wreg, fsr0l, fsr0h, status,2, status,0, btemp+1, pclath, cstack
  5741 ;; Tracked objects:
  5742 ;;		On entry : 0/0
  5743 ;;		On exit  : 0/0
  5744 ;;		Unchanged: 0/0
  5745 ;; Data sizes:     COMMON   BANK0   BANK1   BANK3   BANK2
  5746 ;;      Params:         0       0       0       0       0
  5747 ;;      Locals:         0       0       0       0       0
  5748 ;;      Temps:          0       0       0       0       0
  5749 ;;      Totals:         0       0       0       0       0
  5750 ;;Total ram usage:        0 bytes
  5751 ;; Hardware stack levels used:    1
  5752 ;; Hardware stack levels required when called:    4
  5753 ;; This function calls:
  5754 ;;		_SetTemp_Mode
  5755 ;; This function is called by:
  5756 ;;		_SetCallBacks
  5757 ;;		_ISR
  5758 ;; This function uses a non-reentrant model
  5759 ;;
  5760                           
  5761                           
  5762                           ;psect for function _RB5_Handler
  5763  0DBB                     _RB5_Handler:
  5764  0DBB                     i1l2941:	
  5765                           ;incstack = 0
  5766 ;; hardware stack exceeded
  5767                           ; Regs used in _RB5_Handler: [wreg-fsr0h+status,2+status,0+btemp+1+pclath+cstack]
  5768                           
  5769                           
  5770                           ;APP_Program.c: 213:     if (Set_Temp_Flag == 0)
  5771  0DBB  1283               	bcf	3,5	;RP0=0, select bank0
  5772  0DBC  1303               	bcf	3,6	;RP1=0, select bank0
  5773  0DBD  0845               	movf	_Set_Temp_Flag,w
  5774  0DBE  1D03               	btfss	3,2
  5775  0DBF  2DC1               	goto	u215_21
  5776  0DC0  2DC2               	goto	u215_20
  5777  0DC1                     u215_21:
  5778  0DC1  2DC5               	goto	i1l2945
  5779  0DC2                     u215_20:
  5780  0DC2                     i1l2943:
  5781                           
  5782                           ;APP_Program.c: 214:             {;APP_Program.c: 215:                 Set_Temp_Flag = 1
      +                           ;
  5783  0DC2  01C5               	clrf	_Set_Temp_Flag
  5784  0DC3  0AC5               	incf	_Set_Temp_Flag,f
  5785                           
  5786                           ;APP_Program.c: 216:             }
  5787  0DC4  2DDA               	goto	i1l110
  5788  0DC5                     i1l2945:
  5789                           
  5790                           ;APP_Program.c: 218:             {;APP_Program.c: 219:                 if (ON_OFF_Status
      +                           == 1)
  5791  0DC5  0347               	decf	_ON_OFF_Status,w
  5792  0DC6  1D03               	btfss	3,2
  5793  0DC7  2DC9               	goto	u216_21
  5794  0DC8  2DCA               	goto	u216_20
  5795  0DC9                     u216_21:
  5796  0DC9  2DDA               	goto	i1l110
  5797  0DCA                     u216_20:
  5798  0DCA                     i1l2947:
  5799                           
  5800                           ;APP_Program.c: 220:                 {;APP_Program.c: 221:                 if (u8_Temp_S
      +                          et > 35 )
  5801  0DCA  3024               	movlw	36
  5802  0DCB  0248               	subwf	_u8_Temp_Set,w
  5803  0DCC  1C03               	skipc
  5804  0DCD  2DCF               	goto	u217_21
  5805  0DCE  2DD0               	goto	u217_20
  5806  0DCF                     u217_21:
  5807  0DCF  2DDA               	goto	i1l109
  5808  0DD0                     u217_20:
  5809  0DD0                     i1l2949:
  5810                           
  5811                           ;APP_Program.c: 222:                 {;APP_Program.c: 223:                    u8_Temp_Se
      +                          t -= 5 ;
  5812  0DD0  3005               	movlw	5
  5813  0DD1  02C8               	subwf	_u8_Temp_Set,f
  5814  0DD2                     i1l2951:
  5815                           
  5816                           ;APP_Program.c: 224:                    TempChange_Status = 1 ;
  5817  0DD2  01C4               	clrf	_TempChange_Status
  5818  0DD3  0AC4               	incf	_TempChange_Status,f
  5819  0DD4                     i1l2953:
  5820                           
  5821                           ;APP_Program.c: 225:                  SetTemp_Mode();
  5822  0DD4  120A  118A  267D  120A  158A  	fcall	_SetTemp_Mode
  5823                           
  5824                           ;APP_Program.c: 228:                 }
  5825  0DD9  2DDA               	goto	i1l110
  5826  0DDA                     i1l109:	
  5827                           ;APP_Program.c: 235:                 {;APP_Program.c: 237:                 }
  5828                           
  5829  0DDA                     i1l110:
  5830  0DDA  0008               	return
  5831  0DDB                     __end_of_RB5_Handler:
  5832                           
  5833                           	psect	text47
  5834  0DDB                     __ptext47:	
  5835 ;; *************** function _RB4_Handler *****************
  5836 ;; Defined at:
  5837 ;;		line 177 in file "APP_Program.c"
  5838 ;; Parameters:    Size  Location     Type
  5839 ;;		None
  5840 ;; Auto vars:     Size  Location     Type
  5841 ;;		None
  5842 ;; Return value:  Size  Location     Type
  5843 ;;                  1    wreg      void 
  5844 ;; Registers used:
  5845 ;;		wreg, fsr0l, fsr0h, status,2, status,0, btemp+1, pclath, cstack
  5846 ;; Tracked objects:
  5847 ;;		On entry : 0/0
  5848 ;;		On exit  : 0/0
  5849 ;;		Unchanged: 0/0
  5850 ;; Data sizes:     COMMON   BANK0   BANK1   BANK3   BANK2
  5851 ;;      Params:         0       0       0       0       0
  5852 ;;      Locals:         0       0       0       0       0
  5853 ;;      Temps:          0       0       0       0       0
  5854 ;;      Totals:         0       0       0       0       0
  5855 ;;Total ram usage:        0 bytes
  5856 ;; Hardware stack levels used:    1
  5857 ;; Hardware stack levels required when called:    4
  5858 ;; This function calls:
  5859 ;;		_SetTemp_Mode
  5860 ;; This function is called by:
  5861 ;;		_SetCallBacks
  5862 ;;		_ISR
  5863 ;; This function uses a non-reentrant model
  5864 ;;
  5865                           
  5866                           
  5867                           ;psect for function _RB4_Handler
  5868  0DDB                     _RB4_Handler:
  5869  0DDB                     i1l2927:	
  5870                           ;incstack = 0
  5871 ;; hardware stack exceeded
  5872                           ; Regs used in _RB4_Handler: [wreg-fsr0h+status,2+status,0+btemp+1+pclath+cstack]
  5873                           
  5874                           
  5875                           ;APP_Program.c: 180:             if (Set_Temp_Flag == 0)
  5876  0DDB  1283               	bcf	3,5	;RP0=0, select bank0
  5877  0DDC  1303               	bcf	3,6	;RP1=0, select bank0
  5878  0DDD  0845               	movf	_Set_Temp_Flag,w
  5879  0DDE  1D03               	btfss	3,2
  5880  0DDF  2DE1               	goto	u212_21
  5881  0DE0  2DE2               	goto	u212_20
  5882  0DE1                     u212_21:
  5883  0DE1  2DE5               	goto	i1l2931
  5884  0DE2                     u212_20:
  5885  0DE2                     i1l2929:
  5886                           
  5887                           ;APP_Program.c: 181:             {;APP_Program.c: 182:                 Set_Temp_Flag = 1
      +                           ;
  5888  0DE2  01C5               	clrf	_Set_Temp_Flag
  5889  0DE3  0AC5               	incf	_Set_Temp_Flag,f
  5890                           
  5891                           ;APP_Program.c: 183:             }
  5892  0DE4  2DFC               	goto	i1l101
  5893  0DE5                     i1l2931:
  5894                           
  5895                           ;APP_Program.c: 185:             {;APP_Program.c: 186:                 if (ON_OFF_Status
      +                           == 1)
  5896  0DE5  0347               	decf	_ON_OFF_Status,w
  5897  0DE6  1D03               	btfss	3,2
  5898  0DE7  2DE9               	goto	u213_21
  5899  0DE8  2DEA               	goto	u213_20
  5900  0DE9                     u213_21:
  5901  0DE9  2DFC               	goto	i1l101
  5902  0DEA                     u213_20:
  5903  0DEA                     i1l2933:
  5904                           
  5905                           ;APP_Program.c: 187:                 {;APP_Program.c: 188:                 if ( u8_Temp_
      +                          Set <75 )
  5906  0DEA  304B               	movlw	75
  5907  0DEB  0248               	subwf	_u8_Temp_Set,w
  5908  0DEC  1803               	skipnc
  5909  0DED  2DEF               	goto	u214_21
  5910  0DEE  2DF0               	goto	u214_20
  5911  0DEF                     u214_21:
  5912  0DEF  2DFC               	goto	i1l100
  5913  0DF0                     u214_20:
  5914  0DF0                     i1l2935:
  5915                           
  5916                           ;APP_Program.c: 189:                 {;APP_Program.c: 190:                     u8_Temp_S
      +                          et += 5 ;
  5917  0DF0  3005               	movlw	5
  5918  0DF1  00FF               	movwf	btemp+1
  5919  0DF2  087F               	movf	btemp+1,w
  5920  0DF3  07C8               	addwf	_u8_Temp_Set,f
  5921  0DF4                     i1l2937:
  5922                           
  5923                           ;APP_Program.c: 191:                     TempChange_Status = 1 ;
  5924  0DF4  01C4               	clrf	_TempChange_Status
  5925  0DF5  0AC4               	incf	_TempChange_Status,f
  5926  0DF6                     i1l2939:
  5927                           
  5928                           ;APP_Program.c: 192:                   SetTemp_Mode();
  5929  0DF6  120A  118A  267D  120A  158A  	fcall	_SetTemp_Mode
  5930                           
  5931                           ;APP_Program.c: 194:                 }
  5932  0DFB  2DFC               	goto	i1l101
  5933  0DFC                     i1l100:	
  5934                           ;APP_Program.c: 201:                 {;APP_Program.c: 203:                 }
  5935                           
  5936  0DFC                     i1l101:
  5937  0DFC  0008               	return
  5938  0DFD                     __end_of_RB4_Handler:
  5939                           
  5940                           	psect	text48
  5941  067D                     __ptext48:	
  5942 ;; *************** function _SetTemp_Mode *****************
  5943 ;; Defined at:
  5944 ;;		line 116 in file "APP_Program.c"
  5945 ;; Parameters:    Size  Location     Type
  5946 ;;		None
  5947 ;; Auto vars:     Size  Location     Type
  5948 ;;  count           1    3[BANK0 ] unsigned char 
  5949 ;; Return value:  Size  Location     Type
  5950 ;;                  1    wreg      void 
  5951 ;; Registers used:
  5952 ;;		wreg, fsr0l, fsr0h, status,2, status,0, btemp+1, pclath, cstack
  5953 ;; Tracked objects:
  5954 ;;		On entry : 0/0
  5955 ;;		On exit  : 0/0
  5956 ;;		Unchanged: 0/0
  5957 ;; Data sizes:     COMMON   BANK0   BANK1   BANK3   BANK2
  5958 ;;      Params:         0       0       0       0       0
  5959 ;;      Locals:         0       1       0       0       0
  5960 ;;      Temps:          0       3       0       0       0
  5961 ;;      Totals:         0       4       0       0       0
  5962 ;;Total ram usage:        4 bytes
  5963 ;; Hardware stack levels used:    1
  5964 ;; Hardware stack levels required when called:    3
  5965 ;; This function calls:
  5966 ;;		_GreenLed_TOG
  5967 ;;		_vid_7_Segment_Display_2Digits
  5968 ;;		i1_EEPROM_WriteToEEPROM
  5969 ;;		i1_vid_7_Segment_DeInit
  5970 ;; This function is called by:
  5971 ;;		_RB4_Handler
  5972 ;;		_RB5_Handler
  5973 ;; This function uses a non-reentrant model
  5974 ;;
  5975                           
  5976                           
  5977                           ;psect for function _SetTemp_Mode
  5978  067D                     _SetTemp_Mode:
  5979  067D                     i1l2277:	
  5980                           ;incstack = 0
  5981 ;; hardware stack exceeded
  5982                           ; Regs used in _SetTemp_Mode: [wreg-fsr0h+status,2+status,0+btemp+1+pclath+cstack]
  5983                           
  5984                           
  5985                           ;APP_Program.c: 119:     ((*((volatile u8*)0x8C))) &= ~(1 << (2)) ;
  5986  067D  30FB               	movlw	251
  5987  067E  00FF               	movwf	btemp+1
  5988  067F  087F               	movf	btemp+1,w
  5989  0680  1683               	bsf	3,5	;RP0=1, select bank1
  5990  0681  1303               	bcf	3,6	;RP1=0, select bank1
  5991  0682  058C               	andwf	12,f	;volatile
  5992  0683                     i1l2279:
  5993                           
  5994                           ;APP_Program.c: 120:         GreenLed_TOG();
  5995  0683  120A  158A  2398  120A  118A  	fcall	_GreenLed_TOG
  5996  0688                     i1l2281:
  5997  0688                     i1l2283:
  5998                           
  5999                           ;APP_Program.c: 124:  if (ON_OFF_Status == 1)
  6000  0688  1283               	bcf	3,5	;RP0=0, select bank0
  6001  0689  1303               	bcf	3,6	;RP1=0, select bank0
  6002  068A  0347               	decf	_ON_OFF_Status,w
  6003  068B  1D03               	btfss	3,2
  6004  068C  2E8E               	goto	u143_21
  6005  068D  2E8F               	goto	u143_20
  6006  068E                     u143_21:
  6007  068E  2EC8               	goto	i1l86
  6008  068F                     u143_20:
  6009  068F                     i1l2285:
  6010                           
  6011                           ;APP_Program.c: 125:  {;APP_Program.c: 126:      if (Set_Temp_Flag == 1)
  6012  068F  0345               	decf	_Set_Temp_Flag,w
  6013  0690  1D03               	btfss	3,2
  6014  0691  2E93               	goto	u144_21
  6015  0692  2E94               	goto	u144_20
  6016  0693                     u144_21:
  6017  0693  2EC8               	goto	i1l86
  6018  0694                     u144_20:
  6019  0694                     i1l2287:
  6020                           
  6021                           ;APP_Program.c: 127:      {;APP_Program.c: 129:         for (count=0;count<5;count++)
  6022  0694  01CC               	clrf	SetTemp_Mode@count
  6023  0695                     i1l2293:
  6024                           
  6025                           ;APP_Program.c: 130:         {;APP_Program.c: 131:             vid_7_Segment_Display_2Di
      +                          gits(u8_Temp_Set) ;
  6026  0695  0848               	movf	_u8_Temp_Set,w
  6027  0696  120A  118A  25C6  120A  118A  	fcall	_vid_7_Segment_Display_2Digits
  6028                           
  6029                           ;APP_Program.c: 132:             vid_7_Segment_DeInit() ;
  6030  069B  120A  158A  24FF  120A  118A  	fcall	i1_vid_7_Segment_DeInit
  6031  06A0                     i1l2295:
  6032                           
  6033                           ;APP_Program.c: 133:             _delay((unsigned long)((500)*(8000000/4000.0))) ;
  6034  06A0  3006               	movlw	6
  6035  06A1  1283               	bcf	3,5	;RP0=0, select bank0
  6036  06A2  1303               	bcf	3,6	;RP1=0, select bank0
  6037  06A3  00CB               	movwf	??_SetTemp_Mode+2
  6038  06A4  3013               	movlw	19
  6039  06A5  00CA               	movwf	??_SetTemp_Mode+1
  6040  06A6  30AD               	movlw	173
  6041  06A7  00C9               	movwf	??_SetTemp_Mode
  6042  06A8                     u228_27:
  6043  06A8  0BC9               	decfsz	??_SetTemp_Mode,f
  6044  06A9  2EA8               	goto	u228_27
  6045  06AA  0BCA               	decfsz	??_SetTemp_Mode+1,f
  6046  06AB  2EA8               	goto	u228_27
  6047  06AC  0BCB               	decfsz	??_SetTemp_Mode+2,f
  6048  06AD  2EA8               	goto	u228_27
  6049  06AE                     i1l2297:
  6050                           
  6051                           ;APP_Program.c: 135:             if (TempChange_Status == 1)
  6052  06AE  1283               	bcf	3,5	;RP0=0, select bank0
  6053  06AF  1303               	bcf	3,6	;RP1=0, select bank0
  6054  06B0  0344               	decf	_TempChange_Status,w
  6055  06B1  1D03               	btfss	3,2
  6056  06B2  2EB4               	goto	u145_21
  6057  06B3  2EB5               	goto	u145_20
  6058  06B4                     u145_21:
  6059  06B4  2EB7               	goto	i1l2301
  6060  06B5                     u145_20:
  6061  06B5                     i1l2299:
  6062                           
  6063                           ;APP_Program.c: 136:             {;APP_Program.c: 137:                 count = 0 ;
  6064  06B5  01CC               	clrf	SetTemp_Mode@count
  6065                           
  6066                           ;APP_Program.c: 138:                 TempChange_Status = 0 ;
  6067  06B6  01C4               	clrf	_TempChange_Status
  6068  06B7                     i1l2301:
  6069                           
  6070                           ;APP_Program.c: 140:         }
  6071  06B7  3001               	movlw	1
  6072  06B8  00FF               	movwf	btemp+1
  6073  06B9  087F               	movf	btemp+1,w
  6074  06BA  07CC               	addwf	SetTemp_Mode@count,f
  6075  06BB                     i1l2303:
  6076  06BB  3005               	movlw	5
  6077  06BC  024C               	subwf	SetTemp_Mode@count,w
  6078  06BD  1C03               	skipc
  6079  06BE  2EC0               	goto	u146_21
  6080  06BF  2EC1               	goto	u146_20
  6081  06C0                     u146_21:
  6082  06C0  2E95               	goto	i1l2293
  6083  06C1                     u146_20:
  6084  06C1                     i1l2305:
  6085                           
  6086                           ;APP_Program.c: 141:         Set_Temp_Flag = 0 ;
  6087  06C1  01C5               	clrf	_Set_Temp_Flag
  6088  06C2                     i1l2307:
  6089                           
  6090                           ;APP_Program.c: 143:         EEPROM_WriteToEEPROM(u8_Temp_Set) ;
  6091  06C2  0848               	movf	_u8_Temp_Set,w
  6092  06C3  120A  158A  259D  120A  118A  	fcall	i1_EEPROM_WriteToEEPROM
  6093  06C8                     i1l86:	
  6094                           ;APP_Program.c: 151:     {;APP_Program.c: 153:     }
  6095                           
  6096                           
  6097                           ;APP_Program.c: 156:     ((*((volatile u8*)0x8C))) |= (1 << (2)) ;
  6098  06C8  1683               	bsf	3,5	;RP0=1, select bank1
  6099  06C9  1303               	bcf	3,6	;RP1=0, select bank1
  6100  06CA  150C               	bsf	12,2	;volatile
  6101  06CB                     i1l87:
  6102  06CB  0008               	return
  6103  06CC                     __end_of_SetTemp_Mode:
  6104                           
  6105                           	psect	text49
  6106  0D9D                     __ptext49:	
  6107 ;; *************** function i1_EEPROM_WriteToEEPROM *****************
  6108 ;; Defined at:
  6109 ;;		line 26 in file "EEPROM_Prog.c"
  6110 ;; Parameters:    Size  Location     Type
  6111 ;;  u8_Data         1    wreg     unsigned char 
  6112 ;; Auto vars:     Size  Location     Type
  6113 ;;  u8_Data         1    1[COMMON] unsigned char 
  6114 ;; Return value:  Size  Location     Type
  6115 ;;                  1    wreg      void 
  6116 ;; Registers used:
  6117 ;;		wreg, status,2, status,0, btemp+1, pclath, cstack
  6118 ;; Tracked objects:
  6119 ;;		On entry : 0/0
  6120 ;;		On exit  : 0/0
  6121 ;;		Unchanged: 0/0
  6122 ;; Data sizes:     COMMON   BANK0   BANK1   BANK3   BANK2
  6123 ;;      Params:         0       0       0       0       0
  6124 ;;      Locals:         1       0       0       0       0
  6125 ;;      Temps:          0       0       0       0       0
  6126 ;;      Totals:         1       0       0       0       0
  6127 ;;Total ram usage:        1 bytes
  6128 ;; Hardware stack levels used:    1
  6129 ;; Hardware stack levels required when called:    2
  6130 ;; This function calls:
  6131 ;;		i1_I2CBegin
  6132 ;;		i1_I2C_End
  6133 ;;		i1_I2C_Write
  6134 ;; This function is called by:
  6135 ;;		_SetTemp_Mode
  6136 ;; This function uses a non-reentrant model
  6137 ;;
  6138                           
  6139                           
  6140                           ;psect for function i1_EEPROM_WriteToEEPROM
  6141  0D9D                     i1_EEPROM_WriteToEEPROM:
  6142                           
  6143                           ;incstack = 0
  6144 ;; hardware stack exceeded
  6145                           ; Regs used in i1_EEPROM_WriteToEEPROM: [wreg+status,2+status,0+btemp+1+pclath+cstack]
  6146                           ;i1EEPROM_WriteToEEPROM@u8_Data stored from wreg
  6147  0D9D  00F1               	movwf	i1EEPROM_WriteToEEPROM@u8_Data
  6148  0D9E                     i1l2225:
  6149                           
  6150                           ;EEPROM_Prog.c: 26: void EEPROM_WriteToEEPROM (u8 u8_Data);EEPROM_Prog.c: 27: {;EEPROM_P
      +                          rog.c: 28:     I2CBegin() ;
  6151  0D9E  120A  158A  23E5  120A  158A  	fcall	i1_I2CBegin
  6152  0DA3                     i1l2227:
  6153                           
  6154                           ;EEPROM_Prog.c: 30:     I2C_Write(0xA0) ;
  6155  0DA3  30A0               	movlw	160
  6156  0DA4  120A  158A  244B  120A  158A  	fcall	i1_I2C_Write
  6157  0DA9                     i1l2229:
  6158                           
  6159                           ;EEPROM_Prog.c: 31:     I2C_Write(0x00);
  6160  0DA9  3000               	movlw	0
  6161  0DAA  120A  158A  244B  120A  158A  	fcall	i1_I2C_Write
  6162  0DAF                     i1l2231:
  6163                           
  6164                           ;EEPROM_Prog.c: 32:     I2C_Write(u8_Data);
  6165  0DAF  0871               	movf	i1EEPROM_WriteToEEPROM@u8_Data,w
  6166  0DB0  120A  158A  244B  120A  158A  	fcall	i1_I2C_Write
  6167  0DB5                     i1l2233:
  6168                           
  6169                           ;EEPROM_Prog.c: 33:     I2C_End() ;
  6170  0DB5  120A  158A  23EE  120A  158A  	fcall	i1_I2C_End
  6171  0DBA                     i1l288:
  6172  0DBA  0008               	return
  6173  0DBB                     __end_ofi1_EEPROM_WriteToEEPROM:
  6174                           
  6175                           	psect	text50
  6176  0C4B                     __ptext50:	
  6177 ;; *************** function i1_I2C_Write *****************
  6178 ;; Defined at:
  6179 ;;		line 67 in file "I2C_Prog.c"
  6180 ;; Parameters:    Size  Location     Type
  6181 ;;  u8_Data         1    wreg     unsigned char 
  6182 ;; Auto vars:     Size  Location     Type
  6183 ;;  u8_Data         1    0[COMMON] unsigned char 
  6184 ;; Return value:  Size  Location     Type
  6185 ;;                  1    wreg      void 
  6186 ;; Registers used:
  6187 ;;		wreg, status,2, status,0, btemp+1, pclath, cstack
  6188 ;; Tracked objects:
  6189 ;;		On entry : 0/0
  6190 ;;		On exit  : 0/0
  6191 ;;		Unchanged: 0/0
  6192 ;; Data sizes:     COMMON   BANK0   BANK1   BANK3   BANK2
  6193 ;;      Params:         0       0       0       0       0
  6194 ;;      Locals:         1       0       0       0       0
  6195 ;;      Temps:          0       0       0       0       0
  6196 ;;      Totals:         1       0       0       0       0
  6197 ;;Total ram usage:        1 bytes
  6198 ;; Hardware stack levels used:    1
  6199 ;; Hardware stack levels required when called:    1
  6200 ;; This function calls:
  6201 ;;		i1_I2C_Hold
  6202 ;; This function is called by:
  6203 ;;		i1_EEPROM_WriteToEEPROM
  6204 ;; This function uses a non-reentrant model
  6205 ;;
  6206                           
  6207                           
  6208                           ;psect for function i1_I2C_Write
  6209  0C4B                     i1_I2C_Write:
  6210                           
  6211                           ;incstack = 0
  6212 ;; hardware stack exceeded
  6213                           ; Regs used in i1_I2C_Write: [wreg+status,2+status,0+btemp+1+pclath+cstack]
  6214                           ;i1I2C_Write@u8_Data stored from wreg
  6215  0C4B  00F0               	movwf	i1I2C_Write@u8_Data
  6216  0C4C                     i1l2105:
  6217                           
  6218                           ;I2C_Prog.c: 67: void I2C_Write (u8 u8_Data );I2C_Prog.c: 68: {;I2C_Prog.c: 69:     I2C_
      +                          Hold();
  6219  0C4C  120A  158A  243E  120A  158A  	fcall	i1_I2C_Hold
  6220  0C51                     i1l2107:
  6221                           
  6222                           ;I2C_Prog.c: 70:     (*((volatile u8*)0x13)) = u8_Data ;
  6223  0C51  0870               	movf	i1I2C_Write@u8_Data,w
  6224  0C52  00FF               	movwf	btemp+1
  6225  0C53  087F               	movf	btemp+1,w
  6226  0C54  1283               	bcf	3,5	;RP0=0, select bank0
  6227  0C55  1303               	bcf	3,6	;RP1=0, select bank0
  6228  0C56  0093               	movwf	19	;volatile
  6229  0C57                     i1l314:
  6230  0C57  0008               	return
  6231  0C58                     __end_ofi1_I2C_Write:
  6232                           
  6233                           	psect	text51
  6234  0BEE                     __ptext51:	
  6235 ;; *************** function i1_I2C_End *****************
  6236 ;; Defined at:
  6237 ;;		line 57 in file "I2C_Prog.c"
  6238 ;; Parameters:    Size  Location     Type
  6239 ;;		None
  6240 ;; Auto vars:     Size  Location     Type
  6241 ;;		None
  6242 ;; Return value:  Size  Location     Type
  6243 ;;                  1    wreg      void 
  6244 ;; Registers used:
  6245 ;;		wreg, status,2, status,0, pclath, cstack
  6246 ;; Tracked objects:
  6247 ;;		On entry : 0/0
  6248 ;;		On exit  : 0/0
  6249 ;;		Unchanged: 0/0
  6250 ;; Data sizes:     COMMON   BANK0   BANK1   BANK3   BANK2
  6251 ;;      Params:         0       0       0       0       0
  6252 ;;      Locals:         0       0       0       0       0
  6253 ;;      Temps:          0       0       0       0       0
  6254 ;;      Totals:         0       0       0       0       0
  6255 ;;Total ram usage:        0 bytes
  6256 ;; Hardware stack levels used:    1
  6257 ;; Hardware stack levels required when called:    1
  6258 ;; This function calls:
  6259 ;;		i1_I2C_Hold
  6260 ;; This function is called by:
  6261 ;;		i1_EEPROM_WriteToEEPROM
  6262 ;; This function uses a non-reentrant model
  6263 ;;
  6264                           
  6265                           
  6266                           ;psect for function i1_I2C_End
  6267  0BEE                     i1_I2C_End:
  6268  0BEE                     i1l2101:	
  6269                           ;incstack = 0
  6270 ;; hardware stack exceeded
  6271                           ; Regs used in i1_I2C_End: [wreg+status,2+status,0+pclath+cstack]
  6272                           
  6273                           
  6274                           ;I2C_Prog.c: 59:    I2C_Hold() ;
  6275  0BEE  120A  158A  243E  120A  158A  	fcall	i1_I2C_Hold
  6276  0BF3                     i1l2103:
  6277                           
  6278                           ;I2C_Prog.c: 60:    ((*((volatile u8*)0x91))) |= (1 << (2)) ;
  6279  0BF3  1683               	bsf	3,5	;RP0=1, select bank1
  6280  0BF4  1303               	bcf	3,6	;RP1=0, select bank1
  6281  0BF5  1511               	bsf	17,2	;volatile
  6282  0BF6                     i1l311:
  6283  0BF6  0008               	return
  6284  0BF7                     __end_ofi1_I2C_End:
  6285                           
  6286                           	psect	text52
  6287  0BE5                     __ptext52:	
  6288 ;; *************** function i1_I2CBegin *****************
  6289 ;; Defined at:
  6290 ;;		line 42 in file "I2C_Prog.c"
  6291 ;; Parameters:    Size  Location     Type
  6292 ;;		None
  6293 ;; Auto vars:     Size  Location     Type
  6294 ;;		None
  6295 ;; Return value:  Size  Location     Type
  6296 ;;                  1    wreg      void 
  6297 ;; Registers used:
  6298 ;;		wreg, status,2, status,0, pclath, cstack
  6299 ;; Tracked objects:
  6300 ;;		On entry : 0/0
  6301 ;;		On exit  : 0/0
  6302 ;;		Unchanged: 0/0
  6303 ;; Data sizes:     COMMON   BANK0   BANK1   BANK3   BANK2
  6304 ;;      Params:         0       0       0       0       0
  6305 ;;      Locals:         0       0       0       0       0
  6306 ;;      Temps:          0       0       0       0       0
  6307 ;;      Totals:         0       0       0       0       0
  6308 ;;Total ram usage:        0 bytes
  6309 ;; Hardware stack levels used:    1
  6310 ;; Hardware stack levels required when called:    1
  6311 ;; This function calls:
  6312 ;;		i1_I2C_Hold
  6313 ;; This function is called by:
  6314 ;;		i1_EEPROM_WriteToEEPROM
  6315 ;; This function uses a non-reentrant model
  6316 ;;
  6317                           
  6318                           
  6319                           ;psect for function i1_I2CBegin
  6320  0BE5                     i1_I2CBegin:
  6321  0BE5                     i1l2097:	
  6322                           ;incstack = 0
  6323 ;; hardware stack exceeded
  6324                           ; Regs used in i1_I2CBegin: [wreg+status,2+status,0+pclath+cstack]
  6325                           
  6326                           
  6327                           ;I2C_Prog.c: 44:      I2C_Hold() ;
  6328  0BE5  120A  158A  243E  120A  158A  	fcall	i1_I2C_Hold
  6329  0BEA                     i1l2099:
  6330                           
  6331                           ;I2C_Prog.c: 45:     ((*((volatile u8*)0x91))) |= (1 << (0)) ;
  6332  0BEA  1683               	bsf	3,5	;RP0=1, select bank1
  6333  0BEB  1303               	bcf	3,6	;RP1=0, select bank1
  6334  0BEC  1411               	bsf	17,0	;volatile
  6335  0BED                     i1l305:
  6336  0BED  0008               	return
  6337  0BEE                     __end_ofi1_I2CBegin:
  6338                           
  6339                           	psect	text53
  6340  0C3E                     __ptext53:	
  6341 ;; *************** function i1_I2C_Hold *****************
  6342 ;; Defined at:
  6343 ;;		line 34 in file "I2C_Prog.c"
  6344 ;; Parameters:    Size  Location     Type
  6345 ;;		None
  6346 ;; Auto vars:     Size  Location     Type
  6347 ;;		None
  6348 ;; Return value:  Size  Location     Type
  6349 ;;                  1    wreg      void 
  6350 ;; Registers used:
  6351 ;;		wreg, status,2
  6352 ;; Tracked objects:
  6353 ;;		On entry : 0/0
  6354 ;;		On exit  : 0/0
  6355 ;;		Unchanged: 0/0
  6356 ;; Data sizes:     COMMON   BANK0   BANK1   BANK3   BANK2
  6357 ;;      Params:         0       0       0       0       0
  6358 ;;      Locals:         0       0       0       0       0
  6359 ;;      Temps:          0       0       0       0       0
  6360 ;;      Totals:         0       0       0       0       0
  6361 ;;Total ram usage:        0 bytes
  6362 ;; Hardware stack levels used:    1
  6363 ;; This function calls:
  6364 ;;		Nothing
  6365 ;; This function is called by:
  6366 ;;		i1_I2CBegin
  6367 ;;		i1_I2C_End
  6368 ;;		i1_I2C_Write
  6369 ;; This function uses a non-reentrant model
  6370 ;;
  6371                           
  6372                           
  6373                           ;psect for function i1_I2C_Hold
  6374  0C3E                     i1_I2C_Hold:
  6375  0C3E                     i1l2069:	
  6376                           ;incstack = 0
  6377 ;; hardware stack exceeded
  6378                           ; Regs used in i1_I2C_Hold: [wreg+status,2]
  6379                           
  6380  0C3E                     i1l299:	
  6381                           ;I2C_Prog.c: 37:     while ( ((*((volatile u8*)0x94)) & 0x04) || ((*((volatile u8*)0x91)
      +                          ) & 0x1F)) ;
  6382                           
  6383  0C3E  1683               	bsf	3,5	;RP0=1, select bank1
  6384  0C3F  1303               	bcf	3,6	;RP1=0, select bank1
  6385  0C40  1914               	btfsc	20,2	;volatile
  6386  0C41  2C43               	goto	u120_21
  6387  0C42  2C44               	goto	u120_20
  6388  0C43                     u120_21:
  6389  0C43  2C3E               	goto	i1l299
  6390  0C44                     u120_20:
  6391  0C44                     i1l2071:
  6392  0C44  0811               	movf	17,w	;volatile
  6393  0C45  391F               	andlw	31
  6394  0C46  1D03               	btfss	3,2
  6395  0C47  2C49               	goto	u121_21
  6396  0C48  2C4A               	goto	u121_20
  6397  0C49                     u121_21:
  6398  0C49  2C3E               	goto	i1l299
  6399  0C4A                     u121_20:
  6400  0C4A                     i1l302:
  6401  0C4A  0008               	return
  6402  0C4B                     __end_ofi1_I2C_Hold:
  6403                           
  6404                           	psect	text54
  6405  0B98                     __ptext54:	
  6406 ;; *************** function _GreenLed_TOG *****************
  6407 ;; Defined at:
  6408 ;;		line 384 in file "APP_Program.c"
  6409 ;; Parameters:    Size  Location     Type
  6410 ;;		None
  6411 ;; Auto vars:     Size  Location     Type
  6412 ;;		None
  6413 ;; Return value:  Size  Location     Type
  6414 ;;                  1    wreg      void 
  6415 ;; Registers used:
  6416 ;;		wreg, status,2, status,0, btemp+1
  6417 ;; Tracked objects:
  6418 ;;		On entry : 0/0
  6419 ;;		On exit  : 0/0
  6420 ;;		Unchanged: 0/0
  6421 ;; Data sizes:     COMMON   BANK0   BANK1   BANK3   BANK2
  6422 ;;      Params:         0       0       0       0       0
  6423 ;;      Locals:         0       0       0       0       0
  6424 ;;      Temps:          0       0       0       0       0
  6425 ;;      Totals:         0       0       0       0       0
  6426 ;;Total ram usage:        0 bytes
  6427 ;; Hardware stack levels used:    1
  6428 ;; This function calls:
  6429 ;;		Nothing
  6430 ;; This function is called by:
  6431 ;;		_SetTemp_Mode
  6432 ;; This function uses a non-reentrant model
  6433 ;;
  6434                           
  6435                           
  6436                           ;psect for function _GreenLed_TOG
  6437  0B98                     _GreenLed_TOG:
  6438  0B98                     i1l2117:	
  6439                           ;incstack = 0
  6440                           ; Regs used in _GreenLed_TOG: [wreg+status,2+status,0+btemp+1]
  6441                           
  6442                           
  6443                           ;APP_Program.c: 386:     ((*((volatile u8*)0x06))) ^= (1 << (2)) ;
  6444  0B98  3004               	movlw	4
  6445  0B99  00FF               	movwf	btemp+1
  6446  0B9A  087F               	movf	btemp+1,w
  6447  0B9B  1283               	bcf	3,5	;RP0=0, select bank0
  6448  0B9C  1303               	bcf	3,6	;RP1=0, select bank0
  6449  0B9D  0686               	xorwf	6,f	;volatile
  6450  0B9E                     i1l157:
  6451  0B9E  0008               	return
  6452  0B9F                     __end_of_GreenLed_TOG:
  6453                           
  6454                           	psect	text55
  6455  0C9B                     __ptext55:	
  6456 ;; *************** function _RB0_Handler *****************
  6457 ;; Defined at:
  6458 ;;		line 163 in file "APP_Program.c"
  6459 ;; Parameters:    Size  Location     Type
  6460 ;;		None
  6461 ;; Auto vars:     Size  Location     Type
  6462 ;;		None
  6463 ;; Return value:  Size  Location     Type
  6464 ;;                  1    wreg      void 
  6465 ;; Registers used:
  6466 ;;		wreg, fsr0l, fsr0h, status,2, status,0, btemp+1, pclath, cstack
  6467 ;; Tracked objects:
  6468 ;;		On entry : 0/0
  6469 ;;		On exit  : 0/0
  6470 ;;		Unchanged: 0/0
  6471 ;; Data sizes:     COMMON   BANK0   BANK1   BANK3   BANK2
  6472 ;;      Params:         0       0       0       0       0
  6473 ;;      Locals:         0       0       0       0       0
  6474 ;;      Temps:          0       0       0       0       0
  6475 ;;      Totals:         0       0       0       0       0
  6476 ;;Total ram usage:        0 bytes
  6477 ;; Hardware stack levels used:    1
  6478 ;; Hardware stack levels required when called:    4
  6479 ;; This function calls:
  6480 ;;		_ON_Mode
  6481 ;;		i1_OFF_Mode
  6482 ;; This function is called by:
  6483 ;;		_SetCallBacks
  6484 ;;		_ISR
  6485 ;; This function uses a non-reentrant model
  6486 ;;
  6487                           
  6488                           
  6489                           ;psect for function _RB0_Handler
  6490  0C9B                     _RB0_Handler:
  6491  0C9B                     i1l2921:	
  6492                           ;incstack = 0
  6493 ;; hardware stack exceeded
  6494                           ; Regs used in _RB0_Handler: [wreg-fsr0h+status,2+status,0+btemp+1+pclath+cstack]
  6495                           
  6496                           
  6497                           ;APP_Program.c: 165:     if ( ON_OFF_Status == 1 )
  6498  0C9B  1283               	bcf	3,5	;RP0=0, select bank0
  6499  0C9C  1303               	bcf	3,6	;RP1=0, select bank0
  6500  0C9D  0347               	decf	_ON_OFF_Status,w
  6501  0C9E  1D03               	btfss	3,2
  6502  0C9F  2CA1               	goto	u211_21
  6503  0CA0  2CA2               	goto	u211_20
  6504  0CA1                     u211_21:
  6505  0CA1  2CA8               	goto	i1l2925
  6506  0CA2                     u211_20:
  6507  0CA2                     i1l2923:
  6508                           
  6509                           ;APP_Program.c: 166:     {;APP_Program.c: 167:         OFF_Mode();
  6510  0CA2  120A  158A  23DC  120A  158A  	fcall	i1_OFF_Mode
  6511                           
  6512                           ;APP_Program.c: 168:     }
  6513  0CA7  2CAD               	goto	i1l92
  6514  0CA8                     i1l2925:
  6515                           
  6516                           ;APP_Program.c: 170:     {;APP_Program.c: 171:        ON_Mode();
  6517  0CA8  120A  158A  241B  120A  158A  	fcall	_ON_Mode
  6518  0CAD                     i1l92:
  6519  0CAD  0008               	return
  6520  0CAE                     __end_of_RB0_Handler:
  6521                           
  6522                           	psect	text56
  6523  0BDC                     __ptext56:	
  6524 ;; *************** function i1_OFF_Mode *****************
  6525 ;; Defined at:
  6526 ;;		line 107 in file "APP_Program.c"
  6527 ;; Parameters:    Size  Location     Type
  6528 ;;		None
  6529 ;; Auto vars:     Size  Location     Type
  6530 ;;		None
  6531 ;; Return value:  Size  Location     Type
  6532 ;;                  1    wreg      void 
  6533 ;; Registers used:
  6534 ;;		wreg, fsr0l, fsr0h, status,2, status,0, btemp+1, pclath, cstack
  6535 ;; Tracked objects:
  6536 ;;		On entry : 0/0
  6537 ;;		On exit  : 0/0
  6538 ;;		Unchanged: 0/0
  6539 ;; Data sizes:     COMMON   BANK0   BANK1   BANK3   BANK2
  6540 ;;      Params:         0       0       0       0       0
  6541 ;;      Locals:         0       0       0       0       0
  6542 ;;      Temps:          0       0       0       0       0
  6543 ;;      Totals:         0       0       0       0       0
  6544 ;;Total ram usage:        0 bytes
  6545 ;; Hardware stack levels used:    1
  6546 ;; Hardware stack levels required when called:    2
  6547 ;; This function calls:
  6548 ;;		i1_vid_7_Segment_DeInit
  6549 ;; This function is called by:
  6550 ;;		_System_Power
  6551 ;;		_RB0_Handler
  6552 ;; This function uses a non-reentrant model
  6553 ;;
  6554                           
  6555                           
  6556                           ;psect for function i1_OFF_Mode
  6557  0BDC                     i1_OFF_Mode:
  6558  0BDC                     i1l2221:	
  6559                           ;incstack = 0
  6560 ;; hardware stack exceeded
  6561                           ; Regs used in i1_OFF_Mode: [wreg-fsr0h+status,2+status,0+btemp+1+pclath+cstack]
  6562                           
  6563                           
  6564                           ;APP_Program.c: 109:     ON_OFF_Status = 0 ;
  6565  0BDC  1283               	bcf	3,5	;RP0=0, select bank0
  6566  0BDD  1303               	bcf	3,6	;RP1=0, select bank0
  6567  0BDE  01C7               	clrf	_ON_OFF_Status
  6568  0BDF                     i1l2223:
  6569                           
  6570                           ;APP_Program.c: 110:     vid_7_Segment_DeInit () ;
  6571  0BDF  120A  158A  24FF  120A  158A  	fcall	i1_vid_7_Segment_DeInit
  6572  0BE4                     i1l77:
  6573  0BE4  0008               	return
  6574  0BE5                     __end_ofi1_OFF_Mode:
  6575                           
  6576                           	psect	text57
  6577  0CFF                     __ptext57:	
  6578 ;; *************** function i1_vid_7_Segment_DeInit *****************
  6579 ;; Defined at:
  6580 ;;		line 45 in file "7_Segment_prog.c"
  6581 ;; Parameters:    Size  Location     Type
  6582 ;;		None
  6583 ;; Auto vars:     Size  Location     Type
  6584 ;;		None
  6585 ;; Return value:  Size  Location     Type
  6586 ;;                  1    wreg      void 
  6587 ;; Registers used:
  6588 ;;		wreg, fsr0l, fsr0h, status,2, status,0, btemp+1, pclath, cstack
  6589 ;; Tracked objects:
  6590 ;;		On entry : 0/0
  6591 ;;		On exit  : 0/0
  6592 ;;		Unchanged: 0/0
  6593 ;; Data sizes:     COMMON   BANK0   BANK1   BANK3   BANK2
  6594 ;;      Params:         0       0       0       0       0
  6595 ;;      Locals:         0       0       0       0       0
  6596 ;;      Temps:          0       0       0       0       0
  6597 ;;      Totals:         0       0       0       0       0
  6598 ;;Total ram usage:        0 bytes
  6599 ;; Hardware stack levels used:    1
  6600 ;; Hardware stack levels required when called:    1
  6601 ;; This function calls:
  6602 ;;		i1_DIO_SetPinValue
  6603 ;; This function is called by:
  6604 ;;		_SetTemp_Mode
  6605 ;;		i1_OFF_Mode
  6606 ;; This function uses a non-reentrant model
  6607 ;;
  6608                           
  6609                           
  6610                           ;psect for function i1_vid_7_Segment_DeInit
  6611  0CFF                     i1_vid_7_Segment_DeInit:
  6612  0CFF                     i1l2109:	
  6613                           ;incstack = 0
  6614 ;; hardware stack exceeded
  6615                           ; Regs used in i1_vid_7_Segment_DeInit: [wreg-fsr0h+status,2+status,0+btemp+1+pclath+cst
      +                          ack]
  6616                           
  6617  0CFF  3004               	movlw	4
  6618  0D00  00FF               	movwf	btemp+1
  6619  0D01  087F               	movf	btemp+1,w
  6620  0D02  00F0               	movwf	i1DIO_SetPinValue@u8PinIdCopy
  6621  0D03  01F1               	clrf	i1DIO_SetPinValue@u8PinValCopy
  6622  0D04  3000               	movlw	0
  6623  0D05  120A  118A  21F5  120A  158A  	fcall	i1_DIO_SetPinValue
  6624  0D0A  3005               	movlw	5
  6625  0D0B  00FF               	movwf	btemp+1
  6626  0D0C  087F               	movf	btemp+1,w
  6627  0D0D  00F0               	movwf	i1DIO_SetPinValue@u8PinIdCopy
  6628  0D0E  01F1               	clrf	i1DIO_SetPinValue@u8PinValCopy
  6629  0D0F  3000               	movlw	0
  6630  0D10  120A  118A  21F5  120A  158A  	fcall	i1_DIO_SetPinValue
  6631  0D15                     i1l408:
  6632  0D15  0008               	return
  6633  0D16                     __end_ofi1_vid_7_Segment_DeInit:
  6634                           
  6635                           	psect	text58
  6636  0C1B                     __ptext58:	
  6637 ;; *************** function _ON_Mode *****************
  6638 ;; Defined at:
  6639 ;;		line 97 in file "APP_Program.c"
  6640 ;; Parameters:    Size  Location     Type
  6641 ;;		None
  6642 ;; Auto vars:     Size  Location     Type
  6643 ;;		None
  6644 ;; Return value:  Size  Location     Type
  6645 ;;                  1    wreg      void 
  6646 ;; Registers used:
  6647 ;;		wreg, fsr0l, fsr0h, status,2, status,0, btemp+1, pclath, cstack
  6648 ;; Tracked objects:
  6649 ;;		On entry : 0/0
  6650 ;;		On exit  : 0/0
  6651 ;;		Unchanged: 0/0
  6652 ;; Data sizes:     COMMON   BANK0   BANK1   BANK3   BANK2
  6653 ;;      Params:         0       0       0       0       0
  6654 ;;      Locals:         0       0       0       0       0
  6655 ;;      Temps:          0       0       0       0       0
  6656 ;;      Totals:         0       0       0       0       0
  6657 ;;Total ram usage:        0 bytes
  6658 ;; Hardware stack levels used:    1
  6659 ;; Hardware stack levels required when called:    3
  6660 ;; This function calls:
  6661 ;;		_vid_7_Segment_Display_2Digits
  6662 ;; This function is called by:
  6663 ;;		_System_Power
  6664 ;;		_RB0_Handler
  6665 ;; This function uses a non-reentrant model
  6666 ;;
  6667                           
  6668                           
  6669                           ;psect for function _ON_Mode
  6670  0C1B                     _ON_Mode:
  6671  0C1B                     i1l2113:	
  6672                           ;incstack = 0
  6673 ;; hardware stack exceeded
  6674                           ; Regs used in _ON_Mode: [wreg-fsr0h+status,2+status,0+btemp+1+pclath+cstack]
  6675                           
  6676                           
  6677                           ;APP_Program.c: 99:     ON_OFF_Status = 1 ;
  6678  0C1B  1283               	bcf	3,5	;RP0=0, select bank0
  6679  0C1C  1303               	bcf	3,6	;RP1=0, select bank0
  6680  0C1D  01C7               	clrf	_ON_OFF_Status
  6681  0C1E  0AC7               	incf	_ON_OFF_Status,f
  6682  0C1F                     i1l2115:
  6683                           
  6684                           ;APP_Program.c: 101:     vid_7_Segment_Display_2Digits(u8_Water_Temp) ;
  6685  0C1F  0843               	movf	_u8_Water_Temp,w
  6686  0C20  120A  118A  25C6  120A  158A  	fcall	_vid_7_Segment_Display_2Digits
  6687  0C25                     i1l74:
  6688  0C25  0008               	return
  6689  0C26                     __end_of_ON_Mode:
  6690                           
  6691                           	psect	text59
  6692  05C6                     __ptext59:	
  6693 ;; *************** function _vid_7_Segment_Display_2Digits *****************
  6694 ;; Defined at:
  6695 ;;		line 75 in file "7_Segment_prog.c"
  6696 ;; Parameters:    Size  Location     Type
  6697 ;;  u8_Num          1    wreg     unsigned char 
  6698 ;; Auto vars:     Size  Location     Type
  6699 ;;  u8_Num          1   12[COMMON] unsigned char 
  6700 ;;  Stability       1   13[COMMON] unsigned char 
  6701 ;;  Tens            1   11[COMMON] unsigned char 
  6702 ;;  Ones            1   10[COMMON] unsigned char 
  6703 ;; Return value:  Size  Location     Type
  6704 ;;                  1    wreg      void 
  6705 ;; Registers used:
  6706 ;;		wreg, fsr0l, fsr0h, status,2, status,0, btemp+1, pclath, cstack
  6707 ;; Tracked objects:
  6708 ;;		On entry : 0/0
  6709 ;;		On exit  : 0/0
  6710 ;;		Unchanged: 0/0
  6711 ;; Data sizes:     COMMON   BANK0   BANK1   BANK3   BANK2
  6712 ;;      Params:         0       0       0       0       0
  6713 ;;      Locals:         4       0       0       0       0
  6714 ;;      Temps:          2       0       0       0       0
  6715 ;;      Totals:         6       0       0       0       0
  6716 ;;Total ram usage:        6 bytes
  6717 ;; Hardware stack levels used:    1
  6718 ;; Hardware stack levels required when called:    2
  6719 ;; This function calls:
  6720 ;;		___awdiv
  6721 ;;		___awmod
  6722 ;;		_vid_Left_7_Segment_DisplayNumber
  6723 ;;		_vid_Right_7_Segment_DisplayNumber
  6724 ;;		i1_DIO_SetPinValue
  6725 ;; This function is called by:
  6726 ;;		_ON_Mode
  6727 ;;		_SetTemp_Mode
  6728 ;;		_Temp_ControlWaterTemp
  6729 ;; This function uses a non-reentrant model
  6730 ;;
  6731                           
  6732                           
  6733                           ;psect for function _vid_7_Segment_Display_2Digits
  6734  05C6                     _vid_7_Segment_Display_2Digits:
  6735                           
  6736                           ;incstack = 0
  6737 ;; hardware stack exceeded
  6738                           ; Regs used in _vid_7_Segment_Display_2Digits: [wreg-fsr0h+status,2+status,0+btemp+1+pcl
      +                          ath+cstack]
  6739                           ;vid_7_Segment_Display_2Digits@u8_Num stored from wreg
  6740  05C6  00FC               	movwf	vid_7_Segment_Display_2Digits@u8_Num
  6741  05C7                     i1l2073:
  6742  05C7  300A               	movlw	10
  6743  05C8  00F0               	movwf	___awmod@divisor
  6744  05C9  3000               	movlw	0
  6745  05CA  00F1               	movwf	___awmod@divisor+1
  6746  05CB  087C               	movf	vid_7_Segment_Display_2Digits@u8_Num,w
  6747  05CC  00F8               	movwf	??_vid_7_Segment_Display_2Digits
  6748  05CD  01F9               	clrf	??_vid_7_Segment_Display_2Digits+1
  6749  05CE  0878               	movf	??_vid_7_Segment_Display_2Digits,w
  6750  05CF  00F2               	movwf	___awmod@dividend
  6751  05D0  0879               	movf	??_vid_7_Segment_Display_2Digits+1,w
  6752  05D1  00F3               	movwf	___awmod@dividend+1
  6753  05D2  120A  118A  2624  120A  118A  	fcall	___awmod
  6754  05D7  0870               	movf	?___awmod,w
  6755  05D8  00FF               	movwf	btemp+1
  6756  05D9  087F               	movf	btemp+1,w
  6757  05DA  00FA               	movwf	vid_7_Segment_Display_2Digits@Ones
  6758  05DB  300A               	movlw	10
  6759  05DC  00F0               	movwf	___awdiv@divisor
  6760  05DD  3000               	movlw	0
  6761  05DE  00F1               	movwf	___awdiv@divisor+1
  6762  05DF  087C               	movf	vid_7_Segment_Display_2Digits@u8_Num,w
  6763  05E0  00F8               	movwf	??_vid_7_Segment_Display_2Digits
  6764  05E1  01F9               	clrf	??_vid_7_Segment_Display_2Digits+1
  6765  05E2  0878               	movf	??_vid_7_Segment_Display_2Digits,w
  6766  05E3  00F2               	movwf	___awdiv@dividend
  6767  05E4  0879               	movf	??_vid_7_Segment_Display_2Digits+1,w
  6768  05E5  00F3               	movwf	___awdiv@dividend+1
  6769  05E6  120A  118A  255F  120A  118A  	fcall	___awdiv
  6770  05EB  0870               	movf	?___awdiv,w
  6771  05EC  00FF               	movwf	btemp+1
  6772  05ED  087F               	movf	btemp+1,w
  6773  05EE  00FB               	movwf	vid_7_Segment_Display_2Digits@Tens
  6774  05EF                     i1l2075:
  6775  05EF  01FD               	clrf	vid_7_Segment_Display_2Digits@Stability
  6776  05F0                     i1l2081:
  6777  05F0  087A               	movf	vid_7_Segment_Display_2Digits@Ones,w
  6778  05F1  120A  158A  2650  120A  118A  	fcall	_vid_Right_7_Segment_DisplayNumber
  6779  05F6                     i1l2083:
  6780  05F6  301A               	movlw	26
  6781  05F7  00F9               	movwf	??_vid_7_Segment_Display_2Digits+1
  6782  05F8  30F8               	movlw	248
  6783  05F9  00F8               	movwf	??_vid_7_Segment_Display_2Digits
  6784  05FA                     u229_27:
  6785  05FA  0BF8               	decfsz	??_vid_7_Segment_Display_2Digits,f
  6786  05FB  2DFA               	goto	u229_27
  6787  05FC  0BF9               	decfsz	??_vid_7_Segment_Display_2Digits+1,f
  6788  05FD  2DFA               	goto	u229_27
  6789  05FE  0000               	nop
  6790  05FF                     i1l2085:
  6791  05FF  087B               	movf	vid_7_Segment_Display_2Digits@Tens,w
  6792  0600  120A  158A  2626  120A  118A  	fcall	_vid_Left_7_Segment_DisplayNumber
  6793  0605  301A               	movlw	26
  6794  0606  00F9               	movwf	??_vid_7_Segment_Display_2Digits+1
  6795  0607  30F8               	movlw	248
  6796  0608  00F8               	movwf	??_vid_7_Segment_Display_2Digits
  6797  0609                     u230_27:
  6798  0609  0BF8               	decfsz	??_vid_7_Segment_Display_2Digits,f
  6799  060A  2E09               	goto	u230_27
  6800  060B  0BF9               	decfsz	??_vid_7_Segment_Display_2Digits+1,f
  6801  060C  2E09               	goto	u230_27
  6802  060D  0000               	nop
  6803  060E                     i1l2087:
  6804  060E  3001               	movlw	1
  6805  060F  00FF               	movwf	btemp+1
  6806  0610  087F               	movf	btemp+1,w
  6807  0611  07FD               	addwf	vid_7_Segment_Display_2Digits@Stability,f
  6808  0612                     i1l2089:
  6809  0612  3032               	movlw	50
  6810  0613  027D               	subwf	vid_7_Segment_Display_2Digits@Stability,w
  6811  0614  1C03               	skipc
  6812  0615  2E17               	goto	u122_21
  6813  0616  2E18               	goto	u122_20
  6814  0617                     u122_21:
  6815  0617  2DF0               	goto	i1l2081
  6816  0618                     u122_20:
  6817  0618                     i1l2091:
  6818  0618  3004               	movlw	4
  6819  0619  00FF               	movwf	btemp+1
  6820  061A  087F               	movf	btemp+1,w
  6821  061B  00F0               	movwf	i1DIO_SetPinValue@u8PinIdCopy
  6822  061C  01F1               	clrf	i1DIO_SetPinValue@u8PinValCopy
  6823  061D  3000               	movlw	0
  6824  061E  120A  118A  21F5  120A  118A  	fcall	i1_DIO_SetPinValue
  6825  0623                     i1l419:
  6826  0623  0008               	return
  6827  0624                     __end_of_vid_7_Segment_Display_2Digits:
  6828                           
  6829                           	psect	text60
  6830  0E50                     __ptext60:	
  6831 ;; *************** function _vid_Right_7_Segment_DisplayNumber *****************
  6832 ;; Defined at:
  6833 ;;		line 65 in file "7_Segment_prog.c"
  6834 ;; Parameters:    Size  Location     Type
  6835 ;;  u8_Number       1    wreg     unsigned char 
  6836 ;; Auto vars:     Size  Location     Type
  6837 ;;  u8_Number       1    5[COMMON] unsigned char 
  6838 ;; Return value:  Size  Location     Type
  6839 ;;                  1    wreg      void 
  6840 ;; Registers used:
  6841 ;;		wreg, fsr0l, fsr0h, status,2, status,0, btemp+1, pclath, cstack
  6842 ;; Tracked objects:
  6843 ;;		On entry : 0/0
  6844 ;;		On exit  : 0/0
  6845 ;;		Unchanged: 0/0
  6846 ;; Data sizes:     COMMON   BANK0   BANK1   BANK3   BANK2
  6847 ;;      Params:         0       0       0       0       0
  6848 ;;      Locals:         1       0       0       0       0
  6849 ;;      Temps:          0       0       0       0       0
  6850 ;;      Totals:         1       0       0       0       0
  6851 ;;Total ram usage:        1 bytes
  6852 ;; Hardware stack levels used:    1
  6853 ;; Hardware stack levels required when called:    1
  6854 ;; This function calls:
  6855 ;;		_DIO_SetPortValue
  6856 ;;		i1_DIO_SetPinValue
  6857 ;; This function is called by:
  6858 ;;		_vid_7_Segment_Display_2Digits
  6859 ;; This function uses a non-reentrant model
  6860 ;;
  6861                           
  6862                           
  6863                           ;psect for function _vid_Right_7_Segment_DisplayNumber
  6864  0E50                     _vid_Right_7_Segment_DisplayNumber:
  6865                           
  6866                           ;incstack = 0
  6867 ;; hardware stack exceeded
  6868                           ; Regs used in _vid_Right_7_Segment_DisplayNumber: [wreg-fsr0h+status,2+status,0+btemp+1
      +                          +pclath+cstack]
  6869                           ;vid_Right_7_Segment_DisplayNumber@u8_Number stored from wreg
  6870  0E50  00F5               	movwf	vid_Right_7_Segment_DisplayNumber@u8_Number
  6871  0E51                     i1l1985:
  6872  0E51  3004               	movlw	4
  6873  0E52  00FF               	movwf	btemp+1
  6874  0E53  087F               	movf	btemp+1,w
  6875  0E54  00F0               	movwf	i1DIO_SetPinValue@u8PinIdCopy
  6876  0E55  01F1               	clrf	i1DIO_SetPinValue@u8PinValCopy
  6877  0E56  3000               	movlw	0
  6878  0E57  120A  118A  21F5  120A  158A  	fcall	i1_DIO_SetPinValue
  6879  0E5C  3005               	movlw	5
  6880  0E5D  00FF               	movwf	btemp+1
  6881  0E5E  087F               	movf	btemp+1,w
  6882  0E5F  00F0               	movwf	i1DIO_SetPinValue@u8PinIdCopy
  6883  0E60  01F1               	clrf	i1DIO_SetPinValue@u8PinValCopy
  6884  0E61  0AF1               	incf	i1DIO_SetPinValue@u8PinValCopy,f
  6885  0E62  3000               	movlw	0
  6886  0E63  120A  118A  21F5  120A  158A  	fcall	i1_DIO_SetPinValue
  6887  0E68  0875               	movf	vid_Right_7_Segment_DisplayNumber@u8_Number,w
  6888  0E69  3E01               	addlw	low ((_u8_Right_7Segment-__stringbase)| (0+32768))
  6889  0E6A  0084               	movwf	4
  6890  0E6B  120A  158A  2000  120A  158A  	fcall	stringdir
  6891  0E70  00FF               	movwf	btemp+1
  6892  0E71  087F               	movf	btemp+1,w
  6893  0E72  00F0               	movwf	DIO_SetPortValue@u8PortVal
  6894  0E73  3003               	movlw	3
  6895  0E74  120A  158A  2794  120A  158A  	fcall	_DIO_SetPortValue
  6896  0E79                     i1l414:
  6897  0E79  0008               	return
  6898  0E7A                     __end_of_vid_Right_7_Segment_DisplayNumber:
  6899                           
  6900                           	psect	text61
  6901  0E26                     __ptext61:	
  6902 ;; *************** function _vid_Left_7_Segment_DisplayNumber *****************
  6903 ;; Defined at:
  6904 ;;		line 53 in file "7_Segment_prog.c"
  6905 ;; Parameters:    Size  Location     Type
  6906 ;;  u8_Number       1    wreg     unsigned char 
  6907 ;; Auto vars:     Size  Location     Type
  6908 ;;  u8_Number       1    5[COMMON] unsigned char 
  6909 ;; Return value:  Size  Location     Type
  6910 ;;                  1    wreg      void 
  6911 ;; Registers used:
  6912 ;;		wreg, fsr0l, fsr0h, status,2, status,0, btemp+1, pclath, cstack
  6913 ;; Tracked objects:
  6914 ;;		On entry : 0/0
  6915 ;;		On exit  : 0/0
  6916 ;;		Unchanged: 0/0
  6917 ;; Data sizes:     COMMON   BANK0   BANK1   BANK3   BANK2
  6918 ;;      Params:         0       0       0       0       0
  6919 ;;      Locals:         1       0       0       0       0
  6920 ;;      Temps:          0       0       0       0       0
  6921 ;;      Totals:         1       0       0       0       0
  6922 ;;Total ram usage:        1 bytes
  6923 ;; Hardware stack levels used:    1
  6924 ;; Hardware stack levels required when called:    1
  6925 ;; This function calls:
  6926 ;;		_DIO_SetPortValue
  6927 ;;		i1_DIO_SetPinValue
  6928 ;; This function is called by:
  6929 ;;		_vid_7_Segment_Display_2Digits
  6930 ;; This function uses a non-reentrant model
  6931 ;;
  6932                           
  6933                           
  6934                           ;psect for function _vid_Left_7_Segment_DisplayNumber
  6935  0E26                     _vid_Left_7_Segment_DisplayNumber:
  6936                           
  6937                           ;incstack = 0
  6938 ;; hardware stack exceeded
  6939                           ; Regs used in _vid_Left_7_Segment_DisplayNumber: [wreg-fsr0h+status,2+status,0+btemp+1+
      +                          pclath+cstack]
  6940                           ;vid_Left_7_Segment_DisplayNumber@u8_Number stored from wreg
  6941  0E26  00F5               	movwf	vid_Left_7_Segment_DisplayNumber@u8_Number
  6942  0E27                     i1l1983:
  6943  0E27  3005               	movlw	5
  6944  0E28  00FF               	movwf	btemp+1
  6945  0E29  087F               	movf	btemp+1,w
  6946  0E2A  00F0               	movwf	i1DIO_SetPinValue@u8PinIdCopy
  6947  0E2B  01F1               	clrf	i1DIO_SetPinValue@u8PinValCopy
  6948  0E2C  3000               	movlw	0
  6949  0E2D  120A  118A  21F5  120A  158A  	fcall	i1_DIO_SetPinValue
  6950  0E32  3004               	movlw	4
  6951  0E33  00FF               	movwf	btemp+1
  6952  0E34  087F               	movf	btemp+1,w
  6953  0E35  00F0               	movwf	i1DIO_SetPinValue@u8PinIdCopy
  6954  0E36  01F1               	clrf	i1DIO_SetPinValue@u8PinValCopy
  6955  0E37  0AF1               	incf	i1DIO_SetPinValue@u8PinValCopy,f
  6956  0E38  3000               	movlw	0
  6957  0E39  120A  118A  21F5  120A  158A  	fcall	i1_DIO_SetPinValue
  6958  0E3E  0875               	movf	vid_Left_7_Segment_DisplayNumber@u8_Number,w
  6959  0E3F  3E0B               	addlw	low ((_u8_Left_7Segment-__stringbase)| (0+32768))
  6960  0E40  0084               	movwf	4
  6961  0E41  120A  158A  2000  120A  158A  	fcall	stringdir
  6962  0E46  00FF               	movwf	btemp+1
  6963  0E47  087F               	movf	btemp+1,w
  6964  0E48  00F0               	movwf	DIO_SetPortValue@u8PortVal
  6965  0E49  3003               	movlw	3
  6966  0E4A  120A  158A  2794  120A  158A  	fcall	_DIO_SetPortValue
  6967  0E4F                     i1l411:
  6968  0E4F  0008               	return
  6969  0E50                     __end_of_vid_Left_7_Segment_DisplayNumber:
  6970                           
  6971                           	psect	text62
  6972  01F5                     __ptext62:	
  6973 ;; *************** function i1_DIO_SetPinValue *****************
  6974 ;; Defined at:
  6975 ;;		line 61 in file "DIO_Prog.c"
  6976 ;; Parameters:    Size  Location     Type
  6977 ;;  u8PortIdCopy    1    wreg     unsigned char 
  6978 ;;  u8PinIdCopy     1    0[COMMON] unsigned char 
  6979 ;;  u8PinValCopy    1    1[COMMON] unsigned char 
  6980 ;; Auto vars:     Size  Location     Type
  6981 ;;  u8PortIdCopy    1    4[COMMON] unsigned char 
  6982 ;; Return value:  Size  Location     Type
  6983 ;;                  1    wreg      void 
  6984 ;; Registers used:
  6985 ;;		wreg, fsr0l, fsr0h, status,2, status,0, btemp+1
  6986 ;; Tracked objects:
  6987 ;;		On entry : 0/0
  6988 ;;		On exit  : 0/0
  6989 ;;		Unchanged: 0/0
  6990 ;; Data sizes:     COMMON   BANK0   BANK1   BANK3   BANK2
  6991 ;;      Params:         2       0       0       0       0
  6992 ;;      Locals:         1       0       0       0       0
  6993 ;;      Temps:          2       0       0       0       0
  6994 ;;      Totals:         5       0       0       0       0
  6995 ;;Total ram usage:        5 bytes
  6996 ;; Hardware stack levels used:    1
  6997 ;; This function calls:
  6998 ;;		Nothing
  6999 ;; This function is called by:
  7000 ;;		_Cooler_TurnOn
  7001 ;;		_Cooler_TurnOff
  7002 ;;		_Heater_TurnOn
  7003 ;;		_Heater_TurnOff
  7004 ;;		_vid_Left_7_Segment_DisplayNumber
  7005 ;;		_vid_Right_7_Segment_DisplayNumber
  7006 ;;		_vid_7_Segment_Display_2Digits
  7007 ;;		i1_vid_7_Segment_DeInit
  7008 ;; This function uses a non-reentrant model
  7009 ;;
  7010                           
  7011                           
  7012                           ;psect for function i1_DIO_SetPinValue
  7013  01F5                     i1_DIO_SetPinValue:
  7014                           
  7015                           ;incstack = 0
  7016 ;; hardware stack exceeded
  7017                           ; Regs used in i1_DIO_SetPinValue: [wreg-fsr0h+status,2+status,0+btemp+1]
  7018                           ;i1DIO_SetPinValue@u8PortIdCopy stored from wreg
  7019  01F5  00F4               	movwf	i1DIO_SetPinValue@u8PortIdCopy
  7020  01F6                     i1l1939:
  7021                           
  7022                           ;DIO_Prog.c: 61: void DIO_SetPinValue(u8 u8PortIdCopy , u8 u8PinIdCopy, u8 u8PinValCopy)
      +                          ;DIO_Prog.c: 62: {;DIO_Prog.c: 64:  if ((u8PortIdCopy <= 3) && (u8PinIdCopy <= 7))
  7023  01F6  3004               	movlw	4
  7024  01F7  0274               	subwf	i1DIO_SetPinValue@u8PortIdCopy,w
  7025  01F8  1803               	skipnc
  7026  01F9  29FB               	goto	u89_21
  7027  01FA  29FC               	goto	u89_20
  7028  01FB                     u89_21:
  7029  01FB  2ABE               	goto	i1l202
  7030  01FC                     u89_20:
  7031  01FC                     i1l1941:
  7032  01FC  3008               	movlw	8
  7033  01FD  0270               	subwf	i1DIO_SetPinValue@u8PinIdCopy,w
  7034  01FE  1803               	skipnc
  7035  01FF  2A01               	goto	u90_21
  7036  0200  2A02               	goto	u90_20
  7037  0201                     u90_21:
  7038  0201  2ABE               	goto	i1l202
  7039  0202                     u90_20:
  7040  0202                     i1l1943:
  7041                           
  7042                           ;DIO_Prog.c: 65:  {;DIO_Prog.c: 66:   if (u8PinValCopy == 1)
  7043  0202  0371               	decf	i1DIO_SetPinValue@u8PinValCopy,w
  7044  0203  1D03               	btfss	3,2
  7045  0204  2A06               	goto	u91_21
  7046  0205  2A07               	goto	u91_20
  7047  0206                     u91_21:
  7048  0206  2A5E               	goto	i1l1959
  7049  0207                     u91_20:
  7050  0207  2A48               	goto	i1l1957
  7051  0208                     i1l1947:
  7052  0208  3001               	movlw	1
  7053  0209  00F2               	movwf	??i1_DIO_SetPinValue
  7054  020A  0A70               	incf	i1DIO_SetPinValue@u8PinIdCopy,w
  7055  020B  2A0E               	goto	u92_24
  7056  020C                     u92_25:
  7057  020C  1003               	clrc
  7058  020D  0DF2               	rlf	??i1_DIO_SetPinValue,f
  7059  020E                     u92_24:
  7060  020E  3EFF               	addlw	-1
  7061  020F  1D03               	skipz
  7062  0210  2A0C               	goto	u92_25
  7063  0211  0872               	movf	??i1_DIO_SetPinValue,w
  7064  0212  00FF               	movwf	btemp+1
  7065  0213  087F               	movf	btemp+1,w
  7066  0214  1283               	bcf	3,5	;RP0=0, select bank0
  7067  0215  1303               	bcf	3,6	;RP1=0, select bank0
  7068  0216  0485               	iorwf	5,f	;volatile
  7069  0217  2ABE               	goto	i1l202
  7070  0218                     i1l1949:
  7071  0218  3001               	movlw	1
  7072  0219  00F2               	movwf	??i1_DIO_SetPinValue
  7073  021A  0A70               	incf	i1DIO_SetPinValue@u8PinIdCopy,w
  7074  021B  2A1E               	goto	u93_24
  7075  021C                     u93_25:
  7076  021C  1003               	clrc
  7077  021D  0DF2               	rlf	??i1_DIO_SetPinValue,f
  7078  021E                     u93_24:
  7079  021E  3EFF               	addlw	-1
  7080  021F  1D03               	skipz
  7081  0220  2A1C               	goto	u93_25
  7082  0221  0872               	movf	??i1_DIO_SetPinValue,w
  7083  0222  00FF               	movwf	btemp+1
  7084  0223  087F               	movf	btemp+1,w
  7085  0224  1283               	bcf	3,5	;RP0=0, select bank0
  7086  0225  1303               	bcf	3,6	;RP1=0, select bank0
  7087  0226  0486               	iorwf	6,f	;volatile
  7088  0227  2ABE               	goto	i1l202
  7089  0228                     i1l1951:
  7090  0228  3001               	movlw	1
  7091  0229  00F2               	movwf	??i1_DIO_SetPinValue
  7092  022A  0A70               	incf	i1DIO_SetPinValue@u8PinIdCopy,w
  7093  022B  2A2E               	goto	u94_24
  7094  022C                     u94_25:
  7095  022C  1003               	clrc
  7096  022D  0DF2               	rlf	??i1_DIO_SetPinValue,f
  7097  022E                     u94_24:
  7098  022E  3EFF               	addlw	-1
  7099  022F  1D03               	skipz
  7100  0230  2A2C               	goto	u94_25
  7101  0231  0872               	movf	??i1_DIO_SetPinValue,w
  7102  0232  00FF               	movwf	btemp+1
  7103  0233  087F               	movf	btemp+1,w
  7104  0234  1283               	bcf	3,5	;RP0=0, select bank0
  7105  0235  1303               	bcf	3,6	;RP1=0, select bank0
  7106  0236  0487               	iorwf	7,f	;volatile
  7107  0237  2ABE               	goto	i1l202
  7108  0238                     i1l1953:
  7109  0238  3001               	movlw	1
  7110  0239  00F2               	movwf	??i1_DIO_SetPinValue
  7111  023A  0A70               	incf	i1DIO_SetPinValue@u8PinIdCopy,w
  7112  023B  2A3E               	goto	u95_24
  7113  023C                     u95_25:
  7114  023C  1003               	clrc
  7115  023D  0DF2               	rlf	??i1_DIO_SetPinValue,f
  7116  023E                     u95_24:
  7117  023E  3EFF               	addlw	-1
  7118  023F  1D03               	skipz
  7119  0240  2A3C               	goto	u95_25
  7120  0241  0872               	movf	??i1_DIO_SetPinValue,w
  7121  0242  00FF               	movwf	btemp+1
  7122  0243  087F               	movf	btemp+1,w
  7123  0244  1283               	bcf	3,5	;RP0=0, select bank0
  7124  0245  1303               	bcf	3,6	;RP1=0, select bank0
  7125  0246  0488               	iorwf	8,f	;volatile
  7126  0247  2ABE               	goto	i1l202
  7127  0248                     i1l1957:
  7128  0248  0874               	movf	i1DIO_SetPinValue@u8PortIdCopy,w
  7129  0249  00F2               	movwf	??i1_DIO_SetPinValue
  7130  024A  01F3               	clrf	??i1_DIO_SetPinValue+1
  7131                           
  7132                           ; Switch on 2 bytes has been partitioned into a top level switch of size 1, and 1 sub-sw
      +                          itches
  7133                           ; Switch size 1, requested type "simple"
  7134                           ; Number of cases is 1, Range of values is 0 to 0
  7135                           ; switch strategies available:
  7136                           ; Name         Instructions Cycles
  7137                           ; simple_byte            4     3 (average)
  7138                           ; direct_byte           11     8 (fixed)
  7139                           ; jumptable            260     6 (fixed)
  7140                           ;	Chosen strategy is simple_byte
  7141  024B  0873               	movf	??i1_DIO_SetPinValue+1,w
  7142  024C  3A00               	xorlw	0	; case 0
  7143  024D  1903               	skipnz
  7144  024E  2A50               	goto	i1l3211
  7145  024F  2ABE               	goto	i1l202
  7146  0250                     i1l3211:
  7147                           
  7148                           ; Switch size 1, requested type "simple"
  7149                           ; Number of cases is 4, Range of values is 0 to 3
  7150                           ; switch strategies available:
  7151                           ; Name         Instructions Cycles
  7152                           ; simple_byte           13     7 (average)
  7153                           ; direct_byte           20     8 (fixed)
  7154                           ; jumptable            260     6 (fixed)
  7155                           ;	Chosen strategy is simple_byte
  7156  0250  0872               	movf	??i1_DIO_SetPinValue,w
  7157  0251  3A00               	xorlw	0	; case 0
  7158  0252  1903               	skipnz
  7159  0253  2A08               	goto	i1l1947
  7160  0254  3A01               	xorlw	1	; case 1
  7161  0255  1903               	skipnz
  7162  0256  2A18               	goto	i1l1949
  7163  0257  3A03               	xorlw	3	; case 2
  7164  0258  1903               	skipnz
  7165  0259  2A28               	goto	i1l1951
  7166  025A  3A01               	xorlw	1	; case 3
  7167  025B  1903               	skipnz
  7168  025C  2A38               	goto	i1l1953
  7169  025D  2ABE               	goto	i1l202
  7170  025E                     i1l1959:
  7171  025E  0871               	movf	i1DIO_SetPinValue@u8PinValCopy,w
  7172  025F  1D03               	btfss	3,2
  7173  0260  2A62               	goto	u96_21
  7174  0261  2A63               	goto	u96_20
  7175  0262                     u96_21:
  7176  0262  2ABE               	goto	i1l192
  7177  0263                     u96_20:
  7178  0263  2AA8               	goto	i1l1973
  7179  0264                     i1l1963:
  7180  0264  3001               	movlw	1
  7181  0265  00F2               	movwf	??i1_DIO_SetPinValue
  7182  0266  0A70               	incf	i1DIO_SetPinValue@u8PinIdCopy,w
  7183  0267  2A6A               	goto	u97_24
  7184  0268                     u97_25:
  7185  0268  1003               	clrc
  7186  0269  0DF2               	rlf	??i1_DIO_SetPinValue,f
  7187  026A                     u97_24:
  7188  026A  3EFF               	addlw	-1
  7189  026B  1D03               	skipz
  7190  026C  2A68               	goto	u97_25
  7191  026D  0872               	movf	??i1_DIO_SetPinValue,w
  7192  026E  3AFF               	xorlw	255
  7193  026F  00FF               	movwf	btemp+1
  7194  0270  087F               	movf	btemp+1,w
  7195  0271  1283               	bcf	3,5	;RP0=0, select bank0
  7196  0272  1303               	bcf	3,6	;RP1=0, select bank0
  7197  0273  0585               	andwf	5,f	;volatile
  7198  0274  2ABE               	goto	i1l202
  7199  0275                     i1l1965:
  7200  0275  3001               	movlw	1
  7201  0276  00F2               	movwf	??i1_DIO_SetPinValue
  7202  0277  0A70               	incf	i1DIO_SetPinValue@u8PinIdCopy,w
  7203  0278  2A7B               	goto	u98_24
  7204  0279                     u98_25:
  7205  0279  1003               	clrc
  7206  027A  0DF2               	rlf	??i1_DIO_SetPinValue,f
  7207  027B                     u98_24:
  7208  027B  3EFF               	addlw	-1
  7209  027C  1D03               	skipz
  7210  027D  2A79               	goto	u98_25
  7211  027E  0872               	movf	??i1_DIO_SetPinValue,w
  7212  027F  3AFF               	xorlw	255
  7213  0280  00FF               	movwf	btemp+1
  7214  0281  087F               	movf	btemp+1,w
  7215  0282  1283               	bcf	3,5	;RP0=0, select bank0
  7216  0283  1303               	bcf	3,6	;RP1=0, select bank0
  7217  0284  0586               	andwf	6,f	;volatile
  7218  0285  2ABE               	goto	i1l202
  7219  0286                     i1l1967:
  7220  0286  3001               	movlw	1
  7221  0287  00F2               	movwf	??i1_DIO_SetPinValue
  7222  0288  0A70               	incf	i1DIO_SetPinValue@u8PinIdCopy,w
  7223  0289  2A8C               	goto	u99_24
  7224  028A                     u99_25:
  7225  028A  1003               	clrc
  7226  028B  0DF2               	rlf	??i1_DIO_SetPinValue,f
  7227  028C                     u99_24:
  7228  028C  3EFF               	addlw	-1
  7229  028D  1D03               	skipz
  7230  028E  2A8A               	goto	u99_25
  7231  028F  0872               	movf	??i1_DIO_SetPinValue,w
  7232  0290  3AFF               	xorlw	255
  7233  0291  00FF               	movwf	btemp+1
  7234  0292  087F               	movf	btemp+1,w
  7235  0293  1283               	bcf	3,5	;RP0=0, select bank0
  7236  0294  1303               	bcf	3,6	;RP1=0, select bank0
  7237  0295  0587               	andwf	7,f	;volatile
  7238  0296  2ABE               	goto	i1l202
  7239  0297                     i1l1969:
  7240  0297  3001               	movlw	1
  7241  0298  00F2               	movwf	??i1_DIO_SetPinValue
  7242  0299  0A70               	incf	i1DIO_SetPinValue@u8PinIdCopy,w
  7243  029A  2A9D               	goto	u100_24
  7244  029B                     u100_25:
  7245  029B  1003               	clrc
  7246  029C  0DF2               	rlf	??i1_DIO_SetPinValue,f
  7247  029D                     u100_24:
  7248  029D  3EFF               	addlw	-1
  7249  029E  1D03               	skipz
  7250  029F  2A9B               	goto	u100_25
  7251  02A0  0872               	movf	??i1_DIO_SetPinValue,w
  7252  02A1  3AFF               	xorlw	255
  7253  02A2  00FF               	movwf	btemp+1
  7254  02A3  087F               	movf	btemp+1,w
  7255  02A4  1283               	bcf	3,5	;RP0=0, select bank0
  7256  02A5  1303               	bcf	3,6	;RP1=0, select bank0
  7257  02A6  0588               	andwf	8,f	;volatile
  7258  02A7  2ABE               	goto	i1l202
  7259  02A8                     i1l1973:
  7260  02A8  0874               	movf	i1DIO_SetPinValue@u8PortIdCopy,w
  7261  02A9  00F2               	movwf	??i1_DIO_SetPinValue
  7262  02AA  01F3               	clrf	??i1_DIO_SetPinValue+1
  7263                           
  7264                           ; Switch on 2 bytes has been partitioned into a top level switch of size 1, and 1 sub-sw
      +                          itches
  7265                           ; Switch size 1, requested type "simple"
  7266                           ; Number of cases is 1, Range of values is 0 to 0
  7267                           ; switch strategies available:
  7268                           ; Name         Instructions Cycles
  7269                           ; simple_byte            4     3 (average)
  7270                           ; direct_byte           11     8 (fixed)
  7271                           ; jumptable            260     6 (fixed)
  7272                           ;	Chosen strategy is simple_byte
  7273  02AB  0873               	movf	??i1_DIO_SetPinValue+1,w
  7274  02AC  3A00               	xorlw	0	; case 0
  7275  02AD  1903               	skipnz
  7276  02AE  2AB0               	goto	i1l3213
  7277  02AF  2ABE               	goto	i1l192
  7278  02B0                     i1l3213:
  7279                           
  7280                           ; Switch size 1, requested type "simple"
  7281                           ; Number of cases is 4, Range of values is 0 to 3
  7282                           ; switch strategies available:
  7283                           ; Name         Instructions Cycles
  7284                           ; simple_byte           13     7 (average)
  7285                           ; direct_byte           20     8 (fixed)
  7286                           ; jumptable            260     6 (fixed)
  7287                           ;	Chosen strategy is simple_byte
  7288  02B0  0872               	movf	??i1_DIO_SetPinValue,w
  7289  02B1  3A00               	xorlw	0	; case 0
  7290  02B2  1903               	skipnz
  7291  02B3  2A64               	goto	i1l1963
  7292  02B4  3A01               	xorlw	1	; case 1
  7293  02B5  1903               	skipnz
  7294  02B6  2A75               	goto	i1l1965
  7295  02B7  3A03               	xorlw	3	; case 2
  7296  02B8  1903               	skipnz
  7297  02B9  2A86               	goto	i1l1967
  7298  02BA  3A01               	xorlw	1	; case 3
  7299  02BB  1903               	skipnz
  7300  02BC  2A97               	goto	i1l1969
  7301  02BD  2ABE               	goto	i1l192
  7302  02BE                     i1l192:
  7303  02BE                     i1l202:	
  7304                           ;DIO_Prog.c: 95:  }
  7305                           
  7306  02BE  0008               	return
  7307  02BF                     __end_ofi1_DIO_SetPinValue:
  7308                           
  7309                           	psect	text63
  7310  0F94                     __ptext63:	
  7311 ;; *************** function _DIO_SetPortValue *****************
  7312 ;; Defined at:
  7313 ;;		line 148 in file "DIO_Prog.c"
  7314 ;; Parameters:    Size  Location     Type
  7315 ;;  u8PortId        1    wreg     unsigned char 
  7316 ;;  u8PortVal       1    0[COMMON] unsigned char 
  7317 ;; Auto vars:     Size  Location     Type
  7318 ;;  u8PortId        1    3[COMMON] unsigned char 
  7319 ;; Return value:  Size  Location     Type
  7320 ;;                  1    wreg      void 
  7321 ;; Registers used:
  7322 ;;		wreg, fsr0l, fsr0h, status,2, status,0, btemp+1
  7323 ;; Tracked objects:
  7324 ;;		On entry : 0/0
  7325 ;;		On exit  : 0/0
  7326 ;;		Unchanged: 0/0
  7327 ;; Data sizes:     COMMON   BANK0   BANK1   BANK3   BANK2
  7328 ;;      Params:         1       0       0       0       0
  7329 ;;      Locals:         1       0       0       0       0
  7330 ;;      Temps:          2       0       0       0       0
  7331 ;;      Totals:         4       0       0       0       0
  7332 ;;Total ram usage:        4 bytes
  7333 ;; Hardware stack levels used:    1
  7334 ;; This function calls:
  7335 ;;		Nothing
  7336 ;; This function is called by:
  7337 ;;		_vid_Left_7_Segment_DisplayNumber
  7338 ;;		_vid_Right_7_Segment_DisplayNumber
  7339 ;; This function uses a non-reentrant model
  7340 ;;
  7341                           
  7342                           
  7343                           ;psect for function _DIO_SetPortValue
  7344  0F94                     _DIO_SetPortValue:
  7345                           
  7346                           ;incstack = 0
  7347 ;; hardware stack exceeded
  7348                           ; Regs used in _DIO_SetPortValue: [wreg-fsr0h+status,2+status,0+btemp+1]
  7349                           ;DIO_SetPortValue@u8PortId stored from wreg
  7350  0F94  00F3               	movwf	DIO_SetPortValue@u8PortId
  7351  0F95                     i1l1921:
  7352                           
  7353                           ;DIO_Prog.c: 148: void DIO_SetPortValue (u8 u8PortId, u8 u8PortVal);DIO_Prog.c: 149: {;D
      +                          IO_Prog.c: 151:  switch (u8PortId)
  7354  0F95  2FB2               	goto	i1l1933
  7355  0F96                     i1l1923:
  7356  0F96  0870               	movf	DIO_SetPortValue@u8PortVal,w
  7357  0F97  00FF               	movwf	btemp+1
  7358  0F98  087F               	movf	btemp+1,w
  7359  0F99  1283               	bcf	3,5	;RP0=0, select bank0
  7360  0F9A  1303               	bcf	3,6	;RP1=0, select bank0
  7361  0F9B  0085               	movwf	5	;volatile
  7362  0F9C  2FC8               	goto	i1l233
  7363  0F9D                     i1l1925:
  7364  0F9D  0870               	movf	DIO_SetPortValue@u8PortVal,w
  7365  0F9E  00FF               	movwf	btemp+1
  7366  0F9F  087F               	movf	btemp+1,w
  7367  0FA0  1283               	bcf	3,5	;RP0=0, select bank0
  7368  0FA1  1303               	bcf	3,6	;RP1=0, select bank0
  7369  0FA2  0086               	movwf	6	;volatile
  7370  0FA3  2FC8               	goto	i1l233
  7371  0FA4                     i1l1927:
  7372  0FA4  0870               	movf	DIO_SetPortValue@u8PortVal,w
  7373  0FA5  00FF               	movwf	btemp+1
  7374  0FA6  087F               	movf	btemp+1,w
  7375  0FA7  1283               	bcf	3,5	;RP0=0, select bank0
  7376  0FA8  1303               	bcf	3,6	;RP1=0, select bank0
  7377  0FA9  0087               	movwf	7	;volatile
  7378  0FAA  2FC8               	goto	i1l233
  7379  0FAB                     i1l1929:
  7380  0FAB  0870               	movf	DIO_SetPortValue@u8PortVal,w
  7381  0FAC  00FF               	movwf	btemp+1
  7382  0FAD  087F               	movf	btemp+1,w
  7383  0FAE  1283               	bcf	3,5	;RP0=0, select bank0
  7384  0FAF  1303               	bcf	3,6	;RP1=0, select bank0
  7385  0FB0  0088               	movwf	8	;volatile
  7386  0FB1  2FC8               	goto	i1l233
  7387  0FB2                     i1l1933:
  7388  0FB2  0873               	movf	DIO_SetPortValue@u8PortId,w
  7389  0FB3  00F1               	movwf	??_DIO_SetPortValue
  7390  0FB4  01F2               	clrf	??_DIO_SetPortValue+1
  7391                           
  7392                           ; Switch on 2 bytes has been partitioned into a top level switch of size 1, and 1 sub-sw
      +                          itches
  7393                           ; Switch size 1, requested type "simple"
  7394                           ; Number of cases is 1, Range of values is 0 to 0
  7395                           ; switch strategies available:
  7396                           ; Name         Instructions Cycles
  7397                           ; simple_byte            4     3 (average)
  7398                           ; direct_byte           11     8 (fixed)
  7399                           ; jumptable            260     6 (fixed)
  7400                           ;	Chosen strategy is simple_byte
  7401  0FB5  0872               	movf	??_DIO_SetPortValue+1,w
  7402  0FB6  3A00               	xorlw	0	; case 0
  7403  0FB7  1903               	skipnz
  7404  0FB8  2FBA               	goto	i1l3215
  7405  0FB9  2FC8               	goto	i1l233
  7406  0FBA                     i1l3215:
  7407                           
  7408                           ; Switch size 1, requested type "simple"
  7409                           ; Number of cases is 4, Range of values is 0 to 3
  7410                           ; switch strategies available:
  7411                           ; Name         Instructions Cycles
  7412                           ; simple_byte           13     7 (average)
  7413                           ; direct_byte           20     8 (fixed)
  7414                           ; jumptable            260     6 (fixed)
  7415                           ;	Chosen strategy is simple_byte
  7416  0FBA  0871               	movf	??_DIO_SetPortValue,w
  7417  0FBB  3A00               	xorlw	0	; case 0
  7418  0FBC  1903               	skipnz
  7419  0FBD  2F96               	goto	i1l1923
  7420  0FBE  3A01               	xorlw	1	; case 1
  7421  0FBF  1903               	skipnz
  7422  0FC0  2F9D               	goto	i1l1925
  7423  0FC1  3A03               	xorlw	3	; case 2
  7424  0FC2  1903               	skipnz
  7425  0FC3  2FA4               	goto	i1l1927
  7426  0FC4  3A01               	xorlw	1	; case 3
  7427  0FC5  1903               	skipnz
  7428  0FC6  2FAB               	goto	i1l1929
  7429  0FC7  2FC8               	goto	i1l233
  7430  0FC8                     i1l233:
  7431  0FC8  0008               	return
  7432  0FC9                     __end_of_DIO_SetPortValue:
  7433                           
  7434                           	psect	text64
  7435  0624                     __ptext64:	
  7436 ;; *************** function ___awmod *****************
  7437 ;; Defined at:
  7438 ;;		line 5 in file "C:\Program Files\Microchip\xc8\v2.20\pic\sources\c90\common\awmod.c"
  7439 ;; Parameters:    Size  Location     Type
  7440 ;;  divisor         2    0[COMMON] int 
  7441 ;;  dividend        2    2[COMMON] int 
  7442 ;; Auto vars:     Size  Location     Type
  7443 ;;  sign            1    5[COMMON] unsigned char 
  7444 ;;  counter         1    4[COMMON] unsigned char 
  7445 ;; Return value:  Size  Location     Type
  7446 ;;                  2    0[COMMON] int 
  7447 ;; Registers used:
  7448 ;;		wreg, status,2, status,0, btemp+1
  7449 ;; Tracked objects:
  7450 ;;		On entry : 0/0
  7451 ;;		On exit  : 0/0
  7452 ;;		Unchanged: 0/0
  7453 ;; Data sizes:     COMMON   BANK0   BANK1   BANK3   BANK2
  7454 ;;      Params:         4       0       0       0       0
  7455 ;;      Locals:         2       0       0       0       0
  7456 ;;      Temps:          0       0       0       0       0
  7457 ;;      Totals:         6       0       0       0       0
  7458 ;;Total ram usage:        6 bytes
  7459 ;; Hardware stack levels used:    1
  7460 ;; This function calls:
  7461 ;;		Nothing
  7462 ;; This function is called by:
  7463 ;;		_vid_7_Segment_Display_2Digits
  7464 ;; This function uses a non-reentrant model
  7465 ;;
  7466                           
  7467                           
  7468                           ;psect for function ___awmod
  7469  0624                     ___awmod:
  7470  0624                     i1l2031:	
  7471                           ;incstack = 0
  7472 ;; hardware stack exceeded
  7473                           ; Regs used in ___awmod: [wreg+status,2+status,0+btemp+1]
  7474                           
  7475  0624  01F5               	clrf	___awmod@sign
  7476  0625                     i1l2033:
  7477  0625  1FF3               	btfss	___awmod@dividend+1,7
  7478  0626  2E28               	goto	u111_21
  7479  0627  2E29               	goto	u111_20
  7480  0628                     u111_21:
  7481  0628  2E30               	goto	i1l2039
  7482  0629                     u111_20:
  7483  0629                     i1l2035:
  7484  0629  09F2               	comf	___awmod@dividend,f
  7485  062A  09F3               	comf	___awmod@dividend+1,f
  7486  062B  0AF2               	incf	___awmod@dividend,f
  7487  062C  1903               	skipnz
  7488  062D  0AF3               	incf	___awmod@dividend+1,f
  7489  062E                     i1l2037:
  7490  062E  01F5               	clrf	___awmod@sign
  7491  062F  0AF5               	incf	___awmod@sign,f
  7492  0630                     i1l2039:
  7493  0630  1FF1               	btfss	___awmod@divisor+1,7
  7494  0631  2E33               	goto	u112_21
  7495  0632  2E34               	goto	u112_20
  7496  0633                     u112_21:
  7497  0633  2E39               	goto	i1l2043
  7498  0634                     u112_20:
  7499  0634                     i1l2041:
  7500  0634  09F0               	comf	___awmod@divisor,f
  7501  0635  09F1               	comf	___awmod@divisor+1,f
  7502  0636  0AF0               	incf	___awmod@divisor,f
  7503  0637  1903               	skipnz
  7504  0638  0AF1               	incf	___awmod@divisor+1,f
  7505  0639                     i1l2043:
  7506  0639  0870               	movf	___awmod@divisor,w
  7507  063A  0471               	iorwf	___awmod@divisor+1,w
  7508  063B  1903               	btfsc	3,2
  7509  063C  2E3E               	goto	u113_21
  7510  063D  2E3F               	goto	u113_20
  7511  063E                     u113_21:
  7512  063E  2E6E               	goto	i1l2061
  7513  063F                     u113_20:
  7514  063F                     i1l2045:
  7515  063F  01F4               	clrf	___awmod@counter
  7516  0640  0AF4               	incf	___awmod@counter,f
  7517  0641  2E4D               	goto	i1l2051
  7518  0642                     i1l2047:
  7519  0642  3001               	movlw	1
  7520  0643                     u114_25:
  7521  0643  1003               	clrc
  7522  0644  0DF0               	rlf	___awmod@divisor,f
  7523  0645  0DF1               	rlf	___awmod@divisor+1,f
  7524  0646  3EFF               	addlw	-1
  7525  0647  1D03               	skipz
  7526  0648  2E43               	goto	u114_25
  7527  0649                     i1l2049:
  7528  0649  3001               	movlw	1
  7529  064A  00FF               	movwf	btemp+1
  7530  064B  087F               	movf	btemp+1,w
  7531  064C  07F4               	addwf	___awmod@counter,f
  7532  064D                     i1l2051:
  7533  064D  1FF1               	btfss	___awmod@divisor+1,7
  7534  064E  2E50               	goto	u115_21
  7535  064F  2E51               	goto	u115_20
  7536  0650                     u115_21:
  7537  0650  2E42               	goto	i1l2047
  7538  0651                     u115_20:
  7539  0651                     i1l2053:
  7540  0651  0871               	movf	___awmod@divisor+1,w
  7541  0652  0273               	subwf	___awmod@dividend+1,w
  7542  0653  1D03               	skipz
  7543  0654  2E57               	goto	u116_25
  7544  0655  0870               	movf	___awmod@divisor,w
  7545  0656  0272               	subwf	___awmod@dividend,w
  7546  0657                     u116_25:
  7547  0657  1C03               	skipc
  7548  0658  2E5A               	goto	u116_21
  7549  0659  2E5B               	goto	u116_20
  7550  065A                     u116_21:
  7551  065A  2E61               	goto	i1l2057
  7552  065B                     u116_20:
  7553  065B                     i1l2055:
  7554  065B  0870               	movf	___awmod@divisor,w
  7555  065C  02F2               	subwf	___awmod@dividend,f
  7556  065D  0871               	movf	___awmod@divisor+1,w
  7557  065E  1C03               	skipc
  7558  065F  03F3               	decf	___awmod@dividend+1,f
  7559  0660  02F3               	subwf	___awmod@dividend+1,f
  7560  0661                     i1l2057:
  7561  0661  3001               	movlw	1
  7562  0662                     u117_25:
  7563  0662  1003               	clrc
  7564  0663  0CF1               	rrf	___awmod@divisor+1,f
  7565  0664  0CF0               	rrf	___awmod@divisor,f
  7566  0665  3EFF               	addlw	-1
  7567  0666  1D03               	skipz
  7568  0667  2E62               	goto	u117_25
  7569  0668                     i1l2059:
  7570  0668  3001               	movlw	1
  7571  0669  02F4               	subwf	___awmod@counter,f
  7572  066A  1D03               	btfss	3,2
  7573  066B  2E6D               	goto	u118_21
  7574  066C  2E6E               	goto	u118_20
  7575  066D                     u118_21:
  7576  066D  2E51               	goto	i1l2053
  7577  066E                     u118_20:
  7578  066E                     i1l2061:
  7579  066E  0875               	movf	___awmod@sign,w
  7580  066F  1903               	btfsc	3,2
  7581  0670  2E72               	goto	u119_21
  7582  0671  2E73               	goto	u119_20
  7583  0672                     u119_21:
  7584  0672  2E78               	goto	i1l2065
  7585  0673                     u119_20:
  7586  0673                     i1l2063:
  7587  0673  09F2               	comf	___awmod@dividend,f
  7588  0674  09F3               	comf	___awmod@dividend+1,f
  7589  0675  0AF2               	incf	___awmod@dividend,f
  7590  0676  1903               	skipnz
  7591  0677  0AF3               	incf	___awmod@dividend+1,f
  7592  0678                     i1l2065:
  7593  0678  0873               	movf	___awmod@dividend+1,w
  7594  0679  00F1               	movwf	?___awmod+1
  7595  067A  0872               	movf	___awmod@dividend,w
  7596  067B  00F0               	movwf	?___awmod
  7597  067C                     i1l693:
  7598  067C  0008               	return
  7599  067D                     __end_of___awmod:
  7600                           
  7601                           	psect	text65
  7602  055F                     __ptext65:	
  7603 ;; *************** function ___awdiv *****************
  7604 ;; Defined at:
  7605 ;;		line 5 in file "C:\Program Files\Microchip\xc8\v2.20\pic\sources\c90\common\awdiv.c"
  7606 ;; Parameters:    Size  Location     Type
  7607 ;;  divisor         2    0[COMMON] int 
  7608 ;;  dividend        2    2[COMMON] int 
  7609 ;; Auto vars:     Size  Location     Type
  7610 ;;  quotient        2    6[COMMON] int 
  7611 ;;  sign            1    5[COMMON] unsigned char 
  7612 ;;  counter         1    4[COMMON] unsigned char 
  7613 ;; Return value:  Size  Location     Type
  7614 ;;                  2    0[COMMON] int 
  7615 ;; Registers used:
  7616 ;;		wreg, status,2, status,0, btemp+1
  7617 ;; Tracked objects:
  7618 ;;		On entry : 0/0
  7619 ;;		On exit  : 0/0
  7620 ;;		Unchanged: 0/0
  7621 ;; Data sizes:     COMMON   BANK0   BANK1   BANK3   BANK2
  7622 ;;      Params:         4       0       0       0       0
  7623 ;;      Locals:         4       0       0       0       0
  7624 ;;      Temps:          0       0       0       0       0
  7625 ;;      Totals:         8       0       0       0       0
  7626 ;;Total ram usage:        8 bytes
  7627 ;; Hardware stack levels used:    1
  7628 ;; This function calls:
  7629 ;;		Nothing
  7630 ;; This function is called by:
  7631 ;;		_Temp_ControlWaterTemp
  7632 ;;		_vid_7_Segment_Display_2Digits
  7633 ;; This function uses a non-reentrant model
  7634 ;;
  7635                           
  7636                           
  7637                           ;psect for function ___awdiv
  7638  055F                     ___awdiv:
  7639  055F                     i1l1987:	
  7640                           ;incstack = 0
  7641 ;; hardware stack exceeded
  7642                           ; Regs used in ___awdiv: [wreg+status,2+status,0+btemp+1]
  7643                           
  7644  055F  01F5               	clrf	___awdiv@sign
  7645  0560                     i1l1989:
  7646  0560  1FF1               	btfss	___awdiv@divisor+1,7
  7647  0561  2D63               	goto	u101_21
  7648  0562  2D64               	goto	u101_20
  7649  0563                     u101_21:
  7650  0563  2D6B               	goto	i1l1995
  7651  0564                     u101_20:
  7652  0564                     i1l1991:
  7653  0564  09F0               	comf	___awdiv@divisor,f
  7654  0565  09F1               	comf	___awdiv@divisor+1,f
  7655  0566  0AF0               	incf	___awdiv@divisor,f
  7656  0567  1903               	skipnz
  7657  0568  0AF1               	incf	___awdiv@divisor+1,f
  7658  0569                     i1l1993:
  7659  0569  01F5               	clrf	___awdiv@sign
  7660  056A  0AF5               	incf	___awdiv@sign,f
  7661  056B                     i1l1995:
  7662  056B  1FF3               	btfss	___awdiv@dividend+1,7
  7663  056C  2D6E               	goto	u102_21
  7664  056D  2D6F               	goto	u102_20
  7665  056E                     u102_21:
  7666  056E  2D78               	goto	i1l2001
  7667  056F                     u102_20:
  7668  056F                     i1l1997:
  7669  056F  09F2               	comf	___awdiv@dividend,f
  7670  0570  09F3               	comf	___awdiv@dividend+1,f
  7671  0571  0AF2               	incf	___awdiv@dividend,f
  7672  0572  1903               	skipnz
  7673  0573  0AF3               	incf	___awdiv@dividend+1,f
  7674  0574                     i1l1999:
  7675  0574  3001               	movlw	1
  7676  0575  00FF               	movwf	btemp+1
  7677  0576  087F               	movf	btemp+1,w
  7678  0577  06F5               	xorwf	___awdiv@sign,f
  7679  0578                     i1l2001:
  7680  0578  01F6               	clrf	___awdiv@quotient
  7681  0579  01F7               	clrf	___awdiv@quotient+1
  7682  057A                     i1l2003:
  7683  057A  0870               	movf	___awdiv@divisor,w
  7684  057B  0471               	iorwf	___awdiv@divisor+1,w
  7685  057C  1903               	btfsc	3,2
  7686  057D  2D7F               	goto	u103_21
  7687  057E  2D80               	goto	u103_20
  7688  057F                     u103_21:
  7689  057F  2DB7               	goto	i1l2023
  7690  0580                     u103_20:
  7691  0580                     i1l2005:
  7692  0580  01F4               	clrf	___awdiv@counter
  7693  0581  0AF4               	incf	___awdiv@counter,f
  7694  0582  2D8E               	goto	i1l2011
  7695  0583                     i1l2007:
  7696  0583  3001               	movlw	1
  7697  0584                     u104_25:
  7698  0584  1003               	clrc
  7699  0585  0DF0               	rlf	___awdiv@divisor,f
  7700  0586  0DF1               	rlf	___awdiv@divisor+1,f
  7701  0587  3EFF               	addlw	-1
  7702  0588  1D03               	skipz
  7703  0589  2D84               	goto	u104_25
  7704  058A                     i1l2009:
  7705  058A  3001               	movlw	1
  7706  058B  00FF               	movwf	btemp+1
  7707  058C  087F               	movf	btemp+1,w
  7708  058D  07F4               	addwf	___awdiv@counter,f
  7709  058E                     i1l2011:
  7710  058E  1FF1               	btfss	___awdiv@divisor+1,7
  7711  058F  2D91               	goto	u105_21
  7712  0590  2D92               	goto	u105_20
  7713  0591                     u105_21:
  7714  0591  2D83               	goto	i1l2007
  7715  0592                     u105_20:
  7716  0592                     i1l2013:
  7717  0592  3001               	movlw	1
  7718  0593                     u106_25:
  7719  0593  1003               	clrc
  7720  0594  0DF6               	rlf	___awdiv@quotient,f
  7721  0595  0DF7               	rlf	___awdiv@quotient+1,f
  7722  0596  3EFF               	addlw	-1
  7723  0597  1D03               	skipz
  7724  0598  2D93               	goto	u106_25
  7725  0599  0871               	movf	___awdiv@divisor+1,w
  7726  059A  0273               	subwf	___awdiv@dividend+1,w
  7727  059B  1D03               	skipz
  7728  059C  2D9F               	goto	u107_25
  7729  059D  0870               	movf	___awdiv@divisor,w
  7730  059E  0272               	subwf	___awdiv@dividend,w
  7731  059F                     u107_25:
  7732  059F  1C03               	skipc
  7733  05A0  2DA2               	goto	u107_21
  7734  05A1  2DA3               	goto	u107_20
  7735  05A2                     u107_21:
  7736  05A2  2DAA               	goto	i1l2019
  7737  05A3                     u107_20:
  7738  05A3                     i1l2015:
  7739  05A3  0870               	movf	___awdiv@divisor,w
  7740  05A4  02F2               	subwf	___awdiv@dividend,f
  7741  05A5  0871               	movf	___awdiv@divisor+1,w
  7742  05A6  1C03               	skipc
  7743  05A7  03F3               	decf	___awdiv@dividend+1,f
  7744  05A8  02F3               	subwf	___awdiv@dividend+1,f
  7745  05A9                     i1l2017:
  7746  05A9  1476               	bsf	___awdiv@quotient,0
  7747  05AA                     i1l2019:
  7748  05AA  3001               	movlw	1
  7749  05AB                     u108_25:
  7750  05AB  1003               	clrc
  7751  05AC  0CF1               	rrf	___awdiv@divisor+1,f
  7752  05AD  0CF0               	rrf	___awdiv@divisor,f
  7753  05AE  3EFF               	addlw	-1
  7754  05AF  1D03               	skipz
  7755  05B0  2DAB               	goto	u108_25
  7756  05B1                     i1l2021:
  7757  05B1  3001               	movlw	1
  7758  05B2  02F4               	subwf	___awdiv@counter,f
  7759  05B3  1D03               	btfss	3,2
  7760  05B4  2DB6               	goto	u109_21
  7761  05B5  2DB7               	goto	u109_20
  7762  05B6                     u109_21:
  7763  05B6  2D92               	goto	i1l2013
  7764  05B7                     u109_20:
  7765  05B7                     i1l2023:
  7766  05B7  0875               	movf	___awdiv@sign,w
  7767  05B8  1903               	btfsc	3,2
  7768  05B9  2DBB               	goto	u110_21
  7769  05BA  2DBC               	goto	u110_20
  7770  05BB                     u110_21:
  7771  05BB  2DC1               	goto	i1l2027
  7772  05BC                     u110_20:
  7773  05BC                     i1l2025:
  7774  05BC  09F6               	comf	___awdiv@quotient,f
  7775  05BD  09F7               	comf	___awdiv@quotient+1,f
  7776  05BE  0AF6               	incf	___awdiv@quotient,f
  7777  05BF  1903               	skipnz
  7778  05C0  0AF7               	incf	___awdiv@quotient+1,f
  7779  05C1                     i1l2027:
  7780  05C1  0877               	movf	___awdiv@quotient+1,w
  7781  05C2  00F1               	movwf	?___awdiv+1
  7782  05C3  0876               	movf	___awdiv@quotient,w
  7783  05C4  00F0               	movwf	?___awdiv
  7784  05C5                     i1l680:
  7785  05C5  0008               	return
  7786  05C6                     __end_of___awdiv:
  7787                           
  7788                           	psect	text66
  7789  04F1                     __ptext66:	
  7790 ;; *************** function _DIO_GetPinValue *****************
  7791 ;; Defined at:
  7792 ;;		line 105 in file "DIO_Prog.c"
  7793 ;; Parameters:    Size  Location     Type
  7794 ;;  u8PortIdCopy    1    wreg     unsigned char 
  7795 ;;  u8PinIdCopy     1    0[COMMON] unsigned char 
  7796 ;; Auto vars:     Size  Location     Type
  7797 ;;  u8PortIdCopy    1    3[COMMON] unsigned char 
  7798 ;;  u8ResultLoca    1    4[COMMON] unsigned char 
  7799 ;; Return value:  Size  Location     Type
  7800 ;;                  1    wreg      unsigned char 
  7801 ;; Registers used:
  7802 ;;		wreg, fsr0l, fsr0h, status,2, status,0, btemp+1
  7803 ;; Tracked objects:
  7804 ;;		On entry : 0/0
  7805 ;;		On exit  : 0/0
  7806 ;;		Unchanged: 0/0
  7807 ;; Data sizes:     COMMON   BANK0   BANK1   BANK3   BANK2
  7808 ;;      Params:         1       0       0       0       0
  7809 ;;      Locals:         2       0       0       0       0
  7810 ;;      Temps:          2       0       0       0       0
  7811 ;;      Totals:         5       0       0       0       0
  7812 ;;Total ram usage:        5 bytes
  7813 ;; Hardware stack levels used:    1
  7814 ;; This function calls:
  7815 ;;		Nothing
  7816 ;; This function is called by:
  7817 ;;		_ISR
  7818 ;; This function uses a non-reentrant model
  7819 ;;
  7820                           
  7821                           
  7822                           ;psect for function _DIO_GetPinValue
  7823  04F1                     _DIO_GetPinValue:
  7824                           
  7825                           ;incstack = 0
  7826                           ; Regs used in _DIO_GetPinValue: [wreg-fsr0h+status,2+status,0+btemp+1]
  7827                           ;DIO_GetPinValue@u8PortIdCopy stored from wreg
  7828  04F1  00F3               	movwf	DIO_GetPinValue@u8PortIdCopy
  7829  04F2                     i1l2521:
  7830                           
  7831                           ;DIO_Prog.c: 105: u8 DIO_GetPinValue(u8 u8PortIdCopy, u8 u8PinIdCopy);DIO_Prog.c: 106: {
      +                          ;DIO_Prog.c: 108:  u8 u8ResultLocal;;DIO_Prog.c: 110:  if ((u8PortIdCopy <= 3) && (u8Pin
      +                          IdCopy <= 7))
  7832  04F2  3004               	movlw	4
  7833  04F3  0273               	subwf	DIO_GetPinValue@u8PortIdCopy,w
  7834  04F4  1803               	skipnc
  7835  04F5  2CF7               	goto	u178_21
  7836  04F6  2CF8               	goto	u178_20
  7837  04F7                     u178_21:
  7838  04F7  2D59               	goto	i1l2539
  7839  04F8                     u178_20:
  7840  04F8                     i1l2523:
  7841  04F8  3008               	movlw	8
  7842  04F9  0270               	subwf	DIO_GetPinValue@u8PinIdCopy,w
  7843  04FA  1803               	skipnc
  7844  04FB  2CFD               	goto	u179_21
  7845  04FC  2CFE               	goto	u179_20
  7846  04FD                     u179_21:
  7847  04FD  2D59               	goto	i1l2539
  7848  04FE                     u179_20:
  7849  04FE  2D43               	goto	i1l2537
  7850  04FF                     i1l2527:
  7851  04FF  1283               	bcf	3,5	;RP0=0, select bank0
  7852  0500  1303               	bcf	3,6	;RP1=0, select bank0
  7853  0501  0805               	movf	5,w	;volatile
  7854  0502  00F1               	movwf	??_DIO_GetPinValue
  7855  0503  0A70               	incf	DIO_GetPinValue@u8PinIdCopy,w
  7856  0504  2D07               	goto	u180_24
  7857  0505                     u180_25:
  7858  0505  1003               	clrc
  7859  0506  0CF1               	rrf	??_DIO_GetPinValue,f
  7860  0507                     u180_24:
  7861  0507  3EFF               	addlw	-1
  7862  0508  1D03               	skipz
  7863  0509  2D05               	goto	u180_25
  7864  050A  0871               	movf	??_DIO_GetPinValue,w
  7865  050B  3901               	andlw	1
  7866  050C  00FF               	movwf	btemp+1
  7867  050D  087F               	movf	btemp+1,w
  7868  050E  00F4               	movwf	DIO_GetPinValue@u8ResultLocal
  7869  050F  2D5D               	goto	i1l2541
  7870  0510                     i1l2529:
  7871  0510  1283               	bcf	3,5	;RP0=0, select bank0
  7872  0511  1303               	bcf	3,6	;RP1=0, select bank0
  7873  0512  0806               	movf	6,w	;volatile
  7874  0513  00F1               	movwf	??_DIO_GetPinValue
  7875  0514  0A70               	incf	DIO_GetPinValue@u8PinIdCopy,w
  7876  0515  2D18               	goto	u181_24
  7877  0516                     u181_25:
  7878  0516  1003               	clrc
  7879  0517  0CF1               	rrf	??_DIO_GetPinValue,f
  7880  0518                     u181_24:
  7881  0518  3EFF               	addlw	-1
  7882  0519  1D03               	skipz
  7883  051A  2D16               	goto	u181_25
  7884  051B  0871               	movf	??_DIO_GetPinValue,w
  7885  051C  3901               	andlw	1
  7886  051D  00FF               	movwf	btemp+1
  7887  051E  087F               	movf	btemp+1,w
  7888  051F  00F4               	movwf	DIO_GetPinValue@u8ResultLocal
  7889  0520  2D5D               	goto	i1l2541
  7890  0521                     i1l2531:
  7891  0521  1283               	bcf	3,5	;RP0=0, select bank0
  7892  0522  1303               	bcf	3,6	;RP1=0, select bank0
  7893  0523  0807               	movf	7,w	;volatile
  7894  0524  00F1               	movwf	??_DIO_GetPinValue
  7895  0525  0A70               	incf	DIO_GetPinValue@u8PinIdCopy,w
  7896  0526  2D29               	goto	u182_24
  7897  0527                     u182_25:
  7898  0527  1003               	clrc
  7899  0528  0CF1               	rrf	??_DIO_GetPinValue,f
  7900  0529                     u182_24:
  7901  0529  3EFF               	addlw	-1
  7902  052A  1D03               	skipz
  7903  052B  2D27               	goto	u182_25
  7904  052C  0871               	movf	??_DIO_GetPinValue,w
  7905  052D  3901               	andlw	1
  7906  052E  00FF               	movwf	btemp+1
  7907  052F  087F               	movf	btemp+1,w
  7908  0530  00F4               	movwf	DIO_GetPinValue@u8ResultLocal
  7909  0531  2D5D               	goto	i1l2541
  7910  0532                     i1l2533:
  7911  0532  1283               	bcf	3,5	;RP0=0, select bank0
  7912  0533  1303               	bcf	3,6	;RP1=0, select bank0
  7913  0534  0808               	movf	8,w	;volatile
  7914  0535  00F1               	movwf	??_DIO_GetPinValue
  7915  0536  0A70               	incf	DIO_GetPinValue@u8PinIdCopy,w
  7916  0537  2D3A               	goto	u183_24
  7917  0538                     u183_25:
  7918  0538  1003               	clrc
  7919  0539  0CF1               	rrf	??_DIO_GetPinValue,f
  7920  053A                     u183_24:
  7921  053A  3EFF               	addlw	-1
  7922  053B  1D03               	skipz
  7923  053C  2D38               	goto	u183_25
  7924  053D  0871               	movf	??_DIO_GetPinValue,w
  7925  053E  3901               	andlw	1
  7926  053F  00FF               	movwf	btemp+1
  7927  0540  087F               	movf	btemp+1,w
  7928  0541  00F4               	movwf	DIO_GetPinValue@u8ResultLocal
  7929  0542  2D5D               	goto	i1l2541
  7930  0543                     i1l2537:
  7931  0543  0873               	movf	DIO_GetPinValue@u8PortIdCopy,w
  7932  0544  00F1               	movwf	??_DIO_GetPinValue
  7933  0545  01F2               	clrf	??_DIO_GetPinValue+1
  7934                           
  7935                           ; Switch on 2 bytes has been partitioned into a top level switch of size 1, and 1 sub-sw
      +                          itches
  7936                           ; Switch size 1, requested type "simple"
  7937                           ; Number of cases is 1, Range of values is 0 to 0
  7938                           ; switch strategies available:
  7939                           ; Name         Instructions Cycles
  7940                           ; simple_byte            4     3 (average)
  7941                           ; direct_byte           11     8 (fixed)
  7942                           ; jumptable            260     6 (fixed)
  7943                           ;	Chosen strategy is simple_byte
  7944  0546  0872               	movf	??_DIO_GetPinValue+1,w
  7945  0547  3A00               	xorlw	0	; case 0
  7946  0548  1903               	skipnz
  7947  0549  2D4B               	goto	i1l3217
  7948  054A  2D5D               	goto	i1l2541
  7949  054B                     i1l3217:
  7950                           
  7951                           ; Switch size 1, requested type "simple"
  7952                           ; Number of cases is 4, Range of values is 0 to 3
  7953                           ; switch strategies available:
  7954                           ; Name         Instructions Cycles
  7955                           ; simple_byte           13     7 (average)
  7956                           ; direct_byte           20     8 (fixed)
  7957                           ; jumptable            260     6 (fixed)
  7958                           ;	Chosen strategy is simple_byte
  7959  054B  0871               	movf	??_DIO_GetPinValue,w
  7960  054C  3A00               	xorlw	0	; case 0
  7961  054D  1903               	skipnz
  7962  054E  2CFF               	goto	i1l2527
  7963  054F  3A01               	xorlw	1	; case 1
  7964  0550  1903               	skipnz
  7965  0551  2D10               	goto	i1l2529
  7966  0552  3A03               	xorlw	3	; case 2
  7967  0553  1903               	skipnz
  7968  0554  2D21               	goto	i1l2531
  7969  0555  3A01               	xorlw	1	; case 3
  7970  0556  1903               	skipnz
  7971  0557  2D32               	goto	i1l2533
  7972  0558  2D5D               	goto	i1l2541
  7973  0559                     i1l2539:
  7974                           
  7975                           ;DIO_Prog.c: 123:  {;DIO_Prog.c: 125:   u8ResultLocal = 0xFF;
  7976  0559  30FF               	movlw	255
  7977  055A  00FF               	movwf	btemp+1
  7978  055B  087F               	movf	btemp+1,w
  7979  055C  00F4               	movwf	DIO_GetPinValue@u8ResultLocal
  7980  055D                     i1l2541:
  7981                           
  7982                           ;DIO_Prog.c: 128:  return u8ResultLocal;
  7983  055D  0874               	movf	DIO_GetPinValue@u8ResultLocal,w
  7984  055E                     i1l213:
  7985  055E  0008               	return
  7986  055F                     __end_of_DIO_GetPinValue:
  7987  000E                     
  7988                           	psect	functab
  7989  0022                     __pfunctab:
  7990  0022                     fptable:
  7991  0022  2822               	goto	fptable	;no entries
  7992  0023                     __i1fptable:
  7993  0023                     i1fptable:
  7994  0023  00FF               	movwf	(btemp+1)& (0+127)
  7995  0024  3000               	movlw	high i1fptable
  7996  0025  008A               	movwf	10
  7997  0026  087F               	movf	(btemp+1)& (0+127),w
  7998  0027  0782               	addwf	2,f
  7999  0028                     i1fpbase:
  8000  0028  2828               	goto	i1fpbase	; Call via a null pointer and you will get stuck here.
  8001  0029                     fp__RB0_Handler:
  8002  0029  120A  158A  2C9B   	ljmp	_RB0_Handler
  8003  002C                     fp__RB4_Handler:
  8004  002C  120A  158A  2DDB   	ljmp	_RB4_Handler
  8005  002F                     fp__RB5_Handler:
  8006  002F  120A  158A  2DBB   	ljmp	_RB5_Handler
  8007  0032                     fp__Temp_ControlWaterTemp:
  8008  0032  120A  118A  283E   	ljmp	_Temp_ControlWaterTemp
  8009  0035                     fp__RedLed_TOG:
  8010  0035                     entry__RedLed_TOG:
  8011  0035  120A  158A  2BA6   	ljmp	_RedLed_TOG
  8012  0038                     fp__System_Power:
  8013  0038  120A  158A  2D80   	ljmp	_System_Power
  8014  003B                     fp__RTO_vid_StartSchedular:
  8015  003B  120A  118A  2B7B   	ljmp	_RTO_vid_StartSchedular
  8016  003E                     __end_of__i1fptable:
  8017  007E                     btemp	set	126	;btemp
  8018  007E                     wtemp0	set	126
  8019                           
  8020                           	psect	config
  8021                           
  8022                           ;Config register CONFIG @ 0x2007
  8023                           ;	Oscillator Selection bits
  8024                           ;	FOSC = XT, XT oscillator
  8025                           ;	Watchdog Timer Enable bit
  8026                           ;	WDTE = OFF, WDT disabled
  8027                           ;	Power-up Timer Enable bit
  8028                           ;	PWRTE = ON, PWRT enabled
  8029                           ;	Brown-out Reset Enable bit
  8030                           ;	BOREN = ON, BOR enabled
  8031                           ;	Low-Voltage (Single-Supply) In-Circuit Serial Programming Enable bit
  8032                           ;	LVP = OFF, RB3 is digital I/O, HV on MCLR must be used for programming
  8033                           ;	Data EEPROM Memory Code Protection bit
  8034                           ;	CPD = OFF, Data EEPROM code protection off
  8035                           ;	Flash Program Memory Write Enable bits
  8036                           ;	WRT = OFF, Write protection off; all program memory may be written to by EECON control
  8037                           ;	In-Circuit Debugger Mode bit
  8038                           ;	DEBUG = 0x1, unprogrammed default
  8039                           ;	Flash Program Memory Code Protection bit
  8040                           ;	CP = OFF, Code protection off
  8041  2007                     	org	8199
  8042  2007  3F71               	dw	16241

Data Sizes:
    Strings     0
    Constant    20
    Data        0
    BSS         41
    Persistent  0
    Stack       0

Auto Spaces:
    Space          Size  Autos    Used
    COMMON           14     14      14
    BANK0            80     21      62
    BANK1            80      5       5
    BANK3            96      0       0
    BANK2            96      0       0

Pointer List with Targets:

    RTO_vid_CreateTask@copy_pFn	PTR FTN()void  size(1) Largest target is 1
		 -> Temp_ControlWaterTemp(), RedLed_TOG(), System_Power(), 

    S356$pFn	PTR FTN()void  size(1) Largest target is 1
		 -> Temp_ControlWaterTemp(), RedLed_TOG(), System_Power(), 

    Tasks.pFn	PTR FTN()void  size(1) Largest target is 1
		 -> Temp_ControlWaterTemp(), RedLed_TOG(), System_Power(), 

    RB5_SetCallBack@pFun	PTR FTN()void  size(1) Largest target is 1
		 -> RB5_Handler(), 

    GptrToFun_RB5	PTR FTN()void  size(1) Largest target is 1
		 -> Absolute function(), RB5_Handler(), 

    RB4_SetCallBack@pFun	PTR FTN()void  size(1) Largest target is 1
		 -> RB4_Handler(), 

    GptrToFun_RB4	PTR FTN()void  size(1) Largest target is 1
		 -> Absolute function(), RB4_Handler(), 

    RB0_SetCallBack@pFun	PTR FTN()void  size(1) Largest target is 1
		 -> RB0_Handler(), 

    GptrToFun_RB0	PTR FTN()void  size(1) Largest target is 1
		 -> Absolute function(), RB0_Handler(), 

    Timer_SetCallBack@local_pFn	PTR FTN()void  size(1) Largest target is 1
		 -> RTO_vid_StartSchedular(), 

    Global_pFn	PTR FTN()void  size(1) Largest target is 1
		 -> Absolute function(), RTO_vid_StartSchedular(), 


Critical Paths under _main in COMMON

    None.

Critical Paths under _ISR in COMMON

    _Temp_ControlWaterTemp->_vid_7_Segment_Display_2Digits
    _Heater_TurnOn->i1_DIO_SetPinValue
    _Heater_TurnOff->i1_DIO_SetPinValue
    _Cooler_TurnOn->i1_DIO_SetPinValue
    _Cooler_TurnOff->i1_DIO_SetPinValue
    _SetTemp_Mode->_vid_7_Segment_Display_2Digits
    i1_EEPROM_WriteToEEPROM->i1_I2C_Write
    i1_vid_7_Segment_DeInit->i1_DIO_SetPinValue
    _ON_Mode->_vid_7_Segment_Display_2Digits
    _vid_7_Segment_Display_2Digits->___awdiv
    _vid_Right_7_Segment_DisplayNumber->i1_DIO_SetPinValue
    _vid_Left_7_Segment_DisplayNumber->i1_DIO_SetPinValue

Critical Paths under _main in BANK0

    _vid_SystemInit->_DIO_SetPinDirection
    _vid_7_Segment_Init->_DIO_SetPinDirection
    _vid_7_Segment_Init->_DIO_SetPinValue
    _TempSensor_Init->_DIO_SetPinDirection
    _SystemVars_Init->_EEPROM_ReadFromEEPROM
    _EEPROM_WriteToEEPROM->_I2C_Write
    _EEPROM_ReadFromEEPROM->_I2C_Read
    _SetCallBacks->_RB0_SetCallBack
    _SetCallBacks->_RB4_SetCallBack
    _SetCallBacks->_RB5_SetCallBack
    _RTO_vid_CreateTask->___bmul
    _RTO_Init->_Timer_SetCallBack
    _vid_7_Segment_DeInit->_DIO_SetPinValue
    _I2C_Init->_DIO_SetPinDirection
    _Heater_Init->_DIO_SetPinDirection
    _Heater_Init->_DIO_SetPinValue
    _EXT_INT_Init->_DIO_SetPinDirection
    _Cooler_Init->_DIO_SetPinDirection
    _Cooler_Init->_DIO_SetPinValue

Critical Paths under _ISR in BANK0

    _ISR->_RTO_vid_StartSchedular
    _RTO_vid_StartSchedular->_Temp_ControlWaterTemp
    _RB5_Handler->_SetTemp_Mode
    _RB4_Handler->_SetTemp_Mode

Critical Paths under _main in BANK1

    _main->_RTO_vid_CreateTask

Critical Paths under _ISR in BANK1

    None.

Critical Paths under _main in BANK3

    None.

Critical Paths under _ISR in BANK3

    None.

Critical Paths under _main in BANK2

    None.

Critical Paths under _ISR in BANK2

    None.

Call Graph Tables:

 ---------------------------------------------------------------------------------
 (Depth) Function   	        Calls       Base Space   Used Autos Params    Refs
 ---------------------------------------------------------------------------------
 (0) _main                                                 0     0      0   26077
                        _Cooler_Init
                       _EXT_INT_Init
                        _Heater_Init
                           _I2C_Init
                           _OFF_Mode
                           _RTO_Init
                 _RTO_vid_CreateTask
                       _SetCallBacks
                    _SystemVars_Init
                    _TempSensor_Init
                   _Timer1_Init_Comp
                 _vid_7_Segment_Init
                     _vid_SystemInit
 ---------------------------------------------------------------------------------
 (1) _vid_SystemInit                                       0     0      0    2284
                _DIO_SetPinDirection
 ---------------------------------------------------------------------------------
 (1) _vid_7_Segment_Init                                   0     0      0    4590
                _DIO_SetPinDirection
                    _DIO_SetPinValue
               _DIO_SetPortDirection
 ---------------------------------------------------------------------------------
 (2) _DIO_SetPortDirection                                 4     3      1     186
                                             16 BANK0      4     3      1
 ---------------------------------------------------------------------------------
 (1) _Timer1_Init_Comp                                     0     0      0       0
 ---------------------------------------------------------------------------------
 (1) _TempSensor_Init                                      0     0      0    2284
                           _ADC_Init
                _DIO_SetPinDirection
 ---------------------------------------------------------------------------------
 (2) _ADC_Init                                             0     0      0       0
 ---------------------------------------------------------------------------------
 (1) _SystemVars_Init                                      1     1      0     134
                                             19 BANK0      1     1      0
              _EEPROM_ReadFromEEPROM
               _EEPROM_WriteToEEPROM
 ---------------------------------------------------------------------------------
 (2) _EEPROM_WriteToEEPROM                                 1     1      0      44
                                             17 BANK0      1     1      0
                           _I2CBegin
                            _I2C_End
                          _I2C_Write
 ---------------------------------------------------------------------------------
 (2) _EEPROM_ReadFromEEPROM                                1     1      0      90
                                             18 BANK0      1     1      0
                           _I2CBegin
                            _I2C_End
                           _I2C_Read
                  _I2C_RepeatedStart
                          _I2C_Write
 ---------------------------------------------------------------------------------
 (3) _I2C_Write                                            1     1      0      22
                                             16 BANK0      1     1      0
                           _I2C_Hold
 ---------------------------------------------------------------------------------
 (3) _I2C_RepeatedStart                                    0     0      0       0
                           _I2C_Hold
 ---------------------------------------------------------------------------------
 (3) _I2C_Read                                             2     2      0      45
                                             16 BANK0      2     2      0
                           _I2C_Hold
 ---------------------------------------------------------------------------------
 (3) _I2C_End                                              0     0      0       0
                           _I2C_Hold
 ---------------------------------------------------------------------------------
 (3) _I2CBegin                                             0     0      0       0
                           _I2C_Hold
 ---------------------------------------------------------------------------------
 (4) _I2C_Hold                                             0     0      0       0
 ---------------------------------------------------------------------------------
 (1) _SetCallBacks                                         0     0      0      66
                    _RB0_SetCallBack
                    _RB4_SetCallBack
                    _RB5_SetCallBack
 ---------------------------------------------------------------------------------
 (2) _RB5_SetCallBack                                      1     1      0      22
                                             16 BANK0      1     1      0
 ---------------------------------------------------------------------------------
 (2) _RB4_SetCallBack                                      1     1      0      22
                                             16 BANK0      1     1      0
 ---------------------------------------------------------------------------------
 (2) _RB0_SetCallBack                                      1     1      0      22
                                             16 BANK0      1     1      0
 ---------------------------------------------------------------------------------
 (1) _RTO_vid_CreateTask                                   6     1      5    1201
                                             19 BANK0      1     1      0
                                              0 BANK1      5     0      5
                             ___bmul
 ---------------------------------------------------------------------------------
 (2) ___bmul                                               3     2      1     205
                                             16 BANK0      3     2      1
 ---------------------------------------------------------------------------------
 (1) _RTO_Init                                             0     0      0      22
                  _Timer_SetCallBack
 ---------------------------------------------------------------------------------
 (2) _Timer_SetCallBack                                    1     1      0      22
                                             16 BANK0      1     1      0
 ---------------------------------------------------------------------------------
 (1) _OFF_Mode                                             0     0      0    2120
               _vid_7_Segment_DeInit
 ---------------------------------------------------------------------------------
 (2) _vid_7_Segment_DeInit                                 0     0      0    2120
                    _DIO_SetPinValue
 ---------------------------------------------------------------------------------
 (1) _I2C_Init                                             0     0      0    2284
                _DIO_SetPinDirection
 ---------------------------------------------------------------------------------
 (1) _Heater_Init                                          0     0      0    4404
                _DIO_SetPinDirection
                    _DIO_SetPinValue
 ---------------------------------------------------------------------------------
 (1) _EXT_INT_Init                                         0     0      0    2284
                _DIO_SetPinDirection
 ---------------------------------------------------------------------------------
 (1) _Cooler_Init                                          0     0      0    4404
                _DIO_SetPinDirection
                    _DIO_SetPinValue
 ---------------------------------------------------------------------------------
 (2) _DIO_SetPinValue                                      5     3      2    2120
                                             16 BANK0      5     3      2
 ---------------------------------------------------------------------------------
 (2) _DIO_SetPinDirection                                  5     3      2    2284
                                             16 BANK0      5     3      2
 ---------------------------------------------------------------------------------
 Estimated maximum stack depth 4
 ---------------------------------------------------------------------------------
 (Depth) Function   	        Calls       Base Space   Used Autos Params    Refs
 ---------------------------------------------------------------------------------
 (5) _ISR                                                  5     5      0   30810
                                             11 BANK0      5     5      0
                   Absolute function *
                    _DIO_GetPinValue
                        _RB0_Handler *
                        _RB4_Handler *
                        _RB5_Handler *
             _RTO_vid_StartSchedular *
 ---------------------------------------------------------------------------------
 (6) _RTO_vid_StartSchedular                               5     5      0   14465
                                              6 BANK0      5     5      0
                         _RedLed_TOG *
                       _System_Power *
              _Temp_ControlWaterTemp *
                           i1___bmul
 ---------------------------------------------------------------------------------
 (7) i1___bmul                                             3     2      1     163
                                              0 COMMON     3     2      1
 ---------------------------------------------------------------------------------
 (7) _Temp_ControlWaterTemp                                6     6      0    8800
                                              0 BANK0      6     6      0
                           _ADC_Read
                     _Cooler_TurnOff
                      _Cooler_TurnOn
                     _Heater_TurnOff
                      _Heater_TurnOn
                      _YellowLed_TOG
                            ___awdiv
                             ___lmul
                            ___lwdiv
      _vid_7_Segment_Display_2Digits
 ---------------------------------------------------------------------------------
 (8) ___lwdiv                                              7     3      4      13
                                              0 COMMON     7     3      4
 ---------------------------------------------------------------------------------
 (8) ___lmul                                              13     5      8      10
                                              0 COMMON    13     5      8
 ---------------------------------------------------------------------------------
 (8) _YellowLed_TOG                                        0     0      0       0
 ---------------------------------------------------------------------------------
 (8) _Heater_TurnOn                                        0     0      0     880
                  i1_DIO_SetPinValue
 ---------------------------------------------------------------------------------
 (8) _Heater_TurnOff                                       0     0      0     880
                  i1_DIO_SetPinValue
 ---------------------------------------------------------------------------------
 (8) _Cooler_TurnOn                                        0     0      0     880
                  i1_DIO_SetPinValue
 ---------------------------------------------------------------------------------
 (8) _Cooler_TurnOff                                       0     0      0     880
                  i1_DIO_SetPinValue
 ---------------------------------------------------------------------------------
 (8) _ADC_Read                                             4     2      2      22
                                              0 COMMON     4     2      2
 ---------------------------------------------------------------------------------
 (7) _System_Power                                         0     0      0    5276
                            _ON_Mode
                         _RedLed_TOG
                         i1_OFF_Mode
 ---------------------------------------------------------------------------------
 (8) _RedLed_TOG                                           0     0      0       0
 ---------------------------------------------------------------------------------
 (6) _RB5_Handler                                          0     0      0    5368
                       _SetTemp_Mode
 ---------------------------------------------------------------------------------
 (6) _RB4_Handler                                          0     0      0    5368
                       _SetTemp_Mode
 ---------------------------------------------------------------------------------
 (7) _SetTemp_Mode                                         4     4      0    5368
                                              0 BANK0      4     4      0
                       _GreenLed_TOG
      _vid_7_Segment_Display_2Digits
             i1_EEPROM_WriteToEEPROM
             i1_vid_7_Segment_DeInit
 ---------------------------------------------------------------------------------
 (8) i1_EEPROM_WriteToEEPROM                               1     1      0      44
                                              1 COMMON     1     1      0
                         i1_I2CBegin
                          i1_I2C_End
                        i1_I2C_Write
 ---------------------------------------------------------------------------------
 (9) i1_I2C_Write                                          1     1      0      22
                                              0 COMMON     1     1      0
                         i1_I2C_Hold
 ---------------------------------------------------------------------------------
 (9) i1_I2C_End                                            0     0      0       0
                         i1_I2C_Hold
 ---------------------------------------------------------------------------------
 (9) i1_I2CBegin                                           0     0      0       0
                         i1_I2C_Hold
 ---------------------------------------------------------------------------------
 (10) i1_I2C_Hold                                          0     0      0       0
 ---------------------------------------------------------------------------------
 (8) _GreenLed_TOG                                         0     0      0       0
 ---------------------------------------------------------------------------------
 (6) _RB0_Handler                                          0     0      0    5276
                            _ON_Mode
                         i1_OFF_Mode
 ---------------------------------------------------------------------------------
 (8) i1_OFF_Mode                                           0     0      0     880
             i1_vid_7_Segment_DeInit
 ---------------------------------------------------------------------------------
 (9) i1_vid_7_Segment_DeInit                               0     0      0     880
                  i1_DIO_SetPinValue
 ---------------------------------------------------------------------------------
 (8) _ON_Mode                                              0     0      0    4396
      _vid_7_Segment_Display_2Digits
 ---------------------------------------------------------------------------------
 (8) _vid_7_Segment_Display_2Digits                        6     6      0    4396
                                              8 COMMON     6     6      0
                            ___awdiv
                            ___awmod
   _vid_Left_7_Segment_DisplayNumber
  _vid_Right_7_Segment_DisplayNumber
                  i1_DIO_SetPinValue
 ---------------------------------------------------------------------------------
 (9) _vid_Right_7_Segment_DisplayNumber                    1     1      0    1164
                                              5 COMMON     1     1      0
                   _DIO_SetPortValue
                  i1_DIO_SetPinValue
 ---------------------------------------------------------------------------------
 (9) _vid_Left_7_Segment_DisplayNumber                     1     1      0    1164
                                              5 COMMON     1     1      0
                   _DIO_SetPortValue
                  i1_DIO_SetPinValue
 ---------------------------------------------------------------------------------
 (9) i1_DIO_SetPinValue                                    5     3      2     880
                                              0 COMMON     5     3      2
 ---------------------------------------------------------------------------------
 (10) _DIO_SetPortValue                                    4     3      1     262
                                              0 COMMON     4     3      1
 ---------------------------------------------------------------------------------
 (9) ___awmod                                              6     2      4     448
                                              0 COMMON     6     2      4
 ---------------------------------------------------------------------------------
 (9) ___awdiv                                              8     4      4     604
                                              0 COMMON     8     4      4
 ---------------------------------------------------------------------------------
 (6) _DIO_GetPinValue                                      5     4      1     333
                                              0 COMMON     5     4      1
 ---------------------------------------------------------------------------------
 (6) Absolute function(Fake)                               0     0      0       0
 ---------------------------------------------------------------------------------
 Estimated maximum stack depth 10
 ---------------------------------------------------------------------------------

 Call Graph Graphs:

 _main (ROOT)
   _Cooler_Init
     _DIO_SetPinDirection
     _DIO_SetPinValue
   _EXT_INT_Init
     _DIO_SetPinDirection
   _Heater_Init
     _DIO_SetPinDirection
     _DIO_SetPinValue
   _I2C_Init
     _DIO_SetPinDirection
   _OFF_Mode
     _vid_7_Segment_DeInit
       _DIO_SetPinValue
   _RTO_Init
     _Timer_SetCallBack
   _RTO_vid_CreateTask
     ___bmul
   _SetCallBacks
     _RB0_SetCallBack
     _RB4_SetCallBack
     _RB5_SetCallBack
   _SystemVars_Init
     _EEPROM_ReadFromEEPROM
       _I2CBegin
         _I2C_Hold
       _I2C_End
         _I2C_Hold
       _I2C_Read
         _I2C_Hold
       _I2C_RepeatedStart
         _I2C_Hold
       _I2C_Write
         _I2C_Hold
     _EEPROM_WriteToEEPROM
       _I2CBegin
         _I2C_Hold
       _I2C_End
         _I2C_Hold
       _I2C_Write
         _I2C_Hold
   _TempSensor_Init
     _ADC_Init
     _DIO_SetPinDirection
   _Timer1_Init_Comp
   _vid_7_Segment_Init
     _DIO_SetPinDirection
     _DIO_SetPinValue
     _DIO_SetPortDirection
   _vid_SystemInit
     _DIO_SetPinDirection

 _ISR (ROOT)
   Absolute function(Fake) *
   _DIO_GetPinValue *
   _RB0_Handler *
     _ON_Mode
       _vid_7_Segment_Display_2Digits
         ___awdiv
         ___awmod
         _vid_Left_7_Segment_DisplayNumber
           _DIO_SetPortValue
           i1_DIO_SetPinValue
         _vid_Right_7_Segment_DisplayNumber
           _DIO_SetPortValue
           i1_DIO_SetPinValue
         i1_DIO_SetPinValue
     i1_OFF_Mode
       i1_vid_7_Segment_DeInit
         i1_DIO_SetPinValue
   _RB4_Handler *
     _SetTemp_Mode
       _GreenLed_TOG
       _vid_7_Segment_Display_2Digits
         ___awdiv
         ___awmod
         _vid_Left_7_Segment_DisplayNumber
           _DIO_SetPortValue
           i1_DIO_SetPinValue
         _vid_Right_7_Segment_DisplayNumber
           _DIO_SetPortValue
           i1_DIO_SetPinValue
         i1_DIO_SetPinValue
       i1_EEPROM_WriteToEEPROM
         i1_I2CBegin
           i1_I2C_Hold
         i1_I2C_End
           i1_I2C_Hold
         i1_I2C_Write
           i1_I2C_Hold
       i1_vid_7_Segment_DeInit
         i1_DIO_SetPinValue
   _RB5_Handler *
     _SetTemp_Mode
       _GreenLed_TOG
       _vid_7_Segment_Display_2Digits
         ___awdiv
         ___awmod
         _vid_Left_7_Segment_DisplayNumber
           _DIO_SetPortValue
           i1_DIO_SetPinValue
         _vid_Right_7_Segment_DisplayNumber
           _DIO_SetPortValue
           i1_DIO_SetPinValue
         i1_DIO_SetPinValue
       i1_EEPROM_WriteToEEPROM
         i1_I2CBegin
           i1_I2C_Hold
         i1_I2C_End
           i1_I2C_Hold
         i1_I2C_Write
           i1_I2C_Hold
       i1_vid_7_Segment_DeInit
         i1_DIO_SetPinValue
   _RTO_vid_StartSchedular *
     _RedLed_TOG *
     _System_Power *
       _ON_Mode
         _vid_7_Segment_Display_2Digits
           ___awdiv
           ___awmod
           _vid_Left_7_Segment_DisplayNumber
             _DIO_SetPortValue
             i1_DIO_SetPinValue
           _vid_Right_7_Segment_DisplayNumber
             _DIO_SetPortValue
             i1_DIO_SetPinValue
           i1_DIO_SetPinValue
       _RedLed_TOG
       i1_OFF_Mode
         i1_vid_7_Segment_DeInit
           i1_DIO_SetPinValue
     _Temp_ControlWaterTemp *
       _ADC_Read
       _Cooler_TurnOff
         i1_DIO_SetPinValue
       _Cooler_TurnOn
         i1_DIO_SetPinValue
       _Heater_TurnOff
         i1_DIO_SetPinValue
       _Heater_TurnOn
         i1_DIO_SetPinValue
       _YellowLed_TOG
       ___awdiv
       ___lmul
       ___lwdiv
       _vid_7_Segment_Display_2Digits
         ___awdiv
         ___awmod
         _vid_Left_7_Segment_DisplayNumber
           _DIO_SetPortValue
           i1_DIO_SetPinValue
         _vid_Right_7_Segment_DisplayNumber
           _DIO_SetPortValue
           i1_DIO_SetPinValue
         i1_DIO_SetPinValue
     i1___bmul *

 Address spaces:
Name               Size   Autos  Total    Cost      Usage
BITCOMMON            E      0       0       0        0.0%
EEDATA             100      0       0       0        0.0%
NULL                 0      0       0       0        0.0%
CODE                 0      0       0       0        0.0%
COMMON               E      E       E       1      100.0%
BITSFR0              0      0       0       1        0.0%
SFR0                 0      0       0       1        0.0%
BITSFR1              0      0       0       2        0.0%
SFR1                 0      0       0       2        0.0%
STACK                0      0       0       2        0.0%
ABS                  0      0      51       3        0.0%
BITBANK0            50      0       0       4        0.0%
BITSFR3              0      0       0       4        0.0%
SFR3                 0      0       0       4        0.0%
BANK0               50     15      3E       5       77.5%
BITSFR2              0      0       0       5        0.0%
SFR2                 0      0       0       5        0.0%
BITBANK1            50      0       0       6        0.0%
BANK1               50      5       5       7        6.2%
BITBANK3            60      0       0       8        0.0%
BANK3               60      0       0       9        0.0%
BITBANK2            60      0       0      10        0.0%
BANK2               60      0       0      11        0.0%
DATA                 0      0      51      12        0.0%


Microchip Technology PIC Macro Assembler V2.20 build 20200408173844 
Symbol Table                                                                                   Sun Jul 12 16:50:13 2020

                                         pc 0002                              ___bmul@product 005A  
                        __size_of_I2C_Write 000F                                          l63 0F85  
                                        l64 0F93                                          l59 0CC0  
                                        l77 0BFF                           ??_TempSensor_Init 005E  
                              ___awdiv@sign 0075                                          fsr 0004  
                 __end_of_Timer_SetCallBack 0BBC                                 ?i1_I2CBegin 0070  
                           ??_Cooler_TurnOn 0075                                ?_RB0_Handler 0070  
                               ?i1_I2C_Hold 0070                           ??_DIO_GetPinValue 0071  
                            ?_YellowLed_TOG 0070                                         l113 0D63  
                                       l202 037A                                         l122 0D7F  
                                       l131 0CD3                                         l302 0C7E  
                                       l311 0C11                                         l223 0FFF  
                                       l151 0E25                                         l305 0C08  
                                       l314 0C9A                                         l171 01F4  
                                       l251 0BC3                                         l260 0F61  
                                       l308 0C1A                                         l324 0C8B  
                                       l181 01F4                                         l405 07D8  
                                       l254 0BCB                                         l431 0798  
                                       l319 0F2F                                         l192 037A  
                                       l408 0D47                                         l248 0BBB  
                                       l257 0BD3                                         l441 0CFE  
                                       l291 0EFE                                         l428 0BB3  
                                       l296 0EA3                                         l288 07FA  
                                       l553 0D2C                                         l385 0478  
                                       l386 0478                                         l299 0C72  
                                       _ISR 047C                             __end_of_I2C_End 0C12  
                                       fsr0 0004                                         indf 0000  
                              ___awmod@sign 0075                            ??_Cooler_TurnOff 0075  
                              ?_RB4_Handler 0070                                ?_RB5_Handler 0070  
                                      ?_ISR 0070                                ?i1_I2C_Write 0070  
                                      l2121 02C8                                        l2201 0F02  
                                      l3001 0429                                        l2131 02F0  
                                      l2123 02CE                                        l2211 0F21  
                                      l2203 0F07                                        l3003 0433  
                                      l2133 02FE                                        l2213 0F25  
                                      l2205 0F0F                                        l3005 0438  
                                      l2311 0132                                        l2143 0328  
                                      l2127 02D4                                        l2119 02C2  
                                      l2215 0F2B                                        l2207 0F15  
                                      l3007 044B                                        l2321 0160  
                                      l2313 0138                                        l2145 0337  
                                      l2153 0364                                        l2129 02E2  
                                      l2137 030C                                        l2217 0F2C  
                                      l2209 0F1A                                        l2241 0ECF  
                                      l3201 0FF1                                        l2401 0FCC  
                                      l3009 045F                                        l2323 0171  
                                      l2147 0346                                        l3203 0314  
                                      l2139 0322                                        l2235 0BBF  
                                      l2251 0EFB                                        l2243 0ED4  
                                      l2403 0FCD                                        l2333 019E  
                                      l2317 013E                                        l2309 012C  
                                      l3205 036C                                        l2149 0355  
                                      l2421 0BB7                                        l2237 0BC7  
                                      l2093 0C72                                        l2245 0EDA  
                                      l2261 07ED                                        l2405 0FD4  
                                      l2413 0FE9                                        l2335 01AE  
                                      l2343 01DE                                        l3207 018A  
                                      l2319 014F                                        l2327 0182  
                                      l2511 0D48                                        l2431 0D24  
                                      l2423 0D19                                        l2239 0BCF  
                                      l2095 0C78                                        l2191 0C94  
                                      l2247 0EE5                                        l2263 07F5  
                                      l2255 07DC                                        l2407 0FDB  
                                      l3209 01E6                                        l2337 01BE  
                                      l2329 0198                                        l2513 0D64  
                                      l2433 0D26                                        l2425 0D1A  
                                      l2185 0C00                                        l2193 0C09  
                                      l2249 0EEB                                        l2257 07E1  
                                      l2353 0C7F                                        l2409 0FE2  
                                      l2339 01CE                                        l2275 0D2D  
                                      l2435 0D2B                                        l2427 0D1E  
                                      l2187 0C05                                        l2195 0C0E  
                                      l2259 07E7                                        l2515 0CC1  
                                      l2429 0D22                                        l2197 0C12  
                                      l2189 0C8F                                        l2517 0CCE  
                                      l2551 0F54                                        l2199 0C17  
                                      l2471 0F92                                        l2463 0F7F  
                                      l2519 0DFD                                        l2553 0F5A  
                                      l2561 0E7A                                        l2473 0BF7  
                                      l2465 0F8F                                        l2457 0F62  
                                      l2555 0F5E                                        l2563 0E86  
                                      l2475 0BFA                                        l2467 0F90  
                                      l2459 0F70                                        l2557 0F5F  
                                      l2549 0F30                                        l2565 0E89  
                                      l2469 0F91                                        l2581 0CF5  
                                      l2559 0F60                                        l2567 0E96  
                                      l2583 0CF9                                        l2575 0CE9  
                                      l2585 0CFC                                        l2577 0CED  
                                      l2569 0799                                        l2587 0CFD  
                                      l2579 0CF1                                        l2919 0CAE  
                                      l2955 0BAD                                        l2957 0759  
                                      l2997 0401                                        l2999 0424  
                       __end_of_Heater_Init 0D80                                        u1230 0C78  
                                      u1231 0C77                                        u1320 0327  
                                      u1304 02F6                                        u1240 0C7E  
                                      u1400 0F21                                        u1321 0326  
                                      u1305 02F4                                        u1241 0C7D  
                                      u1401 0F20                                        u1314 0304  
                                      u1250 02C8                                        u1315 0302  
                                      u1251 02C7                                        u1260 02CE  
                                      u1261 02CD                                        u1334 032E  
                                      u1270 02D3                                        u1335 032C  
                                      u1271 02D2                                        u1504 0144  
                                      u1344 033D                                        u1505 0142  
                                      u1345 033B                                        u1514 0155  
                                      u1354 034C                                        u1515 0153  
                                      u1355 034A                                        u1540 019D  
                                      u1524 0166                                        u1364 035B  
                                      u1284 02DA                                        u1700 0F7E  
                                      u1541 019C                                        u1525 0164  
                                      u1365 0359                                        u1285 02D8  
                                      u1701 0F7D                                        u1534 0177  
                                      u1470 0132                                        u1294 02E8  
                                      u1535 0175                                        u1471 0131  
                                      u1295 02E6                                        u1480 0138  
                                      u1481 0137                                        u1554 01A4  
                                      u1490 013D                                        u1650 0D1E  
                                      u1555 01A2                                        u1491 013C  
                                      u1651 0D1D                                        u1564 01B4  
                                      u1660 0D2B                                        u1565 01B2  
                                      u1661 0D2A                                        u1574 01C4  
                                      u1575 01C2                                        u1584 01D4  
                                      u1585 01D2                                        u1690 0F70  
                                      u1691 0F6F                                        i1l71 0D9C  
                                      i1l74 0C25                                        i1l92 0CAD  
                                      i1l77 0BE4                                        i1l86 06C8  
                                      i1l87 06CB                            __end_of_I2CBegin 0C09  
                  __size_of_RB4_SetCallBack 0008                                        _main 0401  
                          __end_of_I2C_Hold 0C7F                            __end_of_I2C_Init 0EA4  
                          __end_of_I2C_Read 0F30                                 ?i1_OFF_Mode 0070  
                                      btemp 007E                             __end_of_ON_Mode 0C26  
                          __end_of_ADC_Init 0C8C                            __end_of_ADC_Read 0ECF  
                         i1_DIO_SetPinValue 01F5                              ??_GreenLed_TOG 0070  
                                      start 0012                          __size_ofi1_I2C_End 0009  
                         ___bmul@multiplier 005B                          ?i1_DIO_SetPinValue 0070  
                  __size_of_DIO_SetPinValue 00BC                                       ??_ISR 0054  
             i1DIO_SetPinValue@u8PinValCopy 0071                    __size_of_SystemVars_Init 0032  
                       ??i1_DIO_SetPinValue 0072                                       ?_main 0070  
                       __end_of_Cooler_Init 0D64                             __end_of___awdiv 05C6  
                           __end_of___awmod 067D                             ___awdiv@divisor 0070  
                          __end_of_OFF_Mode 0C00                             __end_of___lwdiv 0756  
                                     i1l100 0DFC                                       i1l101 0DFC  
                                     i1l110 0DDA                                       i1l202 02BE  
                                     i1l116 0C64                                       i1l213 055E  
                                     i1l109 0DDA                                       i1l125 0C71  
                                     i1l302 0C4A                                       i1l311 0BF6  
                                     i1l119 0C31                                       i1l128 0C3D  
                                     i1l160 0BA5                                       i1l233 0FC8  
                                     i1l305 0BED                                       i1l314 0C57  
                                     i1l330 0ECE                                       i1l154 0BAC  
                                     i1l411 0E4F                                       i1l148 0128  
                                     i1l157 0B9E                                       i1l414 0E79  
                                     i1l192 02BE                                       i1l408 0D15  
                                     i1l272 04E4                                       i1l265 0493  
                                     i1l419 0623                                       i1l275 04E4  
                                     i1l541 0711                                       i1l438 0400  
                                     i1l288 0DBA                                       i1l553 0CE8  
                                     i1l299 0C3E                                       i1l680 05C5  
                                     i1l693 067C                                       i1l799 0755  
                           ___awdiv@counter 0074                                       u90_20 0202  
                                     u90_21 0201                                       u91_20 0207  
                                     u91_21 0206                                       u92_24 020E  
                                     u92_25 020C                                       u93_24 021E  
                                     u93_25 021C                                       u94_24 022E  
                                     u94_25 022C                                       u95_24 023E  
                                     u95_25 023C                                       u96_20 0263  
                                     u96_21 0262                                       u89_20 01FC  
                                     u89_21 01FB                                       u97_24 026A  
                                     u97_25 0268                                       u98_24 027B  
                                     u98_25 0279                                       u99_24 028C  
                                     u99_25 028A                         ___lmul@multiplicand 0074  
                                     _Tasks 0020                  Timer_SetCallBack@local_pFn 0059  
                                     fpbase 0000                                  _Global_pFn 0041  
                          __end_ofi1___bmul 0CE9                           __end_of_I2C_Write 0C9B  
                                     pclath 000A                     __size_of_Heater_TurnOff 000C  
                          __end_of_RTO_Init 0BB4                   __end_ofi1_DIO_SetPinValue 02BF  
                       __size_ofi1_I2CBegin 0009                    __size_of_RB5_SetCallBack 0008  
                                     status 0003                                       wtemp0 007E  
                       __size_ofi1_I2C_Hold 000D               i1DIO_SetPinValue@u8PortIdCopy 0074  
                                _RedLed_TOG 0BA6                             __initialization 0015  
                     __size_of_System_Power 001D                                __end_of_main 047C  
            DIO_SetPinDirection@u8PinIdCopy 0059                    fp__Temp_ControlWaterTemp 0032  
                __end_of_RTO_vid_CreateTask 0799                                   ??_I2C_End 0059  
                           ??_YellowLed_TOG 0070                  __size_of_Timer_SetCallBack 0008  
                                    ??_main 005E            Temp_ControlWaterTemp@u8_Temp_Avg 004E  
                       __size_ofi1_OFF_Mode 0009                                 _Heater_Init 0D64  
                         __end_ofi1_I2C_End 0BF7                               ?_SetCallBacks 0070  
                             _GptrToFun_RB0 0040                               _GptrToFun_RB4 003F  
                             _GptrToFun_RB5 003E                                   ??_ON_Mode 007E  
                          ___awdiv@dividend 0072                             _RB0_SetCallBack 0BBC  
              __end_of_DIO_SetPortDirection 1000                          _vid_7_Segment_Init 0799  
                  ??_RTO_vid_StartSchedular 004F                                      u100_24 029D  
                                    u100_25 029B                                      u101_20 0564  
                                    u101_21 0563                                      u110_20 05BC  
                                    u102_20 056F                                      u110_21 05BB  
                                    i1l2001 0578                                      u102_21 056E  
                                    i1l2011 058E                                      i1l2003 057A  
                                    i1l2021 05B1                                      i1l2013 0592  
                                    i1l2005 0580                                      i1l2101 0BEE  
                                    i1l2015 05A3                                      i1l2007 0583  
                                    i1l2023 05B7                                      i1l2031 0624  
                                    i1l2103 0BF3                                      i1l2111 0BA6  
                                    u103_20 0580                                      u111_20 0629  
                                    i1l2025 05BC                                      i1l2017 05A9  
                                    i1l2009 058A                                      u103_21 057F  
                                    i1l2041 0634                                      u111_21 0628  
                                    i1l2033 0625                                      i1l2113 0C1B  
                                    i1l2105 0C4C                                      i1l2027 05C1  
                                    i1l2019 05AA                                      i1l2051 064D  
                                    i1l2043 0639                                      i1l2035 0629  
                                    i1l2115 0C1F                                      i1l2107 0C51  
                                    i1l2053 0651                                      i1l2045 063F  
                                    i1l2061 066E                                      i1l2037 062E  
                                    i1l2109 0CFF                                      i1l2221 0BDC  
                                    i1l2117 0B98                                      i1l2301 06B7  
                                    i1l2063 0673                                      i1l2055 065B  
                                    i1l2047 0642                                      i1l2039 0630  
                                    i1l2223 0BDF                                      i1l2071 0C44  
                                    i1l2231 0DAF                                      i1l2303 06BB  
                                    u112_20 0634                                      u120_20 0C44  
                                    u200_20 072C                                      i1l2065 0678  
                                    i1l2057 0661                                      i1l2049 0649  
                                    u112_21 0633                                      i1l2081 05F0  
                                    i1l2073 05C7                                      u120_21 0C43  
                                    i1l2233 0DB5                                      i1l2225 0D9E  
                                    i1l2305 06C1                                      u200_21 072B  
                                    i1l2059 0668                                      i1l3211 0250  
                                    i1l2091 0618                                      i1l2083 05F6  
                                    i1l2075 05EF                                      i1l2227 0DA3  
                                    i1l2307 06C2                                      i1l2163 0C58  
                                    i1l2171 0B9F                                      u104_25 0584  
                                    i1l3213 02B0                                      i1l2085 05FF  
                                    i1l2069 0C3E                                      i1l2229 0DA9  
                                    i1l2181 0EC8                                      i1l2173 0EA5  
                                    i1l2165 0C26                                      i1l3215 0FBA  
                                    i1l2087 060E                                      i1l2175 0EB4  
                                    i1l2167 0C65                                      i1l2271 0D92  
                                    u105_20 0592                                      u113_20 063F  
                                    u121_20 0C4A                                      i1l3217 054B  
                                    i1l2521 04F2                                      u105_21 0591  
                                    u113_21 063E                                      i1l2089 0612  
                                    u121_21 0C49                                      i1l2097 0BE5  
                                    i1l2281 0688                                      i1l2177 0EB9  
                                    i1l2169 0C32                                      i1l2273 0D97  
                                    i1l2265 0D80                                      i1l2441 0CD6  
                                    i1l2531 0521                                      i1l2523 04F8  
                                    i1l2099 0BEA                                      i1l2283 0688  
                                    i1l2179 0EBC                                      i1l2267 0D85  
                                    i1l2451 0CE7                                      i1l2443 0CDA  
                                    i1l2533 0532                                      i1l2541 055D  
                                    i1l2293 0695                                      i1l2285 068F  
                                    i1l2277 067D                                      u201_25 072D  
                                    i1l2269 0D8C                                      i1l2445 0CDE  
                                    i1l2527 04FF                                      i1l2295 06A0  
                                    i1l2287 0694                                      i1l2279 0683  
                                    i1l2447 0CE0                                      i1l2439 0CD5  
                                    u122_20 0618                                      u202_20 073D  
                                    u210_20 010B                                      i1l2529 0510  
                                    i1l2537 0543                                      i1l1921 0F95  
                                    u122_21 0617                                      i1l2297 06AE  
                                    u202_21 073C                                      u210_21 010A  
                                    i1l2449 0CE2                                      i1l2539 0559  
                                    i1l1923 0F96                                      i1l2299 06B5  
                                    u106_25 0593                                      u114_25 0643  
                                    i1l1925 0F9D                                      i1l1933 0FB2  
                                    i1l1941 01FC                                      u202_25 0739  
                                    u210_25 0107                                      i1l2901 00B0  
                                    i1l1927 0FA4                                      i1l1951 0228  
                                    i1l1943 0202                                      i1l2911 00F2  
                                    i1l2903 00B4                                      u107_20 05A3  
                                    u115_20 0651                                      u211_20 0CA2  
                                    u107_21 05A2                                      u115_21 0650  
                                    i1l1929 0FAB                                      i1l1953 0238  
                                    u211_21 0CA1                                      i1l2921 0C9B  
                                    i1l2841 06F8                                      i1l2833 06CC  
                                    i1l2913 010B                                      i1l2905 00BA  
                                    i1l1963 0264                                      i1l1947 0208  
                                    i1l1939 01F6                                      i1l2923 0CA2  
                                    i1l2931 0DE5                                      i1l2843 0709  
                                    i1l2835 06D4                                      i1l2851 071A  
                                    i1l2915 0116                                      i1l2907 00D0  
                                    u107_25 059F                                      i1l1965 0275  
                                    i1l1973 02A8                                      i1l1949 0218  
                                    i1l1957 0248                                      i1l2925 0CA8  
                                    i1l2933 0DEA                                      i1l2941 0DBB  
                                    i1l2837 06D8                                      u203_25 0745  
                                    i1l2861 073D                                      i1l2853 071D  
                                    i1l2909 00E7                                      i1l2917 0120  
                                    i1l1991 0564                                      i1l1967 0286  
                                    i1l1959 025E                                      i1l1983 0E27  
                                    i1l2935 0DF0                                      i1l2927 0DDB  
                                    i1l2951 0DD2                                      i1l2943 0DC2  
                                    i1l2839 06EF                                      i1l2863 0743  
                                    i1l2855 0724                                      i1l2847 0712  
                                    u116_20 065B                                      u212_20 0DE2  
                                    u204_20 0751                                      i1l1993 0569  
                                    u116_21 065A                                      i1l1969 0297  
                                    i1l1985 0E51                                      i1l2937 0DF4  
                                    i1l2929 0DE2                                      u212_21 0DE1  
                                    i1l2953 0DD4                                      i1l2945 0DC5  
                                    u204_21 0750                                      i1l2865 0744  
                                    i1l2857 0728                                      i1l2849 0714  
                                    i1l2881 004B                                      i1l2873 003E  
                                    i1l1995 056B                                      i1l1987 055F  
                                    i1l2939 0DF6                                      i1l2947 0DCA  
                                    i1l2867 074B                                      i1l2859 072C  
                                    i1l2891 00A0                                      i1l2883 0057  
                                    i1l2875 0043                                      i1l2971 03F4  
                                    u108_25 05AB                                      i1l1997 056F  
                                    i1l1989 0560                                      u116_25 0657  
                                    i1l2949 0DD0                                      i1l2869 0751  
                                    i1l2893 00A6                                      i1l2885 0081  
                                    i1l2877 0043                                      i1l2973 03FA  
                                    i1l2965 037F                                      i1l2981 0497  
                                    u220_25 047F                                      i1l1999 0574  
                                    i1l2887 0094                                      i1l2879 0046  
                                    i1l2967 0399                                      i1l2959 037B  
                                    i1l2983 04A6                                      i1l2991 04CB  
                                    i1l2975 047C                                      u109_20 05B7  
                                    u213_20 0DEA                                      u205_20 004B  
                                    u141_20 0D8C                                      u221_20 0488  
                                    u109_21 05B6                                      u213_21 0DE9  
                                    i1l2889 009C                                      u205_21 004A  
                                    u141_21 0D8B                                      i1l2969 03DF  
                                    i1l2993 04D7                                      i1l2985 04AF  
                                    i1l2977 0488                                      u221_21 0487  
                                    i1l2899 00A8                                      i1l2995 04DD  
                                    i1l2987 04BE                                      i1l2979 048E  
                                    u117_25 0662                                      i1l2989 04C6  
                                    u118_20 066E                                      u214_20 0DF0  
                                    u206_20 007A                                      u142_20 0D97  
                                    u222_20 0497                                      u118_21 066D  
                                    u214_21 0DEF                                      u142_21 0D96  
                                    u222_21 0496                                      u206_25 0075  
                                    u230_27 0609                                      u119_20 0673  
                                    u143_20 068F                                      u215_20 0DC2  
                                    u207_20 00A6                                      u223_20 04A6  
                                    u119_21 0672                                      u143_21 068E  
                                    u215_21 0DC1                                      u207_21 00A5  
                                    u223_21 04A5                                      u144_20 0694  
                                    u216_20 0DCA                                      u208_20 00BA  
                                    u224_20 04BE                                      u144_21 0693  
                                    u216_21 0DC9                                      u208_21 00B9  
                                    u224_21 04BD                                      u145_20 06B5  
                                    u217_20 0DD0                                      u209_20 00E7  
                                    u145_21 06B4                                      u217_21 0DCF  
                                    u209_21 00E6                                      u137_25 0EA8  
                                    u209_25 00E3                                      u225_25 04CE  
                                    u146_20 06C1                                      u218_20 0399  
                                    u226_20 04D7                                      u146_21 06C0  
                                    u218_21 0398                                      u226_21 04D6  
                                    u138_25 0EBF                                      u139_20 0EC8  
                                    u219_20 0400                                      u139_21 0EC7  
                                    u219_21 03FF                                      u227_27 0EB6  
                                    u180_24 0507                                      u180_25 0505  
                                    u228_27 06A8                                      u181_24 0518  
                                    u181_25 0516                                      u229_27 05FA  
                                    u182_24 0529                                      u182_25 0527  
                                    u167_20 0CDA                                      u167_21 0CD9  
                                    u183_24 053A                                      u183_25 0538  
                                    u168_20 0CE7                                      u168_21 0CE6  
                                    u193_20 06D8                                      u193_21 06D7  
                                    u178_20 04F8                                      u178_21 04F7  
                                    u194_21 06E1                                      u194_22 06E8  
                                    u194_23 06EF                                      u179_20 04FE  
                                    u179_21 04FD                                      u195_25 06F1  
                                    u196_25 06F9                                      u197_20 0709  
                                    u197_21 0708                                      u198_20 071A  
                                    u198_21 0719                                      u199_25 071E  
                                __i1fptable 0023                __size_of_DIO_SetPinDirection 00CC  
                              _System_Power 0D80                       __end_of_Heater_TurnOn 0C72  
             i1EEPROM_WriteToEEPROM@u8_Data 0071            Temp_ControlWaterTemp@u8_arr_Temp 002F  
                       ?_vid_7_Segment_Init 0070                    __end_of_DIO_SetPortValue 0FC9  
                         ??_RB4_SetCallBack 0059                                      ___bmul 0D16  
                               _Cooler_Init 0D48                                      ___lmul 06CC  
                                 ??___awdiv 0074                                   ??___awmod 0074  
                                 ??___lwdiv 0074                            ___awdiv@quotient 0076  
                           ___awmod@divisor 0070                             ___awmod@counter 0074  
                         ?_Timer1_Init_Comp 0070                                   ?_I2CBegin 0070  
                         ??_DIO_SetPinValue 005B                                      fptable 0022  
                      ??_vid_7_Segment_Init 005E                        __size_of_RB0_Handler 0013  
                        ??_Timer1_Init_Comp 0059                                      fptotal 0000  
                                 ?_I2C_Hold 0070                                   ?_I2C_Init 0070  
                                 ?_I2C_Read 0070                           ??_SystemVars_Init 005C  
                                 ?_ADC_Init 0070                                   ?_ADC_Read 0070  
                      __end_of_GreenLed_TOG 0B9F                                      saved_w 007E  
           ??_vid_7_Segment_Display_2Digits 0078                              ??_SetCallBacks 005A  
                             ?_EXT_INT_Init 0070               __size_of_vid_7_Segment_DeInit 001B  
                      __size_of_RB4_Handler 0022                        __size_of_RB5_Handler 0020  
                               _u16_Voltage 0039                  __size_ofi1_DIO_SetPinValue 00CA  
                   __end_of__initialization 001E                        __size_ofi1_I2C_Write 000D  
                           _TempSensor_Init 0CC1                                 ?_RedLed_TOG 0070  
                             ?_SetTemp_Mode 0070                                   ?_OFF_Mode 0070  
                       ___bmul@multiplicand 0059                             _DIO_GetPinValue 04F1  
                            __pcstackCOMMON 0070               __size_of_EEPROM_WriteToEEPROM 0022  
                         ??_RB5_SetCallBack 0059                             _SET_Mode_Status 003D  
                     _EEPROM_ReadFromEEPROM 0ECF                                ??i1_I2CBegin 0070  
                              ??i1_I2C_Hold 0070                                   ?i1___bmul 0070  
                                 ?_RTO_Init 0070                                  ??_I2CBegin 0059  
             DIO_SetPortDirection@u8PortDir 0059                     __end_of_RB0_SetCallBack 0BC4  
                                ??_I2C_Hold 0059                                  ??_I2C_Init 005E  
                                ??_I2C_Read 0059                                  ??_ADC_Init 0059  
                                ??_ADC_Read 0072                              ??_EXT_INT_Init 005E  
vid_Right_7_Segment_DisplayNumber@u8_Number 0075   vid_Left_7_Segment_DisplayNumber@u8_Number 0075  
                   __size_of_vid_SystemInit 0029                            i1___bmul@product 0071  
                DIO_GetPinValue@u8PinIdCopy 0070                                  __pbssBANK0 0020  
                            _Heater_TurnOff 0C32             __size_of_RTO_vid_StartSchedular 0086  
                          _u8_Left_7Segment 0810                                ??i1_OFF_Mode 0075  
                            ??_SetTemp_Mode 0049                          __end_ofi1_I2CBegin 0BEE  
      RTO_vid_CreateTask@copy_u16FirstDelay 00A2                          __end_ofi1_I2C_Hold 0C4B  
                                ??_OFF_Mode 005E                                  __pmaintext 0401  
                DIO_SetPinValue@u8PinIdCopy 0059                       _Temp_ControlWaterTemp 003E  
                                   ?___bmul 0059                                     ?___lmul 0070  
                                __pintentry 0004                                     _I2C_End 0C09  
             Temp_ControlWaterTemp@iterator 004D                              ___lmul@product 0079  
                      _DIO_SetPortDirection 0FC9                                  ??i1___bmul 0071  
    vid_7_Segment_Display_2Digits@Stability 007D                       __end_of_Cooler_TurnOn 0C65  
                                ??_RTO_Init 005A                         __size_of_RedLed_TOG 0007  
                        __end_ofi1_OFF_Mode 0BE5                      __end_of_Heater_TurnOff 0C3E  
                   __end_of_TempSensor_Init 0CD4                                     _ON_Mode 0C1B  
                              _u16_ADC_Read 003B                                  __stringtab 0800  
     __end_of_vid_7_Segment_Display_2Digits 0624      __size_of_vid_7_Segment_Display_2Digits 005E  
             _vid_7_Segment_Display_2Digits 05C6                     __end_of_DIO_GetPinValue 055F  
                                   i1fpbase 0028                                   _I2C_Write 0C8C  
                          entry__RedLed_TOG 0035                    ??i1_vid_7_Segment_DeInit 0075  
                      __end_of_SetCallBacks 0CC1                      ?_EEPROM_ReadFromEEPROM 0070  
                           __size_of___bmul 0017                                     ___awdiv 055F  
                           __size_of___lmul 0046                                     ___awmod 0624  
                                   ___lwdiv 0712                       ?_DIO_SetPortDirection 0059  
                    _RTO_vid_StartSchedular 037B                       __size_of_GreenLed_TOG 0007  
                       _DIO_SetPinDirection 0129                                     __ptext1 0DFD  
                                   __ptext2 0799                                     __ptext3 0FC9  
                                   __ptext4 0CE9                                     __ptext5 0CC1  
                                   __ptext6 0C7F                                     __ptext7 0F62  
                                   __ptext8 07D9                                     __ptext9 0ECF  
                       __size_of__i1fptable 001B                                __size_of_ISR 0075  
      RTO_vid_CreateTask@copy_u16Priodicity 00A0                            ?_RB0_SetCallBack 0070  
                              ?_Heater_Init 0070                            ___awmod@dividend 0072  
                  ??i1_EEPROM_WriteToEEPROM 0071                         i1___bmul@multiplier 0072  
                        _RTO_vid_CreateTask 0756                             ?_Heater_TurnOff 0070  
                                   clrloop0 0BD5                                   i1_I2C_End 0BEE  
                      end_of_initialization 001E                             _RB4_SetCallBack 0BC4  
                      ?_DIO_SetPinDirection 0059                     __size_of_Cooler_TurnOff 000C  
                       ?_RTO_vid_CreateTask 00A0                            I2C_Write@u8_Data 0059  
                                ?_I2C_Write 0070                      ?_Temp_ControlWaterTemp 0070  
                             _Set_Temp_Flag 0045                                _GreenLed_TOG 0B98  
                      __end_of_EXT_INT_Init 0F62                           ?_DIO_SetPortValue 0070  
                           _DIO_SetPinValue 02BF                                 _u8_Temp_Set 0048  
                              ?_Cooler_Init 0070                             _SystemVars_Init 0F62  
                        ??_DIO_SetPortValue 0071                        ??_RTO_vid_CreateTask 005C  
                     __end_of_YellowLed_TOG 0BA6                        __end_of_SetTemp_Mode 06CC  
                         __size_of_I2CBegin 0009                              _vid_SystemInit 0DFD  
                         __size_of_I2C_Hold 000D                           __size_of_I2C_Init 002A  
                         __size_of_I2C_Read 0031                           __size_of_ADC_Init 000D  
                         __size_of_ADC_Read 002B                            ?_TempSensor_Init 0070  
                                ?i1_I2C_End 0070                         I2C_Read@u8_DataRead 005A  
                     ??_DIO_SetPinDirection 005B                             _RB5_SetCallBack 0BCC  
                 __size_of_Timer1_Init_Comp 0016                            ?_DIO_GetPinValue 0070  
      RTO_vid_StartSchedular@u8_TCB_Counter 0053                                ??_RedLed_TOG 0070  
            ?_vid_7_Segment_Display_2Digits 0070                i1DIO_SetPinValue@u8PinIdCopy 0070  
              __end_of_vid_7_Segment_DeInit 0D48             __size_ofi1_vid_7_Segment_DeInit 0017  
                         __size_of_OFF_Mode 0009                      ??_DIO_SetPortDirection 005A  
                            __end_of___bmul 0D2D                              __end_of___lmul 0712  
                             ??_RB0_Handler 007E                    __end_of_u8_Left_7Segment 081A  
                    __size_of_Heater_TurnOn 000D                      __end_of_vid_SystemInit 0E26  
                         __size_ofi1___bmul 0015                         RB4_SetCallBack@pFun 0059  
               __size_of_vid_7_Segment_Init 0040                         start_initialization 0015  
                   __end_of_RB4_SetCallBack 0BCC                           __size_of_RTO_Init 0007  
                             ??_RB4_Handler 007E                __end_of_EEPROM_WriteToEEPROM 07FB  
                               __end_of_ISR 04F1                          __end_of_RedLed_TOG 0BAD  
           __size_ofi1_EEPROM_WriteToEEPROM 001E                               ??_RB5_Handler 007E  
                             ??i1_I2C_Write 0070                     __end_of_DIO_SetPinValue 037B  
                 DIO_SetPortValue@u8PortVal 0070                     __end_of_SystemVars_Init 0F94  
                     __size_of_SetCallBacks 0013                          ADC_Read@u8_Channel 0073  
                               ??_I2C_Write 0059                  RTO_vid_CreateTask@copy_pFn 00A4  
                                  ??___bmul 005A                                    ??___lmul 0078  
                         _I2C_RepeatedStart 0C12                                    ?_I2C_End 0070  
                        ?_I2C_RepeatedStart 0070                   fp__RTO_vid_StartSchedular 003B  
                        __end_of__i1fptable 003E                             ?_vid_SystemInit 0070  
         RTO_vid_CreateTask@copy_u8Priority 005C                                   ___latbits 0002  
                   __end_of_RB5_SetCallBack 0BD4                               __pcstackBANK0 0049  
                             __pcstackBANK1 00A0                      i1_vid_7_Segment_DeInit 0CFF  
                       __end_of_RB0_Handler 0CAE                         ??_I2C_RepeatedStart 0059  
                           fp__System_Power 0038                        __size_of_Heater_Init 001C  
                        i1I2C_Write@u8_Data 0070                                _SetCallBacks 0CAE  
                                  ?_ON_Mode 0070                                 ??i1_I2C_End 0070  
              DIO_SetPortDirection@u8PortId 005C                         __end_of_RB4_Handler 0DFD  
                            _Cooler_TurnOff 0C26                       __size_of_EXT_INT_Init 0032  
                       __end_of_RB5_Handler 0DDB                               _Heater_TurnOn 0C65  
                       __end_ofi1_I2C_Write 0C58                     ??_EEPROM_ReadFromEEPROM 005B  
                          ___lwdiv@dividend 0072                      i1_EEPROM_WriteToEEPROM 0D9D  
                               I2C_Read@ack 0059                     ?_RTO_vid_StartSchedular 0070  
                 __end_of_I2C_RepeatedStart 0C1B                                   __pfunctab 0022  
                                  ?___awdiv 0070                                    ?___awmod 0070  
                                  ?___lwdiv 0070                       __size_of_SetTemp_Mode 004F  
                      __size_of_Cooler_Init 001C                                   __pstrings 0800  
               DIO_SetPinValue@u8PinValCopy 005A                 DIO_GetPinValue@u8PortIdCopy 0073  
                                  _I2CBegin 0C00                            ??_Heater_TurnOff 0075  
                                  _I2C_Hold 0C72                                    _I2C_Init 0E7A  
                                  _I2C_Read 0EFF                                    _ADC_Init 0C7F  
                                  _ADC_Read 0EA4                            ?_RB4_SetCallBack 0070  
                              _EXT_INT_Init 0F30                        _vid_7_Segment_DeInit 0D2D  
                          ___lwdiv@quotient 0074                   EEPROM_ReadFromEEPROM@Data 005B  
                    __end_of_Cooler_TurnOff 0C32                            _Timer1_Init_Comp 0CE9  
                             ?_System_Power 0070                           interrupt_function 0004  
                   ??_Temp_ControlWaterTemp 0049                              ?_Heater_TurnOn 0070  
                          ?_DIO_SetPinValue 0059                            ?_SystemVars_Init 0070  
                         _TempChange_Status 0044                                   clear_ram0 0BD4  
                    __size_of_Cooler_TurnOn 000D                                _SetTemp_Mode 067D  
                       RB5_SetCallBack@pFun 0059              __end_of_RTO_vid_StartSchedular 0401  
                     i1___bmul@multiplicand 0070                                    _OFF_Mode 0BF7  
               DIO_SetPinValue@u8PortIdCopy 005D                        _EEPROM_WriteToEEPROM 07D9  
                             fp__RedLed_TOG 0035                                 _RB0_Handler 0C9B  
                          __size_of_I2C_End 0009                                    i1___bmul 0CD4  
                               __stringbase 0805                                    _RTO_Init 0BAD  
                 __size_of_DIO_SetPortValue 0035                            ?_RB5_SetCallBack 0070  
                     ?_vid_7_Segment_DeInit 0070                                 _RB4_Handler 0DDB  
                               _RB5_Handler 0DBB                                    i1fptable 0023  
           Temp_ControlWaterTemp@u8_Counter 0042                           ___lmul@multiplier 0070  
                                  i1fptotal 000E   __end_of_vid_Right_7_Segment_DisplayNumber 0E7A  
__size_of_vid_Right_7_Segment_DisplayNumber 002A         ??_vid_Right_7_Segment_DisplayNumber 0075  
        ?_vid_Right_7_Segment_DisplayNumber 0070           _vid_Right_7_Segment_DisplayNumber 0E50  
                               i1_I2C_Write 0C4B                             ?_Cooler_TurnOff 0070  
                             _ON_OFF_Status 0047                              ??_System_Power 0070  
                          __size_of_ON_Mode 000B                    __size_of_RB0_SetCallBack 0008  
                     ?_EEPROM_WriteToEEPROM 0070                 EEPROM_WriteToEEPROM@u8_Data 005A  
                __size_of_I2C_RepeatedStart 0009           vid_7_Segment_Display_2Digits@Ones 007A  
         vid_7_Segment_Display_2Digits@Tens 007B                            __size_of___awdiv 0067  
                          __size_of___awmod 0059                            __size_of___lwdiv 0044  
                         _u8_Right_7Segment 0806                          __end_of__stringtab 0806  
               __size_of_RTO_vid_CreateTask 0043         vid_7_Segment_Display_2Digits@u8_Num 007C  
                             _Cooler_TurnOn 0C58                           SetTemp_Mode@count 004C  
               __end_of_DIO_SetPinDirection 01F5                             ___lwdiv@divisor 0070  
                           ___lwdiv@counter 0076                                    __ptext10 0C8C  
                                  __ptext11 0C12                                    __ptext20 0756  
                                  __ptext12 0EFF                                    __ptext21 0D16  
                                  __ptext13 0C09                                    __ptext30 02BF  
                                  __ptext22 0BAD                                    __ptext14 0C00  
                                  __ptext31 0129                                    __ptext23 0BB4  
                                  __ptext15 0C72                                    __ptext40 0B9F  
                                  __ptext32 047C                                    __ptext24 0BF7  
                                  __ptext16 0CAE                                    __ptext41 0C65  
                                  __ptext33 037B                                    __ptext25 0D2D  
                                  __ptext17 0BCC                                    __ptext50 0C4B  
                                  __ptext42 0C32                                    __ptext34 0CD4  
                                  __ptext26 0E7A                                    __ptext18 0BC4  
                                  __ptext51 0BEE                                    __ptext43 0C58  
                                  __ptext35 0D80                                    __ptext27 0D64  
                                  __ptext19 0BBC                                    __ptext60 0E50  
                                  __ptext52 0BE5                                    __ptext44 0C26  
                                  __ptext36 0BA6                                    __ptext28 0F30  
                                  __ptext61 0E26                                    __ptext53 0C3E  
                                  __ptext45 0EA4                                    __ptext37 003E  
                                  __ptext29 0D48                                    __ptext62 01F5  
                                  __ptext54 0B98                                    __ptext46 0DBB  
                                  __ptext38 0712                                    __ptext63 0F94  
                                  __ptext55 0C9B                                    __ptext47 0DDB  
                                  __ptext39 06CC                                    __ptext64 0624  
                                  __ptext56 0BDC                                    __ptext48 067D  
                                  __ptext65 055F                                    __ptext57 0CFF  
                                  __ptext49 0D9D                                    __ptext66 04F1  
                                  __ptext58 0C1B                                    __ptext59 05C6  
                           ??_Heater_TurnOn 0075    __end_of_vid_Left_7_Segment_DisplayNumber 0E50  
 __size_of_vid_Left_7_Segment_DisplayNumber 002A          ??_vid_Left_7_Segment_DisplayNumber 0075  
         ?_vid_Left_7_Segment_DisplayNumber 0070            _vid_Left_7_Segment_DisplayNumber 0E26  
                             __size_of_main 007B                      __size_of_YellowLed_TOG 0007  
                  __size_of_TempSensor_Init 0013                    __size_of_DIO_GetPinValue 006E  
                 __end_of_u8_Right_7Segment 0810                            ??_vid_SystemInit 005E  
           DIO_SetPinDirection@u8PinDirCopy 005A                                  i1_I2CBegin 0BE5  
             __size_of_DIO_SetPortDirection 0037                  __end_of_vid_7_Segment_Init 07D9  
                                i1_I2C_Hold 0C3E                     ?i1_vid_7_Segment_DeInit 0070  
                            ?_Cooler_TurnOn 0070                         RB0_SetCallBack@pFun 0059  
                    ??_vid_7_Segment_DeInit 005E                               _u8_Water_Temp 0043  
                                  intlevel1 0022                     ?i1_EEPROM_WriteToEEPROM 0070  
                                i1_OFF_Mode 0BDC                      ??_EEPROM_WriteToEEPROM 005A  
                                 stringcode 0800                           ??_RB0_SetCallBack 0059  
            __size_of_EEPROM_ReadFromEEPROM 0030               __end_of_EEPROM_ReadFromEEPROM 0EFF  
           DIO_SetPinDirection@u8PortIdCopy 005D                                 _ON_OFF_Flag 0046  
            __end_ofi1_vid_7_Segment_DeInit 0D16                    __end_of_Timer1_Init_Comp 0CFF  
                      __end_of_System_Power 0D9D                           _Timer_SetCallBack 0BB4  
                             _YellowLed_TOG 0B9F                               ??_Heater_Init 005E  
                          _DIO_SetPortValue 0F94                          ?_Timer_SetCallBack 0070  
                                  stringdir 0800                                    stringtab 0800  
              DIO_GetPinValue@u8ResultLocal 0074                              fp__RB0_Handler 0029  
                       ??_Timer_SetCallBack 0059              __end_ofi1_EEPROM_WriteToEEPROM 0DBB  
            __size_of_Temp_ControlWaterTemp 00EB                              fp__RB4_Handler 002C  
             __end_of_Temp_ControlWaterTemp 0129                               ?_GreenLed_TOG 0070  
                            fp__RB5_Handler 002F                    DIO_SetPortValue@u8PortId 0073  
                             ??_Cooler_Init 005E  
