

Microchip MPLAB XC8 Assembler V2.20 build 20200408173844 
                                                                                               Sat Jul 11 12:57:08 2020

Microchip MPLAB XC8 C Compiler v2.20 (Free license) build 20200408173844 Og1 
     1                           	processor	16F877A
     2                           	pagewidth 120
     3                           	opt	flic
     4                           	psect	strings,global,class=STRING,delta=2,noexec
     5                           	psect	nvBANK0,global,class=BANK0,space=1,delta=1,noexec
     6                           	psect	cinit,global,class=CODE,merge=1,delta=2
     7                           	psect	bssBANK0,global,class=BANK0,space=1,delta=1,noexec
     8                           	psect	cstackCOMMON,global,class=COMMON,space=1,delta=1,noexec
     9                           	psect	cstackBANK0,global,class=BANK0,space=1,delta=1,noexec
    10                           	psect	maintext,global,class=CODE,split=1,delta=2
    11                           	psect	text1,local,class=CODE,merge=1,delta=2
    12                           	psect	text2,local,class=CODE,merge=1,delta=2
    13                           	psect	text3,local,class=CODE,merge=1,delta=2
    14                           	psect	text4,local,class=CODE,merge=1,delta=2
    15                           	psect	text5,local,class=CODE,merge=1,delta=2
    16                           	psect	text6,local,class=CODE,merge=1,delta=2
    17                           	psect	text7,local,class=CODE,merge=1,delta=2
    18                           	psect	text8,local,class=CODE,merge=1,delta=2
    19                           	psect	text9,local,class=CODE,merge=1,delta=2
    20                           	psect	text10,local,class=CODE,merge=1,delta=2
    21                           	psect	text11,local,class=CODE,merge=1,delta=2
    22                           	psect	text12,local,class=CODE,merge=1,delta=2
    23                           	psect	text13,local,class=CODE,merge=1,delta=2
    24                           	psect	text14,local,class=CODE,merge=1,delta=2,group=1
    25                           	psect	text15,local,class=CODE,merge=1,delta=2,group=1
    26                           	psect	text16,local,class=CODE,merge=1,delta=2
    27                           	psect	text17,local,class=CODE,merge=1,delta=2
    28                           	psect	text18,local,class=CODE,merge=1,delta=2
    29                           	psect	text19,local,class=CODE,merge=1,delta=2
    30                           	psect	text20,local,class=CODE,merge=1,delta=2
    31                           	psect	text21,local,class=CODE,merge=1,delta=2
    32                           	psect	intentry,global,class=CODE,delta=2
    33                           	psect	text22,local,class=CODE,merge=1,delta=2
    34                           	psect	text23,local,class=CODE,merge=1,delta=2
    35                           	psect	text24,local,class=CODE,merge=1,delta=2
    36                           	psect	text25,local,class=CODE,merge=1,delta=2
    37                           	psect	text26,local,class=CODE,merge=1,delta=2
    38                           	psect	text27,local,class=CODE,merge=1,delta=2
    39                           	psect	text28,local,class=CODE,merge=1,delta=2
    40                           	psect	text29,local,class=CODE,merge=1,delta=2
    41                           	psect	text30,local,class=CODE,merge=1,delta=2
    42                           	psect	text31,local,class=CODE,merge=1,delta=2
    43                           	psect	text32,local,class=CODE,merge=1,delta=2
    44                           	psect	text33,local,class=CODE,merge=1,delta=2
    45                           	psect	text34,local,class=CODE,merge=1,delta=2
    46                           	psect	text35,local,class=CODE,merge=1,delta=2
    47                           	psect	functab,global,class=ENTRY,delta=2
    48                           	psect	config,global,abs,ovrld,class=CONFIG,space=4,delta=2,noexec
    49                           	dabs	1,0x7E,2
    50  0000                     
    51                           ; Version 2.20
    52                           ; Generated 12/02/2020 GMT
    53                           ; 
    54                           ; Copyright © 2020, Microchip Technology Inc. and its subsidiaries ("Microchip")
    55                           ; All rights reserved.
    56                           ; 
    57                           ; This software is developed by Microchip Technology Inc. and its subsidiaries ("Microch
      +                          ip").
    58                           ; 
    59                           ; Redistribution and use in source and binary forms, with or without modification, are
    60                           ; permitted provided that the following conditions are met:
    61                           ; 
    62                           ;     1. Redistributions of source code must retain the above copyright notice, this lis
      +                          t of
    63                           ;        conditions and the following disclaimer.
    64                           ; 
    65                           ;     2. Redistributions in binary form must reproduce the above copyright notice, this 
      +                          list
    66                           ;        of conditions and the following disclaimer in the documentation and/or other
    67                           ;        materials provided with the distribution.
    68                           ; 
    69                           ;     3. Microchip's name may not be used to endorse or promote products derived from th
      +                          is
    70                           ;        software without specific prior written permission.
    71                           ; 
    72                           ; THIS SOFTWARE IS PROVIDED BY MICROCHIP "AS IS" AND ANY EXPRESS OR IMPLIED WARRANTIES,
    73                           ; INCLUDING, BUT NOT LIMITED TO, THE IMPLIED WARRANTIES OF MERCHANTABILITY AND FITNESS F
      +                          OR
    74                           ; PURPOSE ARE DISCLAIMED.  IN NO EVENT SHALL MICROCHIP BE LIABLE FOR ANY DIRECT, INDIREC
      +                          T,
    75                           ; INCIDENTAL, SPECIAL, EXEMPLARY, OR CONSEQUENTIAL DAMAGES (INCLUDING BUT NOT LIMITED TO
    76                           ; PROCUREMENT OF SUBSTITUTE GOODS OR SERVICES; LOSS OF USE, DATA OR PROFITS; OR BUSINESS
    77                           ; INTERRUPTION) HOWSOEVER CAUSED AND ON ANY THEORY OF LIABILITY, WHETHER IN CONTRACT, ST
      +                          RICT
    78                           ; LIABILITY, OR TORT (INCLUDING NEGLIGENCE OR OTHERWISE) ARISING IN ANY WAY OUT OF THE U
      +                          SE OF
    79                           ; THIS SOFTWARE, EVEN IF ADVISED OF THE POSSIBILITY OF SUCH DAMAGE.
    80                           ; 
    81                           ; 
    82                           ; Code-generator required, PIC16F877A Definitions
    83                           ; 
    84                           ; SFR Addresses
    85  0000                     	;# 
    86  0001                     	;# 
    87  0002                     	;# 
    88  0003                     	;# 
    89  0004                     	;# 
    90  0005                     	;# 
    91  0006                     	;# 
    92  0007                     	;# 
    93  0008                     	;# 
    94  0009                     	;# 
    95  000A                     	;# 
    96  000B                     	;# 
    97  000C                     	;# 
    98  000D                     	;# 
    99  000E                     	;# 
   100  000E                     	;# 
   101  000F                     	;# 
   102  0010                     	;# 
   103  0011                     	;# 
   104  0012                     	;# 
   105  0013                     	;# 
   106  0014                     	;# 
   107  0015                     	;# 
   108  0015                     	;# 
   109  0016                     	;# 
   110  0017                     	;# 
   111  0018                     	;# 
   112  0019                     	;# 
   113  001A                     	;# 
   114  001B                     	;# 
   115  001B                     	;# 
   116  001C                     	;# 
   117  001D                     	;# 
   118  001E                     	;# 
   119  001F                     	;# 
   120  0081                     	;# 
   121  0085                     	;# 
   122  0086                     	;# 
   123  0087                     	;# 
   124  0088                     	;# 
   125  0089                     	;# 
   126  008C                     	;# 
   127  008D                     	;# 
   128  008E                     	;# 
   129  0091                     	;# 
   130  0092                     	;# 
   131  0093                     	;# 
   132  0094                     	;# 
   133  0098                     	;# 
   134  0099                     	;# 
   135  009C                     	;# 
   136  009D                     	;# 
   137  009E                     	;# 
   138  009F                     	;# 
   139  010C                     	;# 
   140  010D                     	;# 
   141  010E                     	;# 
   142  010F                     	;# 
   143  018C                     	;# 
   144  018D                     	;# 
   145  0000                     	;# 
   146  0001                     	;# 
   147  0002                     	;# 
   148  0003                     	;# 
   149  0004                     	;# 
   150  0005                     	;# 
   151  0006                     	;# 
   152  0007                     	;# 
   153  0008                     	;# 
   154  0009                     	;# 
   155  000A                     	;# 
   156  000B                     	;# 
   157  000C                     	;# 
   158  000D                     	;# 
   159  000E                     	;# 
   160  000E                     	;# 
   161  000F                     	;# 
   162  0010                     	;# 
   163  0011                     	;# 
   164  0012                     	;# 
   165  0013                     	;# 
   166  0014                     	;# 
   167  0015                     	;# 
   168  0015                     	;# 
   169  0016                     	;# 
   170  0017                     	;# 
   171  0018                     	;# 
   172  0019                     	;# 
   173  001A                     	;# 
   174  001B                     	;# 
   175  001B                     	;# 
   176  001C                     	;# 
   177  001D                     	;# 
   178  001E                     	;# 
   179  001F                     	;# 
   180  0081                     	;# 
   181  0085                     	;# 
   182  0086                     	;# 
   183  0087                     	;# 
   184  0088                     	;# 
   185  0089                     	;# 
   186  008C                     	;# 
   187  008D                     	;# 
   188  008E                     	;# 
   189  0091                     	;# 
   190  0092                     	;# 
   191  0093                     	;# 
   192  0094                     	;# 
   193  0098                     	;# 
   194  0099                     	;# 
   195  009C                     	;# 
   196  009D                     	;# 
   197  009E                     	;# 
   198  009F                     	;# 
   199  010C                     	;# 
   200  010D                     	;# 
   201  010E                     	;# 
   202  010F                     	;# 
   203  018C                     	;# 
   204  018D                     	;# 
   205  0000                     	;# 
   206  0001                     	;# 
   207  0002                     	;# 
   208  0003                     	;# 
   209  0004                     	;# 
   210  0005                     	;# 
   211  0006                     	;# 
   212  0007                     	;# 
   213  0008                     	;# 
   214  0009                     	;# 
   215  000A                     	;# 
   216  000B                     	;# 
   217  000C                     	;# 
   218  000D                     	;# 
   219  000E                     	;# 
   220  000E                     	;# 
   221  000F                     	;# 
   222  0010                     	;# 
   223  0011                     	;# 
   224  0012                     	;# 
   225  0013                     	;# 
   226  0014                     	;# 
   227  0015                     	;# 
   228  0015                     	;# 
   229  0016                     	;# 
   230  0017                     	;# 
   231  0018                     	;# 
   232  0019                     	;# 
   233  001A                     	;# 
   234  001B                     	;# 
   235  001B                     	;# 
   236  001C                     	;# 
   237  001D                     	;# 
   238  001E                     	;# 
   239  001F                     	;# 
   240  0081                     	;# 
   241  0085                     	;# 
   242  0086                     	;# 
   243  0087                     	;# 
   244  0088                     	;# 
   245  0089                     	;# 
   246  008C                     	;# 
   247  008D                     	;# 
   248  008E                     	;# 
   249  0091                     	;# 
   250  0092                     	;# 
   251  0093                     	;# 
   252  0094                     	;# 
   253  0098                     	;# 
   254  0099                     	;# 
   255  009C                     	;# 
   256  009D                     	;# 
   257  009E                     	;# 
   258  009F                     	;# 
   259  010C                     	;# 
   260  010D                     	;# 
   261  010E                     	;# 
   262  010F                     	;# 
   263  018C                     	;# 
   264  018D                     	;# 
   265  0000                     	;# 
   266  0001                     	;# 
   267  0002                     	;# 
   268  0003                     	;# 
   269  0004                     	;# 
   270  0005                     	;# 
   271  0006                     	;# 
   272  0007                     	;# 
   273  0008                     	;# 
   274  0009                     	;# 
   275  000A                     	;# 
   276  000B                     	;# 
   277  000C                     	;# 
   278  000D                     	;# 
   279  000E                     	;# 
   280  000E                     	;# 
   281  000F                     	;# 
   282  0010                     	;# 
   283  0011                     	;# 
   284  0012                     	;# 
   285  0013                     	;# 
   286  0014                     	;# 
   287  0015                     	;# 
   288  0015                     	;# 
   289  0016                     	;# 
   290  0017                     	;# 
   291  0018                     	;# 
   292  0019                     	;# 
   293  001A                     	;# 
   294  001B                     	;# 
   295  001B                     	;# 
   296  001C                     	;# 
   297  001D                     	;# 
   298  001E                     	;# 
   299  001F                     	;# 
   300  0081                     	;# 
   301  0085                     	;# 
   302  0086                     	;# 
   303  0087                     	;# 
   304  0088                     	;# 
   305  0089                     	;# 
   306  008C                     	;# 
   307  008D                     	;# 
   308  008E                     	;# 
   309  0091                     	;# 
   310  0092                     	;# 
   311  0093                     	;# 
   312  0094                     	;# 
   313  0098                     	;# 
   314  0099                     	;# 
   315  009C                     	;# 
   316  009D                     	;# 
   317  009E                     	;# 
   318  009F                     	;# 
   319  010C                     	;# 
   320  010D                     	;# 
   321  010E                     	;# 
   322  010F                     	;# 
   323  018C                     	;# 
   324  018D                     	;# 
   325  0000                     	;# 
   326  0001                     	;# 
   327  0002                     	;# 
   328  0003                     	;# 
   329  0004                     	;# 
   330  0005                     	;# 
   331  0006                     	;# 
   332  0007                     	;# 
   333  0008                     	;# 
   334  0009                     	;# 
   335  000A                     	;# 
   336  000B                     	;# 
   337  000C                     	;# 
   338  000D                     	;# 
   339  000E                     	;# 
   340  000E                     	;# 
   341  000F                     	;# 
   342  0010                     	;# 
   343  0011                     	;# 
   344  0012                     	;# 
   345  0013                     	;# 
   346  0014                     	;# 
   347  0015                     	;# 
   348  0015                     	;# 
   349  0016                     	;# 
   350  0017                     	;# 
   351  0018                     	;# 
   352  0019                     	;# 
   353  001A                     	;# 
   354  001B                     	;# 
   355  001B                     	;# 
   356  001C                     	;# 
   357  001D                     	;# 
   358  001E                     	;# 
   359  001F                     	;# 
   360  0081                     	;# 
   361  0085                     	;# 
   362  0086                     	;# 
   363  0087                     	;# 
   364  0088                     	;# 
   365  0089                     	;# 
   366  008C                     	;# 
   367  008D                     	;# 
   368  008E                     	;# 
   369  0091                     	;# 
   370  0092                     	;# 
   371  0093                     	;# 
   372  0094                     	;# 
   373  0098                     	;# 
   374  0099                     	;# 
   375  009C                     	;# 
   376  009D                     	;# 
   377  009E                     	;# 
   378  009F                     	;# 
   379  010C                     	;# 
   380  010D                     	;# 
   381  010E                     	;# 
   382  010F                     	;# 
   383  018C                     	;# 
   384  018D                     	;# 
   385                           
   386                           	psect	strings
   387  0800                     __pstrings:
   388  0800                     stringtab:
   389  0800                     __stringtab:
   390  0800                     stringcode:	
   391                           ;	String table - string pointers are 1 byte each
   392                           
   393  0800                     stringdir:
   394  0800  3008               	movlw	high stringdir
   395  0801  008A               	movwf	10
   396  0802  0804               	movf	4,w
   397  0803  0A84               	incf	4,f
   398  0804  0782               	addwf	2,f
   399  0805                     __stringbase:
   400  0805  3400               	retlw	0
   401  0806                     __end_of__stringtab:
   402  0806                     _u8_Right_7Segment:
   403  0806  343F               	retlw	63
   404  0807  3406               	retlw	6
   405  0808  345B               	retlw	91
   406  0809  344F               	retlw	79
   407  080A  3466               	retlw	102
   408  080B  346D               	retlw	109
   409  080C  347D               	retlw	125
   410  080D  3407               	retlw	7
   411  080E  347F               	retlw	127
   412  080F  346F               	retlw	111
   413  0810                     __end_of_u8_Right_7Segment:
   414  0810                     _u8_Left_7Segment:
   415  0810  343F               	retlw	63
   416  0811  3406               	retlw	6
   417  0812  345B               	retlw	91
   418  0813  344F               	retlw	79
   419  0814  3466               	retlw	102
   420  0815  346D               	retlw	109
   421  0816  347D               	retlw	125
   422  0817  3407               	retlw	7
   423  0818  347F               	retlw	127
   424  0819  346F               	retlw	111
   425  081A                     __end_of_u8_Left_7Segment:
   426                           
   427                           	psect	nvBANK0
   428  003F                     __pnvBANK0:
   429  003F                     _u8_Temp:
   430  003F                     	ds	1
   431                           
   432                           	psect	cinit
   433  0015                     start_initialization:	
   434                           ; #config settings
   435                           
   436  0015                     __initialization:
   437                           
   438                           ; Clear objects allocated to BANK0
   439  0015  1283               	bcf	3,5	;RP0=0, select bank0
   440  0016  1303               	bcf	3,6	;RP1=0, select bank0
   441  0017  01B7               	clrf	__pbssBANK0& (0+127)
   442  0018  01B8               	clrf	(__pbssBANK0+1)& (0+127)
   443  0019  01B9               	clrf	(__pbssBANK0+2)& (0+127)
   444  001A  01BA               	clrf	(__pbssBANK0+3)& (0+127)
   445  001B  01BB               	clrf	(__pbssBANK0+4)& (0+127)
   446  001C  01BC               	clrf	(__pbssBANK0+5)& (0+127)
   447  001D  01BD               	clrf	(__pbssBANK0+6)& (0+127)
   448  001E  01BE               	clrf	(__pbssBANK0+7)& (0+127)
   449  001F                     end_of_initialization:	
   450                           ;End of C runtime variable initialization code
   451                           
   452  001F                     __end_of__initialization:
   453  001F  0183               	clrf	3
   454  0020  120A  118A  2E38   	ljmp	_main	;jump to C main() function
   455                           
   456                           	psect	bssBANK0
   457  0037                     __pbssBANK0:
   458  0037                     _GptrToFun_RB5:
   459  0037                     	ds	1
   460  0038                     _GptrToFun_RB4:
   461  0038                     	ds	1
   462  0039                     _GptrToFun_RB0:
   463  0039                     	ds	1
   464  003A                     _TempChange_Status:
   465  003A                     	ds	1
   466  003B                     _Set_Temp_Flag:
   467  003B                     	ds	1
   468  003C                     _ON_OFF_Flag:
   469  003C                     	ds	1
   470  003D                     _SET_Mode_Status:
   471  003D                     	ds	1
   472  003E                     _ON_OFF_Status:
   473  003E                     	ds	1
   474                           
   475                           	psect	cstackCOMMON
   476  0070                     __pcstackCOMMON:
   477  0070                     ?_SystemVars_Init:
   478  0070                     ?_EXT_INT_Init:	
   479                           ; 1 bytes @ 0x0
   480                           
   481  0070                     ?_vid_7_Segment_Init:	
   482                           ; 1 bytes @ 0x0
   483                           
   484  0070                     ?_SetCallBacks:	
   485                           ; 1 bytes @ 0x0
   486                           
   487  0070                     ?_OFF_Mode:	
   488                           ; 1 bytes @ 0x0
   489                           
   490  0070                     ?_ON_Mode:	
   491                           ; 1 bytes @ 0x0
   492                           
   493  0070                     ?_SetTemp_Mode:	
   494                           ; 1 bytes @ 0x0
   495                           
   496  0070                     ?_RB0_Handler:	
   497                           ; 1 bytes @ 0x0
   498                           
   499  0070                     ?_RB4_Handler:	
   500                           ; 1 bytes @ 0x0
   501                           
   502  0070                     ??_RB4_Handler:	
   503                           ; 1 bytes @ 0x0
   504                           
   505  0070                     ?_RB5_Handler:	
   506                           ; 1 bytes @ 0x0
   507                           
   508  0070                     ??_RB5_Handler:	
   509                           ; 1 bytes @ 0x0
   510                           
   511  0070                     ?_main:	
   512                           ; 1 bytes @ 0x0
   513                           
   514  0070                     ?_DIO_GetPinValue:	
   515                           ; 1 bytes @ 0x0
   516                           
   517  0070                     ?_RB0_SetCallBack:	
   518                           ; 1 bytes @ 0x0
   519                           
   520  0070                     ?_RB4_SetCallBack:	
   521                           ; 1 bytes @ 0x0
   522                           
   523  0070                     ?_RB5_SetCallBack:	
   524                           ; 1 bytes @ 0x0
   525                           
   526  0070                     ?_ISR:	
   527                           ; 1 bytes @ 0x0
   528                           
   529  0070                     ?_vid_7_Segment_DeInit:	
   530                           ; 1 bytes @ 0x0
   531                           
   532  0070                     ?_vid_Left_7_Segment_DisplayNumber:	
   533                           ; 1 bytes @ 0x0
   534                           
   535  0070                     ?_vid_Right_7_Segment_DisplayNumber:	
   536                           ; 1 bytes @ 0x0
   537                           
   538  0070                     ?_vid_7_Segment_Display_2Digits:	
   539                           ; 1 bytes @ 0x0
   540                           
   541  0070                     ?i1_DIO_SetPinValue:	
   542                           ; 1 bytes @ 0x0
   543                           
   544  0070                     ?i1_DIO_SetPortValue:	
   545                           ; 1 bytes @ 0x0
   546                           
   547  0070                     ?i1_vid_7_Segment_DeInit:	
   548                           ; 1 bytes @ 0x0
   549                           
   550  0070                     ?i1_vid_Left_7_Segment_DisplayNumber:	
   551                           ; 1 bytes @ 0x0
   552                           
   553  0070                     ?i1_vid_Right_7_Segment_DisplayNumber:	
   554                           ; 1 bytes @ 0x0
   555                           
   556  0070                     ?i1_vid_7_Segment_Display_2Digits:	
   557                           ; 1 bytes @ 0x0
   558                           
   559  0070                     ?i1_ON_Mode:	
   560                           ; 1 bytes @ 0x0
   561                           
   562  0070                     ?i1_OFF_Mode:	
   563                           ; 1 bytes @ 0x0
   564                           
   565  0070                     ?i1___awdiv:	
   566                           ; 1 bytes @ 0x0
   567                           
   568  0070                     ?i1___awmod:	
   569                           ; 2 bytes @ 0x0
   570                           
   571  0070                     DIO_GetPinValue@u8PinIdCopy:	
   572                           ; 2 bytes @ 0x0
   573                           
   574  0070                     i1DIO_SetPinValue@u8PinIdCopy:	
   575                           ; 1 bytes @ 0x0
   576                           
   577  0070                     i1DIO_SetPortValue@u8PortVal:	
   578                           ; 1 bytes @ 0x0
   579                           
   580  0070                     i1___awdiv@divisor:	
   581                           ; 1 bytes @ 0x0
   582                           
   583  0070                     i1___awmod@divisor:	
   584                           ; 2 bytes @ 0x0
   585                           
   586                           
   587                           ; 2 bytes @ 0x0
   588  0070                     	ds	1
   589  0071                     ??_DIO_GetPinValue:
   590  0071                     ??i1_DIO_SetPortValue:	
   591                           ; 1 bytes @ 0x1
   592                           
   593  0071                     i1DIO_SetPinValue@u8PinValCopy:	
   594                           ; 1 bytes @ 0x1
   595                           
   596                           
   597                           ; 1 bytes @ 0x1
   598  0071                     	ds	1
   599  0072                     ??i1_DIO_SetPinValue:
   600  0072                     i1___awdiv@dividend:	
   601                           ; 1 bytes @ 0x2
   602                           
   603  0072                     i1___awmod@dividend:	
   604                           ; 2 bytes @ 0x2
   605                           
   606                           
   607                           ; 2 bytes @ 0x2
   608  0072                     	ds	1
   609  0073                     DIO_GetPinValue@u8PortIdCopy:
   610  0073                     i1DIO_SetPortValue@u8PortId:	
   611                           ; 1 bytes @ 0x3
   612                           
   613                           
   614                           ; 1 bytes @ 0x3
   615  0073                     	ds	1
   616  0074                     ??i1___awdiv:
   617  0074                     ??i1___awmod:	
   618                           ; 1 bytes @ 0x4
   619                           
   620  0074                     DIO_GetPinValue@u8ResultLocal:	
   621                           ; 1 bytes @ 0x4
   622                           
   623  0074                     i1DIO_SetPinValue@u8PortIdCopy:	
   624                           ; 1 bytes @ 0x4
   625                           
   626  0074                     i1___awdiv@counter:	
   627                           ; 1 bytes @ 0x4
   628                           
   629  0074                     i1___awmod@counter:	
   630                           ; 1 bytes @ 0x4
   631                           
   632                           
   633                           ; 1 bytes @ 0x4
   634  0074                     	ds	1
   635  0075                     ??i1_vid_7_Segment_DeInit:
   636  0075                     ??i1_vid_Left_7_Segment_DisplayNumber:	
   637                           ; 1 bytes @ 0x5
   638                           
   639  0075                     ??i1_vid_Right_7_Segment_DisplayNumber:	
   640                           ; 1 bytes @ 0x5
   641                           
   642  0075                     ??i1_OFF_Mode:	
   643                           ; 1 bytes @ 0x5
   644                           
   645  0075                     i1vid_Left_7_Segment_DisplayNumber@u8_Number:	
   646                           ; 1 bytes @ 0x5
   647                           
   648  0075                     i1vid_Right_7_Segment_DisplayNumber@u8_Number:	
   649                           ; 1 bytes @ 0x5
   650                           
   651  0075                     i1___awdiv@sign:	
   652                           ; 1 bytes @ 0x5
   653                           
   654  0075                     i1___awmod@sign:	
   655                           ; 1 bytes @ 0x5
   656                           
   657                           
   658                           ; 1 bytes @ 0x5
   659  0075                     	ds	1
   660  0076                     i1___awdiv@quotient:
   661                           
   662                           ; 2 bytes @ 0x6
   663  0076                     	ds	2
   664  0078                     ??i1_vid_7_Segment_Display_2Digits:
   665                           
   666                           ; 1 bytes @ 0x8
   667  0078                     	ds	2
   668  007A                     i1vid_7_Segment_Display_2Digits@Ones:
   669                           
   670                           ; 1 bytes @ 0xA
   671  007A                     	ds	1
   672  007B                     i1vid_7_Segment_Display_2Digits@Tens:
   673                           
   674                           ; 1 bytes @ 0xB
   675  007B                     	ds	1
   676  007C                     i1vid_7_Segment_Display_2Digits@u8_Num:
   677                           
   678                           ; 1 bytes @ 0xC
   679  007C                     	ds	1
   680  007D                     i1vid_7_Segment_Display_2Digits@Stability:
   681                           
   682                           ; 1 bytes @ 0xD
   683  007D                     	ds	1
   684  007E                     ??_RB0_Handler:
   685  007E                     ??i1_ON_Mode:	
   686                           ; 1 bytes @ 0xE
   687                           
   688                           
   689                           	psect	cstackBANK0
   690  0020                     __pcstackBANK0:	
   691                           ; 1 bytes @ 0xE
   692                           
   693  0020                     ??_ISR:
   694                           
   695                           ; 1 bytes @ 0x0
   696  0020                     	ds	5
   697  0025                     ??_SystemVars_Init:
   698  0025                     ?_DIO_SetPinDirection:	
   699                           ; 1 bytes @ 0x5
   700                           
   701  0025                     ?_DIO_SetPinValue:	
   702                           ; 1 bytes @ 0x5
   703                           
   704  0025                     ?_DIO_SetPortDirection:	
   705                           ; 1 bytes @ 0x5
   706                           
   707  0025                     ?_DIO_SetPortValue:	
   708                           ; 1 bytes @ 0x5
   709                           
   710  0025                     ??_RB0_SetCallBack:	
   711                           ; 1 bytes @ 0x5
   712                           
   713  0025                     ??_RB4_SetCallBack:	
   714                           ; 1 bytes @ 0x5
   715                           
   716  0025                     ??_RB5_SetCallBack:	
   717                           ; 1 bytes @ 0x5
   718                           
   719  0025                     ?___awdiv:	
   720                           ; 1 bytes @ 0x5
   721                           
   722  0025                     ?___awmod:	
   723                           ; 2 bytes @ 0x5
   724                           
   725  0025                     DIO_SetPinDirection@u8PinIdCopy:	
   726                           ; 2 bytes @ 0x5
   727                           
   728  0025                     DIO_SetPinValue@u8PinIdCopy:	
   729                           ; 1 bytes @ 0x5
   730                           
   731  0025                     DIO_SetPortDirection@u8PortDir:	
   732                           ; 1 bytes @ 0x5
   733                           
   734  0025                     DIO_SetPortValue@u8PortVal:	
   735                           ; 1 bytes @ 0x5
   736                           
   737  0025                     RB0_SetCallBack@pFun:	
   738                           ; 1 bytes @ 0x5
   739                           
   740  0025                     RB4_SetCallBack@pFun:	
   741                           ; 1 bytes @ 0x5
   742                           
   743  0025                     RB5_SetCallBack@pFun:	
   744                           ; 1 bytes @ 0x5
   745                           
   746  0025                     ___awdiv@divisor:	
   747                           ; 1 bytes @ 0x5
   748                           
   749  0025                     ___awmod@divisor:	
   750                           ; 2 bytes @ 0x5
   751                           
   752                           
   753                           ; 2 bytes @ 0x5
   754  0025                     	ds	1
   755  0026                     ??_SetCallBacks:
   756  0026                     ??_DIO_SetPortDirection:	
   757                           ; 1 bytes @ 0x6
   758                           
   759  0026                     ??_DIO_SetPortValue:	
   760                           ; 1 bytes @ 0x6
   761                           
   762  0026                     DIO_SetPinDirection@u8PinDirCopy:	
   763                           ; 1 bytes @ 0x6
   764                           
   765  0026                     DIO_SetPinValue@u8PinValCopy:	
   766                           ; 1 bytes @ 0x6
   767                           
   768                           
   769                           ; 1 bytes @ 0x6
   770  0026                     	ds	1
   771  0027                     ??_DIO_SetPinDirection:
   772  0027                     ??_DIO_SetPinValue:	
   773                           ; 1 bytes @ 0x7
   774                           
   775  0027                     ___awdiv@dividend:	
   776                           ; 1 bytes @ 0x7
   777                           
   778  0027                     ___awmod@dividend:	
   779                           ; 2 bytes @ 0x7
   780                           
   781                           
   782                           ; 2 bytes @ 0x7
   783  0027                     	ds	1
   784  0028                     DIO_SetPortDirection@u8PortId:
   785  0028                     DIO_SetPortValue@u8PortId:	
   786                           ; 1 bytes @ 0x8
   787                           
   788                           
   789                           ; 1 bytes @ 0x8
   790  0028                     	ds	1
   791  0029                     ??___awdiv:
   792  0029                     ??___awmod:	
   793                           ; 1 bytes @ 0x9
   794                           
   795  0029                     DIO_SetPinDirection@u8PortIdCopy:	
   796                           ; 1 bytes @ 0x9
   797                           
   798  0029                     DIO_SetPinValue@u8PortIdCopy:	
   799                           ; 1 bytes @ 0x9
   800                           
   801  0029                     ___awdiv@counter:	
   802                           ; 1 bytes @ 0x9
   803                           
   804  0029                     ___awmod@counter:	
   805                           ; 1 bytes @ 0x9
   806                           
   807                           
   808                           ; 1 bytes @ 0x9
   809  0029                     	ds	1
   810  002A                     ??_EXT_INT_Init:
   811  002A                     ??_vid_7_Segment_Init:	
   812                           ; 1 bytes @ 0xA
   813                           
   814  002A                     ??_OFF_Mode:	
   815                           ; 1 bytes @ 0xA
   816                           
   817  002A                     ??_vid_7_Segment_DeInit:	
   818                           ; 1 bytes @ 0xA
   819                           
   820  002A                     ??_vid_Left_7_Segment_DisplayNumber:	
   821                           ; 1 bytes @ 0xA
   822                           
   823  002A                     ??_vid_Right_7_Segment_DisplayNumber:	
   824                           ; 1 bytes @ 0xA
   825                           
   826  002A                     vid_Left_7_Segment_DisplayNumber@u8_Number:	
   827                           ; 1 bytes @ 0xA
   828                           
   829  002A                     vid_Right_7_Segment_DisplayNumber@u8_Number:	
   830                           ; 1 bytes @ 0xA
   831                           
   832  002A                     ___awdiv@sign:	
   833                           ; 1 bytes @ 0xA
   834                           
   835  002A                     ___awmod@sign:	
   836                           ; 1 bytes @ 0xA
   837                           
   838                           
   839                           ; 1 bytes @ 0xA
   840  002A                     	ds	1
   841  002B                     ___awdiv@quotient:
   842                           
   843                           ; 2 bytes @ 0xB
   844  002B                     	ds	2
   845  002D                     ??_vid_7_Segment_Display_2Digits:
   846                           
   847                           ; 1 bytes @ 0xD
   848  002D                     	ds	2
   849  002F                     vid_7_Segment_Display_2Digits@Ones:
   850                           
   851                           ; 1 bytes @ 0xF
   852  002F                     	ds	1
   853  0030                     vid_7_Segment_Display_2Digits@Tens:
   854                           
   855                           ; 1 bytes @ 0x10
   856  0030                     	ds	1
   857  0031                     vid_7_Segment_Display_2Digits@u8_Num:
   858                           
   859                           ; 1 bytes @ 0x11
   860  0031                     	ds	1
   861  0032                     vid_7_Segment_Display_2Digits@Stability:
   862                           
   863                           ; 1 bytes @ 0x12
   864  0032                     	ds	1
   865  0033                     ??_ON_Mode:
   866  0033                     ??_SetTemp_Mode:	
   867                           ; 1 bytes @ 0x13
   868                           
   869                           
   870                           ; 1 bytes @ 0x13
   871  0033                     	ds	3
   872  0036                     SetTemp_Mode@count:
   873                           
   874                           ; 1 bytes @ 0x16
   875  0036                     	ds	1
   876  0037                     ??_main:
   877                           
   878                           	psect	maintext
   879  0638                     __pmaintext:	
   880                           ; 1 bytes @ 0x17
   881 ;;
   882 ;;Main: autosize = 0, tempsize = 0, incstack = 0, save=0
   883 ;;
   884 ;; *************** function _main *****************
   885 ;; Defined at:
   886 ;;		line 27 in file "main.c"
   887 ;; Parameters:    Size  Location     Type
   888 ;;		None
   889 ;; Auto vars:     Size  Location     Type
   890 ;;		None
   891 ;; Return value:  Size  Location     Type
   892 ;;                  1    wreg      void 
   893 ;; Registers used:
   894 ;;		wreg, fsr0l, fsr0h, status,2, status,0, btemp+1, pclath, cstack
   895 ;; Tracked objects:
   896 ;;		On entry : B00/0
   897 ;;		On exit  : 0/0
   898 ;;		Unchanged: 0/0
   899 ;; Data sizes:     COMMON   BANK0   BANK1   BANK3   BANK2
   900 ;;      Params:         0       0       0       0       0
   901 ;;      Locals:         0       0       0       0       0
   902 ;;      Temps:          0       0       0       0       0
   903 ;;      Totals:         0       0       0       0       0
   904 ;;Total ram usage:        0 bytes
   905 ;; Hardware stack levels required when called:   10
   906 ;; This function calls:
   907 ;;		_EXT_INT_Init
   908 ;;		_OFF_Mode
   909 ;;		_ON_Mode
   910 ;;		_SetCallBacks
   911 ;;		_SetTemp_Mode
   912 ;;		_SystemVars_Init
   913 ;;		_vid_7_Segment_Init
   914 ;; This function is called by:
   915 ;;		Startup code after reset
   916 ;; This function uses a non-reentrant model
   917 ;;
   918                           
   919                           
   920                           ;psect for function _main
   921  0638                     _main:
   922  0638                     l2172:	
   923                           ;incstack = 0
   924 ;; hardware stack exceeded
   925                           ; Regs used in _main: [wreg-fsr0h+status,2+status,0+btemp+1+pclath+cstack]
   926                           
   927                           
   928                           ;main.c: 29:     SystemVars_Init () ;
   929  0638  120A  118A  27F2  120A  118A  	fcall	_SystemVars_Init
   930  063D                     l2174:
   931                           
   932                           ;main.c: 30:     EXT_INT_Init ();
   933  063D  120A  118A  26DD  120A  118A  	fcall	_EXT_INT_Init
   934  0642                     l2176:
   935                           
   936                           ;main.c: 31:     vid_7_Segment_Init() ;
   937  0642  120A  118A  25B4  120A  118A  	fcall	_vid_7_Segment_Init
   938                           
   939                           ;main.c: 32:     SetCallBacks ();
   940  0647  120A  158A  2783  120A  118A  	fcall	_SetCallBacks
   941  064C                     l2178:
   942                           
   943                           ;main.c: 33:     OFF_Mode();
   944  064C  120A  158A  2751  120A  118A  	fcall	_OFF_Mode
   945  0651                     l2180:
   946                           
   947                           ;main.c: 38:     {;main.c: 40:         if (ON_OFF_Status == 1)
   948  0651  1283               	bcf	3,5	;RP0=0, select bank0
   949  0652  1303               	bcf	3,6	;RP1=0, select bank0
   950  0653  033E               	decf	_ON_OFF_Status,w
   951  0654  1D03               	btfss	3,2
   952  0655  2E57               	goto	u1941
   953  0656  2E58               	goto	u1940
   954  0657                     u1941:
   955  0657  2E5E               	goto	l2184
   956  0658                     u1940:
   957  0658                     l2182:
   958                           
   959                           ;main.c: 41:         {;main.c: 42:             ON_Mode() ;
   960  0658  120A  158A  2765  120A  118A  	fcall	_ON_Mode
   961                           
   962                           ;main.c: 43:         }
   963  065D  2E68               	goto	l2188
   964  065E                     l2184:
   965  065E  083E               	movf	_ON_OFF_Status,w
   966  065F  1D03               	btfss	3,2
   967  0660  2E62               	goto	u1951
   968  0661  2E63               	goto	u1950
   969  0662                     u1951:
   970  0662  2E68               	goto	l2188
   971  0663                     u1950:
   972  0663                     l2186:
   973                           
   974                           ;main.c: 45:         {;main.c: 46:             OFF_Mode() ;
   975  0663  120A  158A  2751  120A  118A  	fcall	_OFF_Mode
   976  0668                     l2188:	
   977                           ;main.c: 47:         }
   978                           
   979                           
   980                           ;main.c: 55:         SetTemp_Mode() ;
   981  0668  120A  118A  25FD  120A  118A  	fcall	_SetTemp_Mode
   982  066D  2E51               	goto	l2180
   983  066E  120A  118A  2812   	ljmp	start
   984  0671                     __end_of_main:
   985                           
   986                           	psect	text1
   987  05B4                     __ptext1:	
   988 ;; *************** function _vid_7_Segment_Init *****************
   989 ;; Defined at:
   990 ;;		line 24 in file "7_Segment_prog.c"
   991 ;; Parameters:    Size  Location     Type
   992 ;;		None
   993 ;; Auto vars:     Size  Location     Type
   994 ;;		None
   995 ;; Return value:  Size  Location     Type
   996 ;;                  1    wreg      void 
   997 ;; Registers used:
   998 ;;		wreg, fsr0l, fsr0h, status,2, status,0, btemp+1, pclath, cstack
   999 ;; Tracked objects:
  1000 ;;		On entry : 0/0
  1001 ;;		On exit  : 0/0
  1002 ;;		Unchanged: 0/0
  1003 ;; Data sizes:     COMMON   BANK0   BANK1   BANK3   BANK2
  1004 ;;      Params:         0       0       0       0       0
  1005 ;;      Locals:         0       0       0       0       0
  1006 ;;      Temps:          0       0       0       0       0
  1007 ;;      Totals:         0       0       0       0       0
  1008 ;;Total ram usage:        0 bytes
  1009 ;; Hardware stack levels used:    1
  1010 ;; Hardware stack levels required when called:    7
  1011 ;; This function calls:
  1012 ;;		_DIO_SetPinDirection
  1013 ;;		_DIO_SetPinValue
  1014 ;;		_DIO_SetPortDirection
  1015 ;;		_DIO_SetPortValue
  1016 ;; This function is called by:
  1017 ;;		_main
  1018 ;; This function uses a non-reentrant model
  1019 ;;
  1020                           
  1021                           
  1022                           ;psect for function _vid_7_Segment_Init
  1023  05B4                     _vid_7_Segment_Init:
  1024  05B4                     l2076:	
  1025                           ;incstack = 0
  1026                           ; Regs used in _vid_7_Segment_Init: [wreg-fsr0h+status,2+status,0+btemp+1+pclath+cstack]
  1027                           
  1028  05B4  3002               	movlw	2
  1029  05B5  00FF               	movwf	btemp+1
  1030  05B6  087F               	movf	btemp+1,w
  1031  05B7  1283               	bcf	3,5	;RP0=0, select bank0
  1032  05B8  1303               	bcf	3,6	;RP1=0, select bank0
  1033  05B9  00A5               	movwf	DIO_SetPinDirection@u8PinIdCopy
  1034  05BA  01A6               	clrf	DIO_SetPinDirection@u8PinDirCopy
  1035  05BB  0AA6               	incf	DIO_SetPinDirection@u8PinDirCopy,f
  1036  05BC  3000               	movlw	0
  1037  05BD  120A  118A  2033  120A  118A  	fcall	_DIO_SetPinDirection
  1038  05C2  3003               	movlw	3
  1039  05C3  00FF               	movwf	btemp+1
  1040  05C4  087F               	movf	btemp+1,w
  1041  05C5  1283               	bcf	3,5	;RP0=0, select bank0
  1042  05C6  1303               	bcf	3,6	;RP1=0, select bank0
  1043  05C7  00A5               	movwf	DIO_SetPinDirection@u8PinIdCopy
  1044  05C8  01A6               	clrf	DIO_SetPinDirection@u8PinDirCopy
  1045  05C9  0AA6               	incf	DIO_SetPinDirection@u8PinDirCopy,f
  1046  05CA  3000               	movlw	0
  1047  05CB  120A  118A  2033  120A  118A  	fcall	_DIO_SetPinDirection
  1048  05D0  1283               	bcf	3,5	;RP0=0, select bank0
  1049  05D1  1303               	bcf	3,6	;RP1=0, select bank0
  1050  05D2  01A5               	clrf	DIO_SetPortDirection@u8PortDir
  1051  05D3  3003               	movlw	3
  1052  05D4  120A  118A  2671  120A  118A  	fcall	_DIO_SetPortDirection
  1053  05D9  3002               	movlw	2
  1054  05DA  00FF               	movwf	btemp+1
  1055  05DB  087F               	movf	btemp+1,w
  1056  05DC  1283               	bcf	3,5	;RP0=0, select bank0
  1057  05DD  1303               	bcf	3,6	;RP1=0, select bank0
  1058  05DE  00A5               	movwf	DIO_SetPinValue@u8PinIdCopy
  1059  05DF  01A6               	clrf	DIO_SetPinValue@u8PinValCopy
  1060  05E0  3000               	movlw	0
  1061  05E1  120A  118A  21C9  120A  118A  	fcall	_DIO_SetPinValue
  1062  05E6  3003               	movlw	3
  1063  05E7  00FF               	movwf	btemp+1
  1064  05E8  087F               	movf	btemp+1,w
  1065  05E9  1283               	bcf	3,5	;RP0=0, select bank0
  1066  05EA  1303               	bcf	3,6	;RP1=0, select bank0
  1067  05EB  00A5               	movwf	DIO_SetPinValue@u8PinIdCopy
  1068  05EC  01A6               	clrf	DIO_SetPinValue@u8PinValCopy
  1069  05ED  3000               	movlw	0
  1070  05EE  120A  118A  21C9  120A  118A  	fcall	_DIO_SetPinValue
  1071  05F3  1283               	bcf	3,5	;RP0=0, select bank0
  1072  05F4  1303               	bcf	3,6	;RP1=0, select bank0
  1073  05F5  01A5               	clrf	DIO_SetPortValue@u8PortVal
  1074  05F6  3000               	movlw	0
  1075  05F7  120A  118A  276F  120A  118A  	fcall	_DIO_SetPortValue
  1076  05FC                     l163:
  1077  05FC  0008               	return
  1078  05FD                     __end_of_vid_7_Segment_Init:
  1079                           
  1080                           	psect	text2
  1081  0671                     __ptext2:	
  1082 ;; *************** function _DIO_SetPortDirection *****************
  1083 ;; Defined at:
  1084 ;;		line 133 in file "DIO_Prog.c"
  1085 ;; Parameters:    Size  Location     Type
  1086 ;;  u8PortId        1    wreg     unsigned char 
  1087 ;;  u8PortDir       1    5[BANK0 ] unsigned char 
  1088 ;; Auto vars:     Size  Location     Type
  1089 ;;  u8PortId        1    8[BANK0 ] unsigned char 
  1090 ;; Return value:  Size  Location     Type
  1091 ;;                  1    wreg      void 
  1092 ;; Registers used:
  1093 ;;		wreg, fsr0l, fsr0h, status,2, status,0, btemp+1
  1094 ;; Tracked objects:
  1095 ;;		On entry : 0/0
  1096 ;;		On exit  : 0/0
  1097 ;;		Unchanged: 0/0
  1098 ;; Data sizes:     COMMON   BANK0   BANK1   BANK3   BANK2
  1099 ;;      Params:         0       1       0       0       0
  1100 ;;      Locals:         0       1       0       0       0
  1101 ;;      Temps:          0       2       0       0       0
  1102 ;;      Totals:         0       4       0       0       0
  1103 ;;Total ram usage:        4 bytes
  1104 ;; Hardware stack levels used:    1
  1105 ;; Hardware stack levels required when called:    6
  1106 ;; This function calls:
  1107 ;;		Nothing
  1108 ;; This function is called by:
  1109 ;;		_vid_7_Segment_Init
  1110 ;; This function uses a non-reentrant model
  1111 ;;
  1112                           
  1113                           
  1114                           ;psect for function _DIO_SetPortDirection
  1115  0671                     _DIO_SetPortDirection:
  1116                           
  1117                           ;incstack = 0
  1118                           ; Regs used in _DIO_SetPortDirection: [wreg-fsr0h+status,2+status,0+btemp+1]
  1119                           ;DIO_SetPortDirection@u8PortId stored from wreg
  1120  0671  1283               	bcf	3,5	;RP0=0, select bank0
  1121  0672  1303               	bcf	3,6	;RP1=0, select bank0
  1122  0673  00A8               	movwf	DIO_SetPortDirection@u8PortId
  1123  0674                     l1998:
  1124                           
  1125                           ;DIO_Prog.c: 133: void DIO_SetPortDirection (u8 u8PortId, u8 u8PortDir);DIO_Prog.c: 134:
      +                           {;DIO_Prog.c: 136:  switch (u8PortId)
  1126  0674  2E91               	goto	l2010
  1127  0675                     l2000:
  1128  0675  0825               	movf	DIO_SetPortDirection@u8PortDir,w
  1129  0676  00FF               	movwf	btemp+1
  1130  0677  087F               	movf	btemp+1,w
  1131  0678  1683               	bsf	3,5	;RP0=1, select bank1
  1132  0679  1303               	bcf	3,6	;RP1=0, select bank1
  1133  067A  0085               	movwf	5	;volatile
  1134  067B  2EA7               	goto	l101
  1135  067C                     l2002:
  1136  067C  0825               	movf	DIO_SetPortDirection@u8PortDir,w
  1137  067D  00FF               	movwf	btemp+1
  1138  067E  087F               	movf	btemp+1,w
  1139  067F  1683               	bsf	3,5	;RP0=1, select bank1
  1140  0680  1303               	bcf	3,6	;RP1=0, select bank1
  1141  0681  0086               	movwf	6	;volatile
  1142  0682  2EA7               	goto	l101
  1143  0683                     l2004:
  1144  0683  0825               	movf	DIO_SetPortDirection@u8PortDir,w
  1145  0684  00FF               	movwf	btemp+1
  1146  0685  087F               	movf	btemp+1,w
  1147  0686  1683               	bsf	3,5	;RP0=1, select bank1
  1148  0687  1303               	bcf	3,6	;RP1=0, select bank1
  1149  0688  0087               	movwf	7	;volatile
  1150  0689  2EA7               	goto	l101
  1151  068A                     l2006:
  1152  068A  0825               	movf	DIO_SetPortDirection@u8PortDir,w
  1153  068B  00FF               	movwf	btemp+1
  1154  068C  087F               	movf	btemp+1,w
  1155  068D  1683               	bsf	3,5	;RP0=1, select bank1
  1156  068E  1303               	bcf	3,6	;RP1=0, select bank1
  1157  068F  0088               	movwf	8	;volatile
  1158  0690  2EA7               	goto	l101
  1159  0691                     l2010:
  1160  0691  0828               	movf	DIO_SetPortDirection@u8PortId,w
  1161  0692  00A6               	movwf	??_DIO_SetPortDirection
  1162  0693  01A7               	clrf	??_DIO_SetPortDirection+1
  1163                           
  1164                           ; Switch on 2 bytes has been partitioned into a top level switch of size 1, and 1 sub-sw
      +                          itches
  1165                           ; Switch size 1, requested type "simple"
  1166                           ; Number of cases is 1, Range of values is 0 to 0
  1167                           ; switch strategies available:
  1168                           ; Name         Instructions Cycles
  1169                           ; simple_byte            4     3 (average)
  1170                           ; direct_byte           11     8 (fixed)
  1171                           ; jumptable            260     6 (fixed)
  1172                           ;	Chosen strategy is simple_byte
  1173  0694  0827               	movf	??_DIO_SetPortDirection+1,w
  1174  0695  3A00               	xorlw	0	; case 0
  1175  0696  1903               	skipnz
  1176  0697  2E99               	goto	l2426
  1177  0698  2EA7               	goto	l101
  1178  0699                     l2426:
  1179                           
  1180                           ; Switch size 1, requested type "simple"
  1181                           ; Number of cases is 4, Range of values is 0 to 3
  1182                           ; switch strategies available:
  1183                           ; Name         Instructions Cycles
  1184                           ; simple_byte           13     7 (average)
  1185                           ; direct_byte           20     8 (fixed)
  1186                           ; jumptable            260     6 (fixed)
  1187                           ;	Chosen strategy is simple_byte
  1188  0699  0826               	movf	??_DIO_SetPortDirection,w
  1189  069A  3A00               	xorlw	0	; case 0
  1190  069B  1903               	skipnz
  1191  069C  2E75               	goto	l2000
  1192  069D  3A01               	xorlw	1	; case 1
  1193  069E  1903               	skipnz
  1194  069F  2E7C               	goto	l2002
  1195  06A0  3A03               	xorlw	3	; case 2
  1196  06A1  1903               	skipnz
  1197  06A2  2E83               	goto	l2004
  1198  06A3  3A01               	xorlw	1	; case 3
  1199  06A4  1903               	skipnz
  1200  06A5  2E8A               	goto	l2006
  1201  06A6  2EA7               	goto	l101
  1202  06A7                     l101:
  1203  06A7  0008               	return
  1204  06A8                     __end_of_DIO_SetPortDirection:
  1205                           
  1206                           	psect	text3
  1207  07F2                     __ptext3:	
  1208 ;; *************** function _SystemVars_Init *****************
  1209 ;; Defined at:
  1210 ;;		line 45 in file "APP_Program.c"
  1211 ;; Parameters:    Size  Location     Type
  1212 ;;		None
  1213 ;; Auto vars:     Size  Location     Type
  1214 ;;		None
  1215 ;; Return value:  Size  Location     Type
  1216 ;;                  1    wreg      void 
  1217 ;; Registers used:
  1218 ;;		wreg, status,2, btemp+1
  1219 ;; Tracked objects:
  1220 ;;		On entry : 0/0
  1221 ;;		On exit  : 0/0
  1222 ;;		Unchanged: 0/0
  1223 ;; Data sizes:     COMMON   BANK0   BANK1   BANK3   BANK2
  1224 ;;      Params:         0       0       0       0       0
  1225 ;;      Locals:         0       0       0       0       0
  1226 ;;      Temps:          0       0       0       0       0
  1227 ;;      Totals:         0       0       0       0       0
  1228 ;;Total ram usage:        0 bytes
  1229 ;; Hardware stack levels used:    1
  1230 ;; Hardware stack levels required when called:    6
  1231 ;; This function calls:
  1232 ;;		Nothing
  1233 ;; This function is called by:
  1234 ;;		_main
  1235 ;; This function uses a non-reentrant model
  1236 ;;
  1237                           
  1238                           
  1239                           ;psect for function _SystemVars_Init
  1240  07F2                     _SystemVars_Init:
  1241  07F2                     l2054:	
  1242                           ;incstack = 0
  1243                           ; Regs used in _SystemVars_Init: [wreg+status,2+btemp+1]
  1244                           
  1245                           
  1246                           ;APP_Program.c: 47:      ON_OFF_Status = 0 ;
  1247  07F2  1283               	bcf	3,5	;RP0=0, select bank0
  1248  07F3  1303               	bcf	3,6	;RP1=0, select bank0
  1249  07F4  01BE               	clrf	_ON_OFF_Status
  1250  07F5                     l2056:
  1251                           
  1252                           ;APP_Program.c: 48:      u8_Temp = 60 ;
  1253  07F5  303C               	movlw	60
  1254  07F6  00FF               	movwf	btemp+1
  1255  07F7  087F               	movf	btemp+1,w
  1256  07F8  00BF               	movwf	_u8_Temp
  1257  07F9                     l2058:
  1258                           
  1259                           ;APP_Program.c: 49:      ON_OFF_Flag = 0 ;
  1260  07F9  01BC               	clrf	_ON_OFF_Flag
  1261  07FA                     l2060:
  1262                           
  1263                           ;APP_Program.c: 50:      Set_Temp_Flag = 0 ;
  1264  07FA  01BB               	clrf	_Set_Temp_Flag
  1265  07FB                     l2062:
  1266                           
  1267                           ;APP_Program.c: 51:      TempChange_Status = 0 ;
  1268  07FB  01BA               	clrf	_TempChange_Status
  1269  07FC                     l211:
  1270  07FC  0008               	return
  1271  07FD                     __end_of_SystemVars_Init:
  1272                           
  1273                           	psect	text4
  1274  05FD                     __ptext4:	
  1275 ;; *************** function _SetTemp_Mode *****************
  1276 ;; Defined at:
  1277 ;;		line 76 in file "APP_Program.c"
  1278 ;; Parameters:    Size  Location     Type
  1279 ;;		None
  1280 ;; Auto vars:     Size  Location     Type
  1281 ;;  count           1   22[BANK0 ] unsigned char 
  1282 ;; Return value:  Size  Location     Type
  1283 ;;                  1    wreg      void 
  1284 ;; Registers used:
  1285 ;;		wreg, fsr0l, fsr0h, status,2, status,0, btemp+1, pclath, cstack
  1286 ;; Tracked objects:
  1287 ;;		On entry : 0/0
  1288 ;;		On exit  : 0/0
  1289 ;;		Unchanged: 0/0
  1290 ;; Data sizes:     COMMON   BANK0   BANK1   BANK3   BANK2
  1291 ;;      Params:         0       0       0       0       0
  1292 ;;      Locals:         0       1       0       0       0
  1293 ;;      Temps:          0       3       0       0       0
  1294 ;;      Totals:         0       4       0       0       0
  1295 ;;Total ram usage:        4 bytes
  1296 ;; Hardware stack levels used:    1
  1297 ;; Hardware stack levels required when called:    9
  1298 ;; This function calls:
  1299 ;;		_vid_7_Segment_DeInit
  1300 ;;		_vid_7_Segment_Display_2Digits
  1301 ;; This function is called by:
  1302 ;;		_main
  1303 ;; This function uses a non-reentrant model
  1304 ;;
  1305                           
  1306                           
  1307                           ;psect for function _SetTemp_Mode
  1308  05FD                     _SetTemp_Mode:
  1309  05FD                     l2088:	
  1310                           ;incstack = 0
  1311 ;; hardware stack exceeded
  1312                           ; Regs used in _SetTemp_Mode: [wreg-fsr0h+status,2+status,0+btemp+1+pclath+cstack]
  1313                           
  1314  05FD                     l2090:
  1315                           
  1316                           ;APP_Program.c: 80:  if (ON_OFF_Status == 1)
  1317  05FD  1283               	bcf	3,5	;RP0=0, select bank0
  1318  05FE  1303               	bcf	3,6	;RP1=0, select bank0
  1319  05FF  033E               	decf	_ON_OFF_Status,w
  1320  0600  1D03               	btfss	3,2
  1321  0601  2E03               	goto	u1771
  1322  0602  2E04               	goto	u1770
  1323  0603                     u1771:
  1324  0603  2E37               	goto	l227
  1325  0604                     u1770:
  1326  0604                     l2092:
  1327                           
  1328                           ;APP_Program.c: 81:  {;APP_Program.c: 82:      if (Set_Temp_Flag == 1)
  1329  0604  033B               	decf	_Set_Temp_Flag,w
  1330  0605  1D03               	btfss	3,2
  1331  0606  2E08               	goto	u1781
  1332  0607  2E09               	goto	u1780
  1333  0608                     u1781:
  1334  0608  2E37               	goto	l227
  1335  0609                     u1780:
  1336  0609                     l2094:
  1337                           
  1338                           ;APP_Program.c: 83:      {;APP_Program.c: 85:         for (count=0;count<5;count++)
  1339  0609  01B6               	clrf	SetTemp_Mode@count
  1340  060A                     l2100:
  1341                           
  1342                           ;APP_Program.c: 86:         {;APP_Program.c: 87:             vid_7_Segment_Display_2Digi
      +                          ts(u8_Temp) ;
  1343  060A  083F               	movf	_u8_Temp,w
  1344  060B  120A  118A  2285  120A  118A  	fcall	_vid_7_Segment_Display_2Digits
  1345                           
  1346                           ;APP_Program.c: 88:             vid_7_Segment_DeInit() ;
  1347  0610  120A  158A  27C8  120A  118A  	fcall	_vid_7_Segment_DeInit
  1348  0615                     l2102:
  1349                           
  1350                           ;APP_Program.c: 89:             _delay((unsigned long)((1000)*(8000000/4000.0))) ;
  1351  0615  300B               	movlw	11
  1352  0616  1283               	bcf	3,5	;RP0=0, select bank0
  1353  0617  1303               	bcf	3,6	;RP1=0, select bank0
  1354  0618  00B5               	movwf	??_SetTemp_Mode+2
  1355  0619  3026               	movlw	38
  1356  061A  00B4               	movwf	??_SetTemp_Mode+1
  1357  061B  305D               	movlw	93
  1358  061C  00B3               	movwf	??_SetTemp_Mode
  1359  061D                     u2017:
  1360  061D  0BB3               	decfsz	??_SetTemp_Mode,f
  1361  061E  2E1D               	goto	u2017
  1362  061F  0BB4               	decfsz	??_SetTemp_Mode+1,f
  1363  0620  2E1D               	goto	u2017
  1364  0621  0BB5               	decfsz	??_SetTemp_Mode+2,f
  1365  0622  2E1D               	goto	u2017
  1366  0623                     l2104:
  1367                           
  1368                           ;APP_Program.c: 91:             if (TempChange_Status == 1)
  1369  0623  1283               	bcf	3,5	;RP0=0, select bank0
  1370  0624  1303               	bcf	3,6	;RP1=0, select bank0
  1371  0625  033A               	decf	_TempChange_Status,w
  1372  0626  1D03               	btfss	3,2
  1373  0627  2E29               	goto	u1791
  1374  0628  2E2A               	goto	u1790
  1375  0629                     u1791:
  1376  0629  2E2C               	goto	l2108
  1377  062A                     u1790:
  1378  062A                     l2106:
  1379                           
  1380                           ;APP_Program.c: 92:             {;APP_Program.c: 93:                 count = 0 ;
  1381  062A  01B6               	clrf	SetTemp_Mode@count
  1382                           
  1383                           ;APP_Program.c: 94:                 TempChange_Status = 0 ;
  1384  062B  01BA               	clrf	_TempChange_Status
  1385  062C                     l2108:
  1386                           
  1387                           ;APP_Program.c: 96:         }
  1388  062C  3001               	movlw	1
  1389  062D  00FF               	movwf	btemp+1
  1390  062E  087F               	movf	btemp+1,w
  1391  062F  07B6               	addwf	SetTemp_Mode@count,f
  1392  0630                     l2110:
  1393  0630  3005               	movlw	5
  1394  0631  0236               	subwf	SetTemp_Mode@count,w
  1395  0632  1C03               	skipc
  1396  0633  2E35               	goto	u1801
  1397  0634  2E36               	goto	u1800
  1398  0635                     u1801:
  1399  0635  2E0A               	goto	l2100
  1400  0636                     u1800:
  1401  0636                     l2112:
  1402                           
  1403                           ;APP_Program.c: 97:         Set_Temp_Flag = 0 ;
  1404  0636  01BB               	clrf	_Set_Temp_Flag
  1405  0637                     l227:	
  1406                           ;APP_Program.c: 98:     }
  1407                           
  1408  0637  0008               	return
  1409  0638                     __end_of_SetTemp_Mode:
  1410                           
  1411                           	psect	text5
  1412  0F83                     __ptext5:	
  1413 ;; *************** function _SetCallBacks *****************
  1414 ;; Defined at:
  1415 ;;		line 36 in file "APP_Program.c"
  1416 ;; Parameters:    Size  Location     Type
  1417 ;;		None
  1418 ;; Auto vars:     Size  Location     Type
  1419 ;;		None
  1420 ;; Return value:  Size  Location     Type
  1421 ;;                  1    wreg      void 
  1422 ;; Registers used:
  1423 ;;		wreg, status,2, status,0, btemp+1, pclath, cstack
  1424 ;; Tracked objects:
  1425 ;;		On entry : 0/0
  1426 ;;		On exit  : 0/0
  1427 ;;		Unchanged: 0/0
  1428 ;; Data sizes:     COMMON   BANK0   BANK1   BANK3   BANK2
  1429 ;;      Params:         0       0       0       0       0
  1430 ;;      Locals:         0       0       0       0       0
  1431 ;;      Temps:          0       0       0       0       0
  1432 ;;      Totals:         0       0       0       0       0
  1433 ;;Total ram usage:        0 bytes
  1434 ;; Hardware stack levels used:    1
  1435 ;; Hardware stack levels required when called:    7
  1436 ;; This function calls:
  1437 ;;		_RB0_SetCallBack
  1438 ;;		_RB4_SetCallBack
  1439 ;;		_RB5_SetCallBack
  1440 ;; This function is called by:
  1441 ;;		_main
  1442 ;; This function uses a non-reentrant model
  1443 ;;
  1444                           
  1445                           
  1446                           ;psect for function _SetCallBacks
  1447  0F83                     _SetCallBacks:
  1448  0F83                     l2078:	
  1449                           ;incstack = 0
  1450                           ; Regs used in _SetCallBacks: [wreg+status,2+status,0+btemp+1+pclath+cstack]
  1451                           
  1452                           
  1453                           ;APP_Program.c: 38:     RB0_SetCallBack (&RB0_Handler) ;
  1454  0F83  3001               	movlw	(low (fp__RB0_Handler-i1fpbase))& (0+255)
  1455  0F84  120A  158A  2730  120A  158A  	fcall	_RB0_SetCallBack
  1456                           
  1457                           ;APP_Program.c: 39:     RB4_SetCallBack (&RB4_Handler) ;
  1458  0F89  3004               	movlw	(low (fp__RB4_Handler-i1fpbase))& (0+255)
  1459  0F8A  120A  158A  2738  120A  158A  	fcall	_RB4_SetCallBack
  1460                           
  1461                           ;APP_Program.c: 40:     RB5_SetCallBack (&RB5_Handler) ;
  1462  0F8F  3007               	movlw	(low (fp__RB5_Handler-i1fpbase))& (0+255)
  1463  0F90  120A  158A  2740  120A  158A  	fcall	_RB5_SetCallBack
  1464  0F95                     l208:
  1465  0F95  0008               	return
  1466  0F96                     __end_of_SetCallBacks:
  1467                           
  1468                           	psect	text6
  1469  0F40                     __ptext6:	
  1470 ;; *************** function _RB5_SetCallBack *****************
  1471 ;; Defined at:
  1472 ;;		line 49 in file "EXT_INT_Prog.c"
  1473 ;; Parameters:    Size  Location     Type
  1474 ;;  pFun            1    wreg     PTR FTN()void 
  1475 ;;		 -> RB5_Handler(1), 
  1476 ;; Auto vars:     Size  Location     Type
  1477 ;;  pFun            1    5[BANK0 ] PTR FTN()void 
  1478 ;;		 -> RB5_Handler(1), 
  1479 ;; Return value:  Size  Location     Type
  1480 ;;                  1    wreg      void 
  1481 ;; Registers used:
  1482 ;;		wreg, btemp+1
  1483 ;; Tracked objects:
  1484 ;;		On entry : 0/0
  1485 ;;		On exit  : 0/0
  1486 ;;		Unchanged: 0/0
  1487 ;; Data sizes:     COMMON   BANK0   BANK1   BANK3   BANK2
  1488 ;;      Params:         0       0       0       0       0
  1489 ;;      Locals:         0       1       0       0       0
  1490 ;;      Temps:          0       0       0       0       0
  1491 ;;      Totals:         0       1       0       0       0
  1492 ;;Total ram usage:        1 bytes
  1493 ;; Hardware stack levels used:    1
  1494 ;; Hardware stack levels required when called:    6
  1495 ;; This function calls:
  1496 ;;		Nothing
  1497 ;; This function is called by:
  1498 ;;		_SetCallBacks
  1499 ;; This function uses a non-reentrant model
  1500 ;;
  1501                           
  1502                           
  1503                           ;psect for function _RB5_SetCallBack
  1504  0F40                     _RB5_SetCallBack:
  1505                           
  1506                           ;incstack = 0
  1507                           ; Regs used in _RB5_SetCallBack: [wreg+btemp+1]
  1508                           ;RB5_SetCallBack@pFun stored from wreg
  1509  0F40  1283               	bcf	3,5	;RP0=0, select bank0
  1510  0F41  1303               	bcf	3,6	;RP1=0, select bank0
  1511  0F42  00A5               	movwf	RB5_SetCallBack@pFun
  1512  0F43                     l2022:
  1513                           
  1514                           ;EXT_INT_Prog.c: 49: void RB5_SetCallBack (void (*pFun) (void));EXT_INT_Prog.c: 50: {;EX
      +                          T_INT_Prog.c: 51:     GptrToFun_RB5 = pFun ;
  1515  0F43  0825               	movf	RB5_SetCallBack@pFun,w
  1516  0F44  00FF               	movwf	btemp+1
  1517  0F45  087F               	movf	btemp+1,w
  1518  0F46  00B7               	movwf	_GptrToFun_RB5
  1519  0F47                     l130:
  1520  0F47  0008               	return
  1521  0F48                     __end_of_RB5_SetCallBack:
  1522                           
  1523                           	psect	text7
  1524  0F38                     __ptext7:	
  1525 ;; *************** function _RB4_SetCallBack *****************
  1526 ;; Defined at:
  1527 ;;		line 43 in file "EXT_INT_Prog.c"
  1528 ;; Parameters:    Size  Location     Type
  1529 ;;  pFun            1    wreg     PTR FTN()void 
  1530 ;;		 -> RB4_Handler(1), 
  1531 ;; Auto vars:     Size  Location     Type
  1532 ;;  pFun            1    5[BANK0 ] PTR FTN()void 
  1533 ;;		 -> RB4_Handler(1), 
  1534 ;; Return value:  Size  Location     Type
  1535 ;;                  1    wreg      void 
  1536 ;; Registers used:
  1537 ;;		wreg, btemp+1
  1538 ;; Tracked objects:
  1539 ;;		On entry : 0/0
  1540 ;;		On exit  : 0/0
  1541 ;;		Unchanged: 0/0
  1542 ;; Data sizes:     COMMON   BANK0   BANK1   BANK3   BANK2
  1543 ;;      Params:         0       0       0       0       0
  1544 ;;      Locals:         0       1       0       0       0
  1545 ;;      Temps:          0       0       0       0       0
  1546 ;;      Totals:         0       1       0       0       0
  1547 ;;Total ram usage:        1 bytes
  1548 ;; Hardware stack levels used:    1
  1549 ;; Hardware stack levels required when called:    6
  1550 ;; This function calls:
  1551 ;;		Nothing
  1552 ;; This function is called by:
  1553 ;;		_SetCallBacks
  1554 ;; This function uses a non-reentrant model
  1555 ;;
  1556                           
  1557                           
  1558                           ;psect for function _RB4_SetCallBack
  1559  0F38                     _RB4_SetCallBack:
  1560                           
  1561                           ;incstack = 0
  1562                           ; Regs used in _RB4_SetCallBack: [wreg+btemp+1]
  1563                           ;RB4_SetCallBack@pFun stored from wreg
  1564  0F38  1283               	bcf	3,5	;RP0=0, select bank0
  1565  0F39  1303               	bcf	3,6	;RP1=0, select bank0
  1566  0F3A  00A5               	movwf	RB4_SetCallBack@pFun
  1567  0F3B                     l2020:
  1568                           
  1569                           ;EXT_INT_Prog.c: 43: void RB4_SetCallBack (void (*pFun) (void));EXT_INT_Prog.c: 44: {;EX
      +                          T_INT_Prog.c: 45:     GptrToFun_RB4 = pFun ;
  1570  0F3B  0825               	movf	RB4_SetCallBack@pFun,w
  1571  0F3C  00FF               	movwf	btemp+1
  1572  0F3D  087F               	movf	btemp+1,w
  1573  0F3E  00B8               	movwf	_GptrToFun_RB4
  1574  0F3F                     l127:
  1575  0F3F  0008               	return
  1576  0F40                     __end_of_RB4_SetCallBack:
  1577                           
  1578                           	psect	text8
  1579  0F30                     __ptext8:	
  1580 ;; *************** function _RB0_SetCallBack *****************
  1581 ;; Defined at:
  1582 ;;		line 37 in file "EXT_INT_Prog.c"
  1583 ;; Parameters:    Size  Location     Type
  1584 ;;  pFun            1    wreg     PTR FTN()void 
  1585 ;;		 -> RB0_Handler(1), 
  1586 ;; Auto vars:     Size  Location     Type
  1587 ;;  pFun            1    5[BANK0 ] PTR FTN()void 
  1588 ;;		 -> RB0_Handler(1), 
  1589 ;; Return value:  Size  Location     Type
  1590 ;;                  1    wreg      void 
  1591 ;; Registers used:
  1592 ;;		wreg, btemp+1
  1593 ;; Tracked objects:
  1594 ;;		On entry : 0/0
  1595 ;;		On exit  : 0/0
  1596 ;;		Unchanged: 0/0
  1597 ;; Data sizes:     COMMON   BANK0   BANK1   BANK3   BANK2
  1598 ;;      Params:         0       0       0       0       0
  1599 ;;      Locals:         0       1       0       0       0
  1600 ;;      Temps:          0       0       0       0       0
  1601 ;;      Totals:         0       1       0       0       0
  1602 ;;Total ram usage:        1 bytes
  1603 ;; Hardware stack levels used:    1
  1604 ;; Hardware stack levels required when called:    6
  1605 ;; This function calls:
  1606 ;;		Nothing
  1607 ;; This function is called by:
  1608 ;;		_SetCallBacks
  1609 ;; This function uses a non-reentrant model
  1610 ;;
  1611                           
  1612                           
  1613                           ;psect for function _RB0_SetCallBack
  1614  0F30                     _RB0_SetCallBack:
  1615                           
  1616                           ;incstack = 0
  1617                           ; Regs used in _RB0_SetCallBack: [wreg+btemp+1]
  1618                           ;RB0_SetCallBack@pFun stored from wreg
  1619  0F30  1283               	bcf	3,5	;RP0=0, select bank0
  1620  0F31  1303               	bcf	3,6	;RP1=0, select bank0
  1621  0F32  00A5               	movwf	RB0_SetCallBack@pFun
  1622  0F33                     l2018:
  1623                           
  1624                           ;EXT_INT_Prog.c: 37: void RB0_SetCallBack (void (*pFun) (void));EXT_INT_Prog.c: 38: {;EX
      +                          T_INT_Prog.c: 39:     GptrToFun_RB0 = pFun ;
  1625  0F33  0825               	movf	RB0_SetCallBack@pFun,w
  1626  0F34  00FF               	movwf	btemp+1
  1627  0F35  087F               	movf	btemp+1,w
  1628  0F36  00B9               	movwf	_GptrToFun_RB0
  1629  0F37                     l124:
  1630  0F37  0008               	return
  1631  0F38                     __end_of_RB0_SetCallBack:
  1632                           
  1633                           	psect	text9
  1634  0F65                     __ptext9:	
  1635 ;; *************** function _ON_Mode *****************
  1636 ;; Defined at:
  1637 ;;		line 56 in file "APP_Program.c"
  1638 ;; Parameters:    Size  Location     Type
  1639 ;;		None
  1640 ;; Auto vars:     Size  Location     Type
  1641 ;;		None
  1642 ;; Return value:  Size  Location     Type
  1643 ;;                  1    wreg      void 
  1644 ;; Registers used:
  1645 ;;		wreg, fsr0l, fsr0h, status,2, status,0, btemp+1, pclath, cstack
  1646 ;; Tracked objects:
  1647 ;;		On entry : 0/0
  1648 ;;		On exit  : 0/0
  1649 ;;		Unchanged: 0/0
  1650 ;; Data sizes:     COMMON   BANK0   BANK1   BANK3   BANK2
  1651 ;;      Params:         0       0       0       0       0
  1652 ;;      Locals:         0       0       0       0       0
  1653 ;;      Temps:          0       0       0       0       0
  1654 ;;      Totals:         0       0       0       0       0
  1655 ;;Total ram usage:        0 bytes
  1656 ;; Hardware stack levels used:    1
  1657 ;; Hardware stack levels required when called:    9
  1658 ;; This function calls:
  1659 ;;		_vid_7_Segment_Display_2Digits
  1660 ;; This function is called by:
  1661 ;;		_main
  1662 ;; This function uses a non-reentrant model
  1663 ;;
  1664                           
  1665                           
  1666                           ;psect for function _ON_Mode
  1667  0F65                     _ON_Mode:
  1668  0F65                     l2084:	
  1669                           ;incstack = 0
  1670 ;; hardware stack exceeded
  1671                           ; Regs used in _ON_Mode: [wreg-fsr0h+status,2+status,0+btemp+1+pclath+cstack]
  1672                           
  1673                           
  1674                           ;APP_Program.c: 58:     ON_OFF_Status = 1 ;
  1675  0F65  1283               	bcf	3,5	;RP0=0, select bank0
  1676  0F66  1303               	bcf	3,6	;RP1=0, select bank0
  1677  0F67  01BE               	clrf	_ON_OFF_Status
  1678  0F68  0ABE               	incf	_ON_OFF_Status,f
  1679  0F69                     l2086:
  1680                           
  1681                           ;APP_Program.c: 60:     vid_7_Segment_Display_2Digits(u8_Temp) ;
  1682  0F69  083F               	movf	_u8_Temp,w
  1683  0F6A  120A  118A  2285  120A  158A  	fcall	_vid_7_Segment_Display_2Digits
  1684  0F6F                     l214:
  1685  0F6F  0008               	return
  1686  0F70                     __end_of_ON_Mode:
  1687                           
  1688                           	psect	text10
  1689  0285                     __ptext10:	
  1690 ;; *************** function _vid_7_Segment_Display_2Digits *****************
  1691 ;; Defined at:
  1692 ;;		line 71 in file "7_Segment_prog.c"
  1693 ;; Parameters:    Size  Location     Type
  1694 ;;  u8_Num          1    wreg     unsigned char 
  1695 ;; Auto vars:     Size  Location     Type
  1696 ;;  u8_Num          1   17[BANK0 ] unsigned char 
  1697 ;;  Stability       1   18[BANK0 ] unsigned char 
  1698 ;;  Tens            1   16[BANK0 ] unsigned char 
  1699 ;;  Ones            1   15[BANK0 ] unsigned char 
  1700 ;; Return value:  Size  Location     Type
  1701 ;;                  1    wreg      void 
  1702 ;; Registers used:
  1703 ;;		wreg, fsr0l, fsr0h, status,2, status,0, btemp+1, pclath, cstack
  1704 ;; Tracked objects:
  1705 ;;		On entry : 0/0
  1706 ;;		On exit  : 0/0
  1707 ;;		Unchanged: 0/0
  1708 ;; Data sizes:     COMMON   BANK0   BANK1   BANK3   BANK2
  1709 ;;      Params:         0       0       0       0       0
  1710 ;;      Locals:         0       4       0       0       0
  1711 ;;      Temps:          0       2       0       0       0
  1712 ;;      Totals:         0       6       0       0       0
  1713 ;;Total ram usage:        6 bytes
  1714 ;; Hardware stack levels used:    1
  1715 ;; Hardware stack levels required when called:    8
  1716 ;; This function calls:
  1717 ;;		_DIO_SetPinValue
  1718 ;;		___awdiv
  1719 ;;		___awmod
  1720 ;;		_vid_Left_7_Segment_DisplayNumber
  1721 ;;		_vid_Right_7_Segment_DisplayNumber
  1722 ;; This function is called by:
  1723 ;;		_ON_Mode
  1724 ;;		_SetTemp_Mode
  1725 ;; This function uses a non-reentrant model
  1726 ;;
  1727                           
  1728                           
  1729                           ;psect for function _vid_7_Segment_Display_2Digits
  1730  0285                     _vid_7_Segment_Display_2Digits:
  1731                           
  1732                           ;incstack = 0
  1733 ;; hardware stack exceeded
  1734                           ; Regs used in _vid_7_Segment_Display_2Digits: [wreg-fsr0h+status,2+status,0+btemp+1+pcl
      +                          ath+cstack]
  1735                           ;vid_7_Segment_Display_2Digits@u8_Num stored from wreg
  1736  0285  1283               	bcf	3,5	;RP0=0, select bank0
  1737  0286  1303               	bcf	3,6	;RP1=0, select bank0
  1738  0287  00B1               	movwf	vid_7_Segment_Display_2Digits@u8_Num
  1739  0288                     l2026:
  1740  0288  300A               	movlw	10
  1741  0289  00A5               	movwf	___awmod@divisor
  1742  028A  3000               	movlw	0
  1743  028B  00A6               	movwf	___awmod@divisor+1
  1744  028C  0831               	movf	vid_7_Segment_Display_2Digits@u8_Num,w
  1745  028D  00AD               	movwf	??_vid_7_Segment_Display_2Digits
  1746  028E  01AE               	clrf	??_vid_7_Segment_Display_2Digits+1
  1747  028F  082D               	movf	??_vid_7_Segment_Display_2Digits,w
  1748  0290  00A7               	movwf	___awmod@dividend
  1749  0291  082E               	movf	??_vid_7_Segment_Display_2Digits+1,w
  1750  0292  00A8               	movwf	___awmod@dividend+1
  1751  0293  120A  118A  24A5  120A  118A  	fcall	___awmod
  1752  0298  1283               	bcf	3,5	;RP0=0, select bank0
  1753  0299  1303               	bcf	3,6	;RP1=0, select bank0
  1754  029A  0825               	movf	?___awmod,w
  1755  029B  00FF               	movwf	btemp+1
  1756  029C  087F               	movf	btemp+1,w
  1757  029D  00AF               	movwf	vid_7_Segment_Display_2Digits@Ones
  1758  029E  300A               	movlw	10
  1759  029F  00A5               	movwf	___awdiv@divisor
  1760  02A0  3000               	movlw	0
  1761  02A1  00A6               	movwf	___awdiv@divisor+1
  1762  02A2  0831               	movf	vid_7_Segment_Display_2Digits@u8_Num,w
  1763  02A3  00AD               	movwf	??_vid_7_Segment_Display_2Digits
  1764  02A4  01AE               	clrf	??_vid_7_Segment_Display_2Digits+1
  1765  02A5  082D               	movf	??_vid_7_Segment_Display_2Digits,w
  1766  02A6  00A7               	movwf	___awdiv@dividend
  1767  02A7  082E               	movf	??_vid_7_Segment_Display_2Digits+1,w
  1768  02A8  00A8               	movwf	___awdiv@dividend+1
  1769  02A9  120A  118A  236C  120A  118A  	fcall	___awdiv
  1770  02AE  1283               	bcf	3,5	;RP0=0, select bank0
  1771  02AF  1303               	bcf	3,6	;RP1=0, select bank0
  1772  02B0  0825               	movf	?___awdiv,w
  1773  02B1  00FF               	movwf	btemp+1
  1774  02B2  087F               	movf	btemp+1,w
  1775  02B3  00B0               	movwf	vid_7_Segment_Display_2Digits@Tens
  1776  02B4                     l2028:
  1777  02B4  01B2               	clrf	vid_7_Segment_Display_2Digits@Stability
  1778  02B5                     l2034:
  1779  02B5  082F               	movf	vid_7_Segment_Display_2Digits@Ones,w
  1780  02B6  120A  118A  270F  120A  118A  	fcall	_vid_Right_7_Segment_DisplayNumber
  1781  02BB                     l2036:
  1782  02BB  301A               	movlw	26
  1783  02BC  1283               	bcf	3,5	;RP0=0, select bank0
  1784  02BD  1303               	bcf	3,6	;RP1=0, select bank0
  1785  02BE  00AE               	movwf	??_vid_7_Segment_Display_2Digits+1
  1786  02BF  30F7               	movlw	247
  1787  02C0  00AD               	movwf	??_vid_7_Segment_Display_2Digits
  1788  02C1                     u2027:
  1789  02C1  0BAD               	decfsz	??_vid_7_Segment_Display_2Digits,f
  1790  02C2  2AC1               	goto	u2027
  1791  02C3  0BAE               	decfsz	??_vid_7_Segment_Display_2Digits+1,f
  1792  02C4  2AC1               	goto	u2027
  1793  02C5  2AC6               	nop2
  1794  02C6                     l2038:
  1795  02C6  1283               	bcf	3,5	;RP0=0, select bank0
  1796  02C7  1303               	bcf	3,6	;RP1=0, select bank0
  1797  02C8  0830               	movf	vid_7_Segment_Display_2Digits@Tens,w
  1798  02C9  120A  118A  273F  120A  118A  	fcall	_vid_Left_7_Segment_DisplayNumber
  1799  02CE  301A               	movlw	26
  1800  02CF  1283               	bcf	3,5	;RP0=0, select bank0
  1801  02D0  1303               	bcf	3,6	;RP1=0, select bank0
  1802  02D1  00AE               	movwf	??_vid_7_Segment_Display_2Digits+1
  1803  02D2  30F7               	movlw	247
  1804  02D3  00AD               	movwf	??_vid_7_Segment_Display_2Digits
  1805  02D4                     u2037:
  1806  02D4  0BAD               	decfsz	??_vid_7_Segment_Display_2Digits,f
  1807  02D5  2AD4               	goto	u2037
  1808  02D6  0BAE               	decfsz	??_vid_7_Segment_Display_2Digits+1,f
  1809  02D7  2AD4               	goto	u2037
  1810  02D8  2AD9               	nop2
  1811  02D9                     l2040:
  1812  02D9  3001               	movlw	1
  1813  02DA  00FF               	movwf	btemp+1
  1814  02DB  087F               	movf	btemp+1,w
  1815  02DC  1283               	bcf	3,5	;RP0=0, select bank0
  1816  02DD  1303               	bcf	3,6	;RP1=0, select bank0
  1817  02DE  07B2               	addwf	vid_7_Segment_Display_2Digits@Stability,f
  1818  02DF                     l2042:
  1819  02DF  3032               	movlw	50
  1820  02E0  0232               	subwf	vid_7_Segment_Display_2Digits@Stability,w
  1821  02E1  1C03               	skipc
  1822  02E2  2AE4               	goto	u1761
  1823  02E3  2AE5               	goto	u1760
  1824  02E4                     u1761:
  1825  02E4  2AB5               	goto	l2034
  1826  02E5                     u1760:
  1827  02E5                     l2044:
  1828  02E5  3002               	movlw	2
  1829  02E6  00FF               	movwf	btemp+1
  1830  02E7  087F               	movf	btemp+1,w
  1831  02E8  00A5               	movwf	DIO_SetPinValue@u8PinIdCopy
  1832  02E9  01A6               	clrf	DIO_SetPinValue@u8PinValCopy
  1833  02EA  3000               	movlw	0
  1834  02EB  120A  118A  21C9  120A  118A  	fcall	_DIO_SetPinValue
  1835  02F0  3003               	movlw	3
  1836  02F1  00FF               	movwf	btemp+1
  1837  02F2  087F               	movf	btemp+1,w
  1838  02F3  1283               	bcf	3,5	;RP0=0, select bank0
  1839  02F4  1303               	bcf	3,6	;RP1=0, select bank0
  1840  02F5  00A5               	movwf	DIO_SetPinValue@u8PinIdCopy
  1841  02F6  01A6               	clrf	DIO_SetPinValue@u8PinValCopy
  1842  02F7  3000               	movlw	0
  1843  02F8  120A  118A  21C9  120A  118A  	fcall	_DIO_SetPinValue
  1844  02FD                     l177:
  1845  02FD  0008               	return
  1846  02FE                     __end_of_vid_7_Segment_Display_2Digits:
  1847                           
  1848                           	psect	text11
  1849  070F                     __ptext11:	
  1850 ;; *************** function _vid_Right_7_Segment_DisplayNumber *****************
  1851 ;; Defined at:
  1852 ;;		line 61 in file "7_Segment_prog.c"
  1853 ;; Parameters:    Size  Location     Type
  1854 ;;  u8_Number       1    wreg     unsigned char 
  1855 ;; Auto vars:     Size  Location     Type
  1856 ;;  u8_Number       1   10[BANK0 ] unsigned char 
  1857 ;; Return value:  Size  Location     Type
  1858 ;;                  1    wreg      void 
  1859 ;; Registers used:
  1860 ;;		wreg, fsr0l, fsr0h, status,2, status,0, btemp+1, pclath, cstack
  1861 ;; Tracked objects:
  1862 ;;		On entry : 0/0
  1863 ;;		On exit  : 0/0
  1864 ;;		Unchanged: 0/0
  1865 ;; Data sizes:     COMMON   BANK0   BANK1   BANK3   BANK2
  1866 ;;      Params:         0       0       0       0       0
  1867 ;;      Locals:         0       1       0       0       0
  1868 ;;      Temps:          0       0       0       0       0
  1869 ;;      Totals:         0       1       0       0       0
  1870 ;;Total ram usage:        1 bytes
  1871 ;; Hardware stack levels used:    1
  1872 ;; Hardware stack levels required when called:    7
  1873 ;; This function calls:
  1874 ;;		_DIO_SetPinValue
  1875 ;;		_DIO_SetPortValue
  1876 ;; This function is called by:
  1877 ;;		_vid_7_Segment_Display_2Digits
  1878 ;; This function uses a non-reentrant model
  1879 ;;
  1880                           
  1881                           
  1882                           ;psect for function _vid_Right_7_Segment_DisplayNumber
  1883  070F                     _vid_Right_7_Segment_DisplayNumber:
  1884                           
  1885                           ;incstack = 0
  1886 ;; hardware stack exceeded
  1887                           ; Regs used in _vid_Right_7_Segment_DisplayNumber: [wreg-fsr0h+status,2+status,0+btemp+1
      +                          +pclath+cstack]
  1888                           ;vid_Right_7_Segment_DisplayNumber@u8_Number stored from wreg
  1889  070F  1283               	bcf	3,5	;RP0=0, select bank0
  1890  0710  1303               	bcf	3,6	;RP1=0, select bank0
  1891  0711  00AA               	movwf	vid_Right_7_Segment_DisplayNumber@u8_Number
  1892  0712                     l1848:
  1893  0712  3002               	movlw	2
  1894  0713  00FF               	movwf	btemp+1
  1895  0714  087F               	movf	btemp+1,w
  1896  0715  00A5               	movwf	DIO_SetPinValue@u8PinIdCopy
  1897  0716  01A6               	clrf	DIO_SetPinValue@u8PinValCopy
  1898  0717  3000               	movlw	0
  1899  0718  120A  118A  21C9  120A  118A  	fcall	_DIO_SetPinValue
  1900  071D  3003               	movlw	3
  1901  071E  00FF               	movwf	btemp+1
  1902  071F  087F               	movf	btemp+1,w
  1903  0720  1283               	bcf	3,5	;RP0=0, select bank0
  1904  0721  1303               	bcf	3,6	;RP1=0, select bank0
  1905  0722  00A5               	movwf	DIO_SetPinValue@u8PinIdCopy
  1906  0723  01A6               	clrf	DIO_SetPinValue@u8PinValCopy
  1907  0724  0AA6               	incf	DIO_SetPinValue@u8PinValCopy,f
  1908  0725  3000               	movlw	0
  1909  0726  120A  118A  21C9  120A  118A  	fcall	_DIO_SetPinValue
  1910  072B  1283               	bcf	3,5	;RP0=0, select bank0
  1911  072C  1303               	bcf	3,6	;RP1=0, select bank0
  1912  072D  082A               	movf	vid_Right_7_Segment_DisplayNumber@u8_Number,w
  1913  072E  3E01               	addlw	low ((_u8_Right_7Segment-__stringbase)| (0+32768))
  1914  072F  0084               	movwf	4
  1915  0730  120A  158A  2000  120A  118A  	fcall	stringdir
  1916  0735  00FF               	movwf	btemp+1
  1917  0736  087F               	movf	btemp+1,w
  1918  0737  00A5               	movwf	DIO_SetPortValue@u8PortVal
  1919  0738  3003               	movlw	3
  1920  0739  120A  118A  276F  120A  118A  	fcall	_DIO_SetPortValue
  1921  073E                     l172:
  1922  073E  0008               	return
  1923  073F                     __end_of_vid_Right_7_Segment_DisplayNumber:
  1924                           
  1925                           	psect	text12
  1926  073F                     __ptext12:	
  1927 ;; *************** function _vid_Left_7_Segment_DisplayNumber *****************
  1928 ;; Defined at:
  1929 ;;		line 49 in file "7_Segment_prog.c"
  1930 ;; Parameters:    Size  Location     Type
  1931 ;;  u8_Number       1    wreg     unsigned char 
  1932 ;; Auto vars:     Size  Location     Type
  1933 ;;  u8_Number       1   10[BANK0 ] unsigned char 
  1934 ;; Return value:  Size  Location     Type
  1935 ;;                  1    wreg      void 
  1936 ;; Registers used:
  1937 ;;		wreg, fsr0l, fsr0h, status,2, status,0, btemp+1, pclath, cstack
  1938 ;; Tracked objects:
  1939 ;;		On entry : 0/0
  1940 ;;		On exit  : 0/0
  1941 ;;		Unchanged: 0/0
  1942 ;; Data sizes:     COMMON   BANK0   BANK1   BANK3   BANK2
  1943 ;;      Params:         0       0       0       0       0
  1944 ;;      Locals:         0       1       0       0       0
  1945 ;;      Temps:          0       0       0       0       0
  1946 ;;      Totals:         0       1       0       0       0
  1947 ;;Total ram usage:        1 bytes
  1948 ;; Hardware stack levels used:    1
  1949 ;; Hardware stack levels required when called:    7
  1950 ;; This function calls:
  1951 ;;		_DIO_SetPinValue
  1952 ;;		_DIO_SetPortValue
  1953 ;; This function is called by:
  1954 ;;		_vid_7_Segment_Display_2Digits
  1955 ;; This function uses a non-reentrant model
  1956 ;;
  1957                           
  1958                           
  1959                           ;psect for function _vid_Left_7_Segment_DisplayNumber
  1960  073F                     _vid_Left_7_Segment_DisplayNumber:
  1961                           
  1962                           ;incstack = 0
  1963 ;; hardware stack exceeded
  1964                           ; Regs used in _vid_Left_7_Segment_DisplayNumber: [wreg-fsr0h+status,2+status,0+btemp+1+
      +                          pclath+cstack]
  1965                           ;vid_Left_7_Segment_DisplayNumber@u8_Number stored from wreg
  1966  073F  1283               	bcf	3,5	;RP0=0, select bank0
  1967  0740  1303               	bcf	3,6	;RP1=0, select bank0
  1968  0741  00AA               	movwf	vid_Left_7_Segment_DisplayNumber@u8_Number
  1969  0742                     l1846:
  1970  0742  3003               	movlw	3
  1971  0743  00FF               	movwf	btemp+1
  1972  0744  087F               	movf	btemp+1,w
  1973  0745  00A5               	movwf	DIO_SetPinValue@u8PinIdCopy
  1974  0746  01A6               	clrf	DIO_SetPinValue@u8PinValCopy
  1975  0747  3000               	movlw	0
  1976  0748  120A  118A  21C9  120A  118A  	fcall	_DIO_SetPinValue
  1977  074D  3002               	movlw	2
  1978  074E  00FF               	movwf	btemp+1
  1979  074F  087F               	movf	btemp+1,w
  1980  0750  1283               	bcf	3,5	;RP0=0, select bank0
  1981  0751  1303               	bcf	3,6	;RP1=0, select bank0
  1982  0752  00A5               	movwf	DIO_SetPinValue@u8PinIdCopy
  1983  0753  01A6               	clrf	DIO_SetPinValue@u8PinValCopy
  1984  0754  0AA6               	incf	DIO_SetPinValue@u8PinValCopy,f
  1985  0755  3000               	movlw	0
  1986  0756  120A  118A  21C9  120A  118A  	fcall	_DIO_SetPinValue
  1987  075B  1283               	bcf	3,5	;RP0=0, select bank0
  1988  075C  1303               	bcf	3,6	;RP1=0, select bank0
  1989  075D  082A               	movf	vid_Left_7_Segment_DisplayNumber@u8_Number,w
  1990  075E  3E0B               	addlw	low ((_u8_Left_7Segment-__stringbase)| (0+32768))
  1991  075F  0084               	movwf	4
  1992  0760  120A  158A  2000  120A  118A  	fcall	stringdir
  1993  0765  00FF               	movwf	btemp+1
  1994  0766  087F               	movf	btemp+1,w
  1995  0767  00A5               	movwf	DIO_SetPortValue@u8PortVal
  1996  0768  3003               	movlw	3
  1997  0769  120A  118A  276F  120A  118A  	fcall	_DIO_SetPortValue
  1998  076E                     l169:
  1999  076E  0008               	return
  2000  076F                     __end_of_vid_Left_7_Segment_DisplayNumber:
  2001                           
  2002                           	psect	text13
  2003  076F                     __ptext13:	
  2004 ;; *************** function _DIO_SetPortValue *****************
  2005 ;; Defined at:
  2006 ;;		line 148 in file "DIO_Prog.c"
  2007 ;; Parameters:    Size  Location     Type
  2008 ;;  u8PortId        1    wreg     unsigned char 
  2009 ;;  u8PortVal       1    5[BANK0 ] unsigned char 
  2010 ;; Auto vars:     Size  Location     Type
  2011 ;;  u8PortId        1    8[BANK0 ] unsigned char 
  2012 ;; Return value:  Size  Location     Type
  2013 ;;                  1    wreg      void 
  2014 ;; Registers used:
  2015 ;;		wreg, fsr0l, fsr0h, status,2, status,0, btemp+1
  2016 ;; Tracked objects:
  2017 ;;		On entry : 0/0
  2018 ;;		On exit  : 0/0
  2019 ;;		Unchanged: 0/0
  2020 ;; Data sizes:     COMMON   BANK0   BANK1   BANK3   BANK2
  2021 ;;      Params:         0       1       0       0       0
  2022 ;;      Locals:         0       1       0       0       0
  2023 ;;      Temps:          0       2       0       0       0
  2024 ;;      Totals:         0       4       0       0       0
  2025 ;;Total ram usage:        4 bytes
  2026 ;; Hardware stack levels used:    1
  2027 ;; Hardware stack levels required when called:    6
  2028 ;; This function calls:
  2029 ;;		Nothing
  2030 ;; This function is called by:
  2031 ;;		_vid_7_Segment_Init
  2032 ;;		_vid_Left_7_Segment_DisplayNumber
  2033 ;;		_vid_Right_7_Segment_DisplayNumber
  2034 ;; This function uses a non-reentrant model
  2035 ;;
  2036                           
  2037                           
  2038                           ;psect for function _DIO_SetPortValue
  2039  076F                     _DIO_SetPortValue:
  2040                           
  2041                           ;incstack = 0
  2042                           ; Regs used in _DIO_SetPortValue: [wreg-fsr0h+status,2+status,0+btemp+1]
  2043                           ;DIO_SetPortValue@u8PortId stored from wreg
  2044  076F  1283               	bcf	3,5	;RP0=0, select bank0
  2045  0770  1303               	bcf	3,6	;RP1=0, select bank0
  2046  0771  00A8               	movwf	DIO_SetPortValue@u8PortId
  2047  0772                     l1740:
  2048                           
  2049                           ;DIO_Prog.c: 148: void DIO_SetPortValue (u8 u8PortId, u8 u8PortVal);DIO_Prog.c: 149: {;D
      +                          IO_Prog.c: 151:  switch (u8PortId)
  2050  0772  2F87               	goto	l1752
  2051  0773                     l1742:
  2052  0773  0825               	movf	DIO_SetPortValue@u8PortVal,w
  2053  0774  00FF               	movwf	btemp+1
  2054  0775  087F               	movf	btemp+1,w
  2055  0776  0085               	movwf	5	;volatile
  2056  0777  2F9D               	goto	l111
  2057  0778                     l1744:
  2058  0778  0825               	movf	DIO_SetPortValue@u8PortVal,w
  2059  0779  00FF               	movwf	btemp+1
  2060  077A  087F               	movf	btemp+1,w
  2061  077B  0086               	movwf	6	;volatile
  2062  077C  2F9D               	goto	l111
  2063  077D                     l1746:
  2064  077D  0825               	movf	DIO_SetPortValue@u8PortVal,w
  2065  077E  00FF               	movwf	btemp+1
  2066  077F  087F               	movf	btemp+1,w
  2067  0780  0087               	movwf	7	;volatile
  2068  0781  2F9D               	goto	l111
  2069  0782                     l1748:
  2070  0782  0825               	movf	DIO_SetPortValue@u8PortVal,w
  2071  0783  00FF               	movwf	btemp+1
  2072  0784  087F               	movf	btemp+1,w
  2073  0785  0088               	movwf	8	;volatile
  2074  0786  2F9D               	goto	l111
  2075  0787                     l1752:
  2076  0787  0828               	movf	DIO_SetPortValue@u8PortId,w
  2077  0788  00A6               	movwf	??_DIO_SetPortValue
  2078  0789  01A7               	clrf	??_DIO_SetPortValue+1
  2079                           
  2080                           ; Switch on 2 bytes has been partitioned into a top level switch of size 1, and 1 sub-sw
      +                          itches
  2081                           ; Switch size 1, requested type "simple"
  2082                           ; Number of cases is 1, Range of values is 0 to 0
  2083                           ; switch strategies available:
  2084                           ; Name         Instructions Cycles
  2085                           ; simple_byte            4     3 (average)
  2086                           ; direct_byte           11     8 (fixed)
  2087                           ; jumptable            260     6 (fixed)
  2088                           ;	Chosen strategy is simple_byte
  2089  078A  0827               	movf	??_DIO_SetPortValue+1,w
  2090  078B  3A00               	xorlw	0	; case 0
  2091  078C  1903               	skipnz
  2092  078D  2F8F               	goto	l2428
  2093  078E  2F9D               	goto	l111
  2094  078F                     l2428:
  2095                           
  2096                           ; Switch size 1, requested type "simple"
  2097                           ; Number of cases is 4, Range of values is 0 to 3
  2098                           ; switch strategies available:
  2099                           ; Name         Instructions Cycles
  2100                           ; simple_byte           13     7 (average)
  2101                           ; direct_byte           20     8 (fixed)
  2102                           ; jumptable            260     6 (fixed)
  2103                           ;	Chosen strategy is simple_byte
  2104  078F  0826               	movf	??_DIO_SetPortValue,w
  2105  0790  3A00               	xorlw	0	; case 0
  2106  0791  1903               	skipnz
  2107  0792  2F73               	goto	l1742
  2108  0793  3A01               	xorlw	1	; case 1
  2109  0794  1903               	skipnz
  2110  0795  2F78               	goto	l1744
  2111  0796  3A03               	xorlw	3	; case 2
  2112  0797  1903               	skipnz
  2113  0798  2F7D               	goto	l1746
  2114  0799  3A01               	xorlw	1	; case 3
  2115  079A  1903               	skipnz
  2116  079B  2F82               	goto	l1748
  2117  079C  2F9D               	goto	l111
  2118  079D                     l111:
  2119  079D  0008               	return
  2120  079E                     __end_of_DIO_SetPortValue:
  2121                           
  2122                           	psect	text14
  2123  04A5                     __ptext14:	
  2124 ;; *************** function ___awmod *****************
  2125 ;; Defined at:
  2126 ;;		line 5 in file "C:\Program Files\Microchip\xc8\v2.20\pic\sources\c90\common\awmod.c"
  2127 ;; Parameters:    Size  Location     Type
  2128 ;;  divisor         2    5[BANK0 ] int 
  2129 ;;  dividend        2    7[BANK0 ] int 
  2130 ;; Auto vars:     Size  Location     Type
  2131 ;;  sign            1   10[BANK0 ] unsigned char 
  2132 ;;  counter         1    9[BANK0 ] unsigned char 
  2133 ;; Return value:  Size  Location     Type
  2134 ;;                  2    5[BANK0 ] int 
  2135 ;; Registers used:
  2136 ;;		wreg, status,2, status,0, btemp+1
  2137 ;; Tracked objects:
  2138 ;;		On entry : 0/0
  2139 ;;		On exit  : 0/0
  2140 ;;		Unchanged: 0/0
  2141 ;; Data sizes:     COMMON   BANK0   BANK1   BANK3   BANK2
  2142 ;;      Params:         0       4       0       0       0
  2143 ;;      Locals:         0       2       0       0       0
  2144 ;;      Temps:          0       0       0       0       0
  2145 ;;      Totals:         0       6       0       0       0
  2146 ;;Total ram usage:        6 bytes
  2147 ;; Hardware stack levels used:    1
  2148 ;; Hardware stack levels required when called:    6
  2149 ;; This function calls:
  2150 ;;		Nothing
  2151 ;; This function is called by:
  2152 ;;		_vid_7_Segment_Display_2Digits
  2153 ;; This function uses a non-reentrant model
  2154 ;;
  2155                           
  2156                           
  2157                           ;psect for function ___awmod
  2158  04A5                     ___awmod:
  2159  04A5                     l1894:	
  2160                           ;incstack = 0
  2161 ;; hardware stack exceeded
  2162                           ; Regs used in ___awmod: [wreg+status,2+status,0+btemp+1]
  2163                           
  2164  04A5  1283               	bcf	3,5	;RP0=0, select bank0
  2165  04A6  1303               	bcf	3,6	;RP1=0, select bank0
  2166  04A7  01AA               	clrf	___awmod@sign
  2167  04A8                     l1896:
  2168  04A8  1FA8               	btfss	___awmod@dividend+1,7
  2169  04A9  2CAB               	goto	u1541
  2170  04AA  2CAC               	goto	u1540
  2171  04AB                     u1541:
  2172  04AB  2CB3               	goto	l1902
  2173  04AC                     u1540:
  2174  04AC                     l1898:
  2175  04AC  09A7               	comf	___awmod@dividend,f
  2176  04AD  09A8               	comf	___awmod@dividend+1,f
  2177  04AE  0AA7               	incf	___awmod@dividend,f
  2178  04AF  1903               	skipnz
  2179  04B0  0AA8               	incf	___awmod@dividend+1,f
  2180  04B1                     l1900:
  2181  04B1  01AA               	clrf	___awmod@sign
  2182  04B2  0AAA               	incf	___awmod@sign,f
  2183  04B3                     l1902:
  2184  04B3  1FA6               	btfss	___awmod@divisor+1,7
  2185  04B4  2CB6               	goto	u1551
  2186  04B5  2CB7               	goto	u1550
  2187  04B6                     u1551:
  2188  04B6  2CBC               	goto	l1906
  2189  04B7                     u1550:
  2190  04B7                     l1904:
  2191  04B7  09A5               	comf	___awmod@divisor,f
  2192  04B8  09A6               	comf	___awmod@divisor+1,f
  2193  04B9  0AA5               	incf	___awmod@divisor,f
  2194  04BA  1903               	skipnz
  2195  04BB  0AA6               	incf	___awmod@divisor+1,f
  2196  04BC                     l1906:
  2197  04BC  0825               	movf	___awmod@divisor,w
  2198  04BD  0426               	iorwf	___awmod@divisor+1,w
  2199  04BE  1903               	btfsc	3,2
  2200  04BF  2CC1               	goto	u1561
  2201  04C0  2CC2               	goto	u1560
  2202  04C1                     u1561:
  2203  04C1  2CF1               	goto	l1924
  2204  04C2                     u1560:
  2205  04C2                     l1908:
  2206  04C2  01A9               	clrf	___awmod@counter
  2207  04C3  0AA9               	incf	___awmod@counter,f
  2208  04C4  2CD0               	goto	l1914
  2209  04C5                     l1910:
  2210  04C5  3001               	movlw	1
  2211  04C6                     u1575:
  2212  04C6  1003               	clrc
  2213  04C7  0DA5               	rlf	___awmod@divisor,f
  2214  04C8  0DA6               	rlf	___awmod@divisor+1,f
  2215  04C9  3EFF               	addlw	-1
  2216  04CA  1D03               	skipz
  2217  04CB  2CC6               	goto	u1575
  2218  04CC                     l1912:
  2219  04CC  3001               	movlw	1
  2220  04CD  00FF               	movwf	btemp+1
  2221  04CE  087F               	movf	btemp+1,w
  2222  04CF  07A9               	addwf	___awmod@counter,f
  2223  04D0                     l1914:
  2224  04D0  1FA6               	btfss	___awmod@divisor+1,7
  2225  04D1  2CD3               	goto	u1581
  2226  04D2  2CD4               	goto	u1580
  2227  04D3                     u1581:
  2228  04D3  2CC5               	goto	l1910
  2229  04D4                     u1580:
  2230  04D4                     l1916:
  2231  04D4  0826               	movf	___awmod@divisor+1,w
  2232  04D5  0228               	subwf	___awmod@dividend+1,w
  2233  04D6  1D03               	skipz
  2234  04D7  2CDA               	goto	u1595
  2235  04D8  0825               	movf	___awmod@divisor,w
  2236  04D9  0227               	subwf	___awmod@dividend,w
  2237  04DA                     u1595:
  2238  04DA  1C03               	skipc
  2239  04DB  2CDD               	goto	u1591
  2240  04DC  2CDE               	goto	u1590
  2241  04DD                     u1591:
  2242  04DD  2CE4               	goto	l1920
  2243  04DE                     u1590:
  2244  04DE                     l1918:
  2245  04DE  0825               	movf	___awmod@divisor,w
  2246  04DF  02A7               	subwf	___awmod@dividend,f
  2247  04E0  0826               	movf	___awmod@divisor+1,w
  2248  04E1  1C03               	skipc
  2249  04E2  03A8               	decf	___awmod@dividend+1,f
  2250  04E3  02A8               	subwf	___awmod@dividend+1,f
  2251  04E4                     l1920:
  2252  04E4  3001               	movlw	1
  2253  04E5                     u1605:
  2254  04E5  1003               	clrc
  2255  04E6  0CA6               	rrf	___awmod@divisor+1,f
  2256  04E7  0CA5               	rrf	___awmod@divisor,f
  2257  04E8  3EFF               	addlw	-1
  2258  04E9  1D03               	skipz
  2259  04EA  2CE5               	goto	u1605
  2260  04EB                     l1922:
  2261  04EB  3001               	movlw	1
  2262  04EC  02A9               	subwf	___awmod@counter,f
  2263  04ED  1D03               	btfss	3,2
  2264  04EE  2CF0               	goto	u1611
  2265  04EF  2CF1               	goto	u1610
  2266  04F0                     u1611:
  2267  04F0  2CD4               	goto	l1916
  2268  04F1                     u1610:
  2269  04F1                     l1924:
  2270  04F1  082A               	movf	___awmod@sign,w
  2271  04F2  1903               	btfsc	3,2
  2272  04F3  2CF5               	goto	u1621
  2273  04F4  2CF6               	goto	u1620
  2274  04F5                     u1621:
  2275  04F5  2CFB               	goto	l1928
  2276  04F6                     u1620:
  2277  04F6                     l1926:
  2278  04F6  09A7               	comf	___awmod@dividend,f
  2279  04F7  09A8               	comf	___awmod@dividend+1,f
  2280  04F8  0AA7               	incf	___awmod@dividend,f
  2281  04F9  1903               	skipnz
  2282  04FA  0AA8               	incf	___awmod@dividend+1,f
  2283  04FB                     l1928:
  2284  04FB  0828               	movf	___awmod@dividend+1,w
  2285  04FC  00A6               	movwf	?___awmod+1
  2286  04FD  0827               	movf	___awmod@dividend,w
  2287  04FE  00A5               	movwf	?___awmod
  2288  04FF                     l502:
  2289  04FF  0008               	return
  2290  0500                     __end_of___awmod:
  2291                           
  2292                           	psect	text15
  2293  036C                     __ptext15:	
  2294 ;; *************** function ___awdiv *****************
  2295 ;; Defined at:
  2296 ;;		line 5 in file "C:\Program Files\Microchip\xc8\v2.20\pic\sources\c90\common\awdiv.c"
  2297 ;; Parameters:    Size  Location     Type
  2298 ;;  divisor         2    5[BANK0 ] int 
  2299 ;;  dividend        2    7[BANK0 ] int 
  2300 ;; Auto vars:     Size  Location     Type
  2301 ;;  quotient        2   11[BANK0 ] int 
  2302 ;;  sign            1   10[BANK0 ] unsigned char 
  2303 ;;  counter         1    9[BANK0 ] unsigned char 
  2304 ;; Return value:  Size  Location     Type
  2305 ;;                  2    5[BANK0 ] int 
  2306 ;; Registers used:
  2307 ;;		wreg, status,2, status,0, btemp+1
  2308 ;; Tracked objects:
  2309 ;;		On entry : 0/0
  2310 ;;		On exit  : 0/0
  2311 ;;		Unchanged: 0/0
  2312 ;; Data sizes:     COMMON   BANK0   BANK1   BANK3   BANK2
  2313 ;;      Params:         0       4       0       0       0
  2314 ;;      Locals:         0       4       0       0       0
  2315 ;;      Temps:          0       0       0       0       0
  2316 ;;      Totals:         0       8       0       0       0
  2317 ;;Total ram usage:        8 bytes
  2318 ;; Hardware stack levels used:    1
  2319 ;; Hardware stack levels required when called:    6
  2320 ;; This function calls:
  2321 ;;		Nothing
  2322 ;; This function is called by:
  2323 ;;		_vid_7_Segment_Display_2Digits
  2324 ;; This function uses a non-reentrant model
  2325 ;;
  2326                           
  2327                           
  2328                           ;psect for function ___awdiv
  2329  036C                     ___awdiv:
  2330  036C                     l1850:	
  2331                           ;incstack = 0
  2332 ;; hardware stack exceeded
  2333                           ; Regs used in ___awdiv: [wreg+status,2+status,0+btemp+1]
  2334                           
  2335  036C  1283               	bcf	3,5	;RP0=0, select bank0
  2336  036D  1303               	bcf	3,6	;RP1=0, select bank0
  2337  036E  01AA               	clrf	___awdiv@sign
  2338  036F                     l1852:
  2339  036F  1FA6               	btfss	___awdiv@divisor+1,7
  2340  0370  2B72               	goto	u1441
  2341  0371  2B73               	goto	u1440
  2342  0372                     u1441:
  2343  0372  2B7A               	goto	l1858
  2344  0373                     u1440:
  2345  0373                     l1854:
  2346  0373  09A5               	comf	___awdiv@divisor,f
  2347  0374  09A6               	comf	___awdiv@divisor+1,f
  2348  0375  0AA5               	incf	___awdiv@divisor,f
  2349  0376  1903               	skipnz
  2350  0377  0AA6               	incf	___awdiv@divisor+1,f
  2351  0378                     l1856:
  2352  0378  01AA               	clrf	___awdiv@sign
  2353  0379  0AAA               	incf	___awdiv@sign,f
  2354  037A                     l1858:
  2355  037A  1FA8               	btfss	___awdiv@dividend+1,7
  2356  037B  2B7D               	goto	u1451
  2357  037C  2B7E               	goto	u1450
  2358  037D                     u1451:
  2359  037D  2B87               	goto	l1864
  2360  037E                     u1450:
  2361  037E                     l1860:
  2362  037E  09A7               	comf	___awdiv@dividend,f
  2363  037F  09A8               	comf	___awdiv@dividend+1,f
  2364  0380  0AA7               	incf	___awdiv@dividend,f
  2365  0381  1903               	skipnz
  2366  0382  0AA8               	incf	___awdiv@dividend+1,f
  2367  0383                     l1862:
  2368  0383  3001               	movlw	1
  2369  0384  00FF               	movwf	btemp+1
  2370  0385  087F               	movf	btemp+1,w
  2371  0386  06AA               	xorwf	___awdiv@sign,f
  2372  0387                     l1864:
  2373  0387  01AB               	clrf	___awdiv@quotient
  2374  0388  01AC               	clrf	___awdiv@quotient+1
  2375  0389                     l1866:
  2376  0389  0825               	movf	___awdiv@divisor,w
  2377  038A  0426               	iorwf	___awdiv@divisor+1,w
  2378  038B  1903               	btfsc	3,2
  2379  038C  2B8E               	goto	u1461
  2380  038D  2B8F               	goto	u1460
  2381  038E                     u1461:
  2382  038E  2BC6               	goto	l1886
  2383  038F                     u1460:
  2384  038F                     l1868:
  2385  038F  01A9               	clrf	___awdiv@counter
  2386  0390  0AA9               	incf	___awdiv@counter,f
  2387  0391  2B9D               	goto	l1874
  2388  0392                     l1870:
  2389  0392  3001               	movlw	1
  2390  0393                     u1475:
  2391  0393  1003               	clrc
  2392  0394  0DA5               	rlf	___awdiv@divisor,f
  2393  0395  0DA6               	rlf	___awdiv@divisor+1,f
  2394  0396  3EFF               	addlw	-1
  2395  0397  1D03               	skipz
  2396  0398  2B93               	goto	u1475
  2397  0399                     l1872:
  2398  0399  3001               	movlw	1
  2399  039A  00FF               	movwf	btemp+1
  2400  039B  087F               	movf	btemp+1,w
  2401  039C  07A9               	addwf	___awdiv@counter,f
  2402  039D                     l1874:
  2403  039D  1FA6               	btfss	___awdiv@divisor+1,7
  2404  039E  2BA0               	goto	u1481
  2405  039F  2BA1               	goto	u1480
  2406  03A0                     u1481:
  2407  03A0  2B92               	goto	l1870
  2408  03A1                     u1480:
  2409  03A1                     l1876:
  2410  03A1  3001               	movlw	1
  2411  03A2                     u1495:
  2412  03A2  1003               	clrc
  2413  03A3  0DAB               	rlf	___awdiv@quotient,f
  2414  03A4  0DAC               	rlf	___awdiv@quotient+1,f
  2415  03A5  3EFF               	addlw	-1
  2416  03A6  1D03               	skipz
  2417  03A7  2BA2               	goto	u1495
  2418  03A8  0826               	movf	___awdiv@divisor+1,w
  2419  03A9  0228               	subwf	___awdiv@dividend+1,w
  2420  03AA  1D03               	skipz
  2421  03AB  2BAE               	goto	u1505
  2422  03AC  0825               	movf	___awdiv@divisor,w
  2423  03AD  0227               	subwf	___awdiv@dividend,w
  2424  03AE                     u1505:
  2425  03AE  1C03               	skipc
  2426  03AF  2BB1               	goto	u1501
  2427  03B0  2BB2               	goto	u1500
  2428  03B1                     u1501:
  2429  03B1  2BB9               	goto	l1882
  2430  03B2                     u1500:
  2431  03B2                     l1878:
  2432  03B2  0825               	movf	___awdiv@divisor,w
  2433  03B3  02A7               	subwf	___awdiv@dividend,f
  2434  03B4  0826               	movf	___awdiv@divisor+1,w
  2435  03B5  1C03               	skipc
  2436  03B6  03A8               	decf	___awdiv@dividend+1,f
  2437  03B7  02A8               	subwf	___awdiv@dividend+1,f
  2438  03B8                     l1880:
  2439  03B8  142B               	bsf	___awdiv@quotient,0
  2440  03B9                     l1882:
  2441  03B9  3001               	movlw	1
  2442  03BA                     u1515:
  2443  03BA  1003               	clrc
  2444  03BB  0CA6               	rrf	___awdiv@divisor+1,f
  2445  03BC  0CA5               	rrf	___awdiv@divisor,f
  2446  03BD  3EFF               	addlw	-1
  2447  03BE  1D03               	skipz
  2448  03BF  2BBA               	goto	u1515
  2449  03C0                     l1884:
  2450  03C0  3001               	movlw	1
  2451  03C1  02A9               	subwf	___awdiv@counter,f
  2452  03C2  1D03               	btfss	3,2
  2453  03C3  2BC5               	goto	u1521
  2454  03C4  2BC6               	goto	u1520
  2455  03C5                     u1521:
  2456  03C5  2BA1               	goto	l1876
  2457  03C6                     u1520:
  2458  03C6                     l1886:
  2459  03C6  082A               	movf	___awdiv@sign,w
  2460  03C7  1903               	btfsc	3,2
  2461  03C8  2BCA               	goto	u1531
  2462  03C9  2BCB               	goto	u1530
  2463  03CA                     u1531:
  2464  03CA  2BD0               	goto	l1890
  2465  03CB                     u1530:
  2466  03CB                     l1888:
  2467  03CB  09AB               	comf	___awdiv@quotient,f
  2468  03CC  09AC               	comf	___awdiv@quotient+1,f
  2469  03CD  0AAB               	incf	___awdiv@quotient,f
  2470  03CE  1903               	skipnz
  2471  03CF  0AAC               	incf	___awdiv@quotient+1,f
  2472  03D0                     l1890:
  2473  03D0  082C               	movf	___awdiv@quotient+1,w
  2474  03D1  00A6               	movwf	?___awdiv+1
  2475  03D2  082B               	movf	___awdiv@quotient,w
  2476  03D3  00A5               	movwf	?___awdiv
  2477  03D4                     l489:
  2478  03D4  0008               	return
  2479  03D5                     __end_of___awdiv:
  2480                           
  2481                           	psect	text16
  2482  0F51                     __ptext16:	
  2483 ;; *************** function _OFF_Mode *****************
  2484 ;; Defined at:
  2485 ;;		line 67 in file "APP_Program.c"
  2486 ;; Parameters:    Size  Location     Type
  2487 ;;		None
  2488 ;; Auto vars:     Size  Location     Type
  2489 ;;		None
  2490 ;; Return value:  Size  Location     Type
  2491 ;;                  1    wreg      void 
  2492 ;; Registers used:
  2493 ;;		wreg, fsr0l, fsr0h, status,2, status,0, btemp+1, pclath, cstack
  2494 ;; Tracked objects:
  2495 ;;		On entry : 0/0
  2496 ;;		On exit  : 0/0
  2497 ;;		Unchanged: 0/0
  2498 ;; Data sizes:     COMMON   BANK0   BANK1   BANK3   BANK2
  2499 ;;      Params:         0       0       0       0       0
  2500 ;;      Locals:         0       0       0       0       0
  2501 ;;      Temps:          0       0       0       0       0
  2502 ;;      Totals:         0       0       0       0       0
  2503 ;;Total ram usage:        0 bytes
  2504 ;; Hardware stack levels used:    1
  2505 ;; Hardware stack levels required when called:    8
  2506 ;; This function calls:
  2507 ;;		_vid_7_Segment_DeInit
  2508 ;; This function is called by:
  2509 ;;		_main
  2510 ;; This function uses a non-reentrant model
  2511 ;;
  2512                           
  2513                           
  2514                           ;psect for function _OFF_Mode
  2515  0F51                     _OFF_Mode:
  2516  0F51                     l2080:	
  2517                           ;incstack = 0
  2518 ;; hardware stack exceeded
  2519                           ; Regs used in _OFF_Mode: [wreg-fsr0h+status,2+status,0+btemp+1+pclath+cstack]
  2520                           
  2521                           
  2522                           ;APP_Program.c: 69:     ON_OFF_Status = 0 ;
  2523  0F51  1283               	bcf	3,5	;RP0=0, select bank0
  2524  0F52  1303               	bcf	3,6	;RP1=0, select bank0
  2525  0F53  01BE               	clrf	_ON_OFF_Status
  2526  0F54                     l2082:
  2527                           
  2528                           ;APP_Program.c: 70:     vid_7_Segment_DeInit () ;
  2529  0F54  120A  158A  27C8  120A  158A  	fcall	_vid_7_Segment_DeInit
  2530  0F59                     l217:
  2531  0F59  0008               	return
  2532  0F5A                     __end_of_OFF_Mode:
  2533                           
  2534                           	psect	text17
  2535  0FC8                     __ptext17:	
  2536 ;; *************** function _vid_7_Segment_DeInit *****************
  2537 ;; Defined at:
  2538 ;;		line 41 in file "7_Segment_prog.c"
  2539 ;; Parameters:    Size  Location     Type
  2540 ;;		None
  2541 ;; Auto vars:     Size  Location     Type
  2542 ;;		None
  2543 ;; Return value:  Size  Location     Type
  2544 ;;                  1    wreg      void 
  2545 ;; Registers used:
  2546 ;;		wreg, fsr0l, fsr0h, status,2, status,0, btemp+1, pclath, cstack
  2547 ;; Tracked objects:
  2548 ;;		On entry : 0/0
  2549 ;;		On exit  : 0/0
  2550 ;;		Unchanged: 0/0
  2551 ;; Data sizes:     COMMON   BANK0   BANK1   BANK3   BANK2
  2552 ;;      Params:         0       0       0       0       0
  2553 ;;      Locals:         0       0       0       0       0
  2554 ;;      Temps:          0       0       0       0       0
  2555 ;;      Totals:         0       0       0       0       0
  2556 ;;Total ram usage:        0 bytes
  2557 ;; Hardware stack levels used:    1
  2558 ;; Hardware stack levels required when called:    7
  2559 ;; This function calls:
  2560 ;;		_DIO_SetPinValue
  2561 ;; This function is called by:
  2562 ;;		_OFF_Mode
  2563 ;;		_SetTemp_Mode
  2564 ;; This function uses a non-reentrant model
  2565 ;;
  2566                           
  2567                           
  2568                           ;psect for function _vid_7_Segment_DeInit
  2569  0FC8                     _vid_7_Segment_DeInit:
  2570  0FC8                     l2024:	
  2571                           ;incstack = 0
  2572 ;; hardware stack exceeded
  2573                           ; Regs used in _vid_7_Segment_DeInit: [wreg-fsr0h+status,2+status,0+btemp+1+pclath+cstac
      +                          k]
  2574                           
  2575  0FC8  3002               	movlw	2
  2576  0FC9  00FF               	movwf	btemp+1
  2577  0FCA  087F               	movf	btemp+1,w
  2578  0FCB  1283               	bcf	3,5	;RP0=0, select bank0
  2579  0FCC  1303               	bcf	3,6	;RP1=0, select bank0
  2580  0FCD  00A5               	movwf	DIO_SetPinValue@u8PinIdCopy
  2581  0FCE  01A6               	clrf	DIO_SetPinValue@u8PinValCopy
  2582  0FCF  3000               	movlw	0
  2583  0FD0  120A  118A  21C9  120A  158A  	fcall	_DIO_SetPinValue
  2584  0FD5  3003               	movlw	3
  2585  0FD6  00FF               	movwf	btemp+1
  2586  0FD7  087F               	movf	btemp+1,w
  2587  0FD8  1283               	bcf	3,5	;RP0=0, select bank0
  2588  0FD9  1303               	bcf	3,6	;RP1=0, select bank0
  2589  0FDA  00A5               	movwf	DIO_SetPinValue@u8PinIdCopy
  2590  0FDB  01A6               	clrf	DIO_SetPinValue@u8PinValCopy
  2591  0FDC  3000               	movlw	0
  2592  0FDD  120A  118A  21C9  120A  158A  	fcall	_DIO_SetPinValue
  2593  0FE2                     l166:
  2594  0FE2  0008               	return
  2595  0FE3                     __end_of_vid_7_Segment_DeInit:
  2596                           
  2597                           	psect	text18
  2598  01C9                     __ptext18:	
  2599 ;; *************** function _DIO_SetPinValue *****************
  2600 ;; Defined at:
  2601 ;;		line 61 in file "DIO_Prog.c"
  2602 ;; Parameters:    Size  Location     Type
  2603 ;;  u8PortIdCopy    1    wreg     unsigned char 
  2604 ;;  u8PinIdCopy     1    5[BANK0 ] unsigned char 
  2605 ;;  u8PinValCopy    1    6[BANK0 ] unsigned char 
  2606 ;; Auto vars:     Size  Location     Type
  2607 ;;  u8PortIdCopy    1    9[BANK0 ] unsigned char 
  2608 ;; Return value:  Size  Location     Type
  2609 ;;                  1    wreg      void 
  2610 ;; Registers used:
  2611 ;;		wreg, fsr0l, fsr0h, status,2, status,0, btemp+1
  2612 ;; Tracked objects:
  2613 ;;		On entry : 0/0
  2614 ;;		On exit  : 0/0
  2615 ;;		Unchanged: 0/0
  2616 ;; Data sizes:     COMMON   BANK0   BANK1   BANK3   BANK2
  2617 ;;      Params:         0       2       0       0       0
  2618 ;;      Locals:         0       1       0       0       0
  2619 ;;      Temps:          0       2       0       0       0
  2620 ;;      Totals:         0       5       0       0       0
  2621 ;;Total ram usage:        5 bytes
  2622 ;; Hardware stack levels used:    1
  2623 ;; Hardware stack levels required when called:    6
  2624 ;; This function calls:
  2625 ;;		Nothing
  2626 ;; This function is called by:
  2627 ;;		_vid_7_Segment_Init
  2628 ;;		_vid_7_Segment_DeInit
  2629 ;;		_vid_Left_7_Segment_DisplayNumber
  2630 ;;		_vid_Right_7_Segment_DisplayNumber
  2631 ;;		_vid_7_Segment_Display_2Digits
  2632 ;; This function uses a non-reentrant model
  2633 ;;
  2634                           
  2635                           
  2636                           ;psect for function _DIO_SetPinValue
  2637  01C9                     _DIO_SetPinValue:
  2638                           
  2639                           ;incstack = 0
  2640                           ; Regs used in _DIO_SetPinValue: [wreg-fsr0h+status,2+status,0+btemp+1]
  2641                           ;DIO_SetPinValue@u8PortIdCopy stored from wreg
  2642  01C9  1283               	bcf	3,5	;RP0=0, select bank0
  2643  01CA  1303               	bcf	3,6	;RP1=0, select bank0
  2644  01CB  00A9               	movwf	DIO_SetPinValue@u8PortIdCopy
  2645  01CC                     l1696:
  2646                           
  2647                           ;DIO_Prog.c: 61: void DIO_SetPinValue(u8 u8PortIdCopy , u8 u8PinIdCopy, u8 u8PinValCopy)
      +                          ;DIO_Prog.c: 62: {;DIO_Prog.c: 64:  if ((u8PortIdCopy <= 3) && (u8PinIdCopy <= 7))
  2648  01CC  3004               	movlw	4
  2649  01CD  0229               	subwf	DIO_SetPinValue@u8PortIdCopy,w
  2650  01CE  1803               	skipnc
  2651  01CF  29D1               	goto	u1131
  2652  01D0  29D2               	goto	u1130
  2653  01D1                     u1131:
  2654  01D1  2A84               	goto	l80
  2655  01D2                     u1130:
  2656  01D2                     l1698:
  2657  01D2  3008               	movlw	8
  2658  01D3  0225               	subwf	DIO_SetPinValue@u8PinIdCopy,w
  2659  01D4  1803               	skipnc
  2660  01D5  29D7               	goto	u1141
  2661  01D6  29D8               	goto	u1140
  2662  01D7                     u1141:
  2663  01D7  2A84               	goto	l80
  2664  01D8                     u1140:
  2665  01D8                     l1700:
  2666                           
  2667                           ;DIO_Prog.c: 65:  {;DIO_Prog.c: 66:   if (u8PinValCopy == 1)
  2668  01D8  0326               	decf	DIO_SetPinValue@u8PinValCopy,w
  2669  01D9  1D03               	btfss	3,2
  2670  01DA  29DC               	goto	u1151
  2671  01DB  29DD               	goto	u1150
  2672  01DC                     u1151:
  2673  01DC  2A2C               	goto	l1716
  2674  01DD                     u1150:
  2675  01DD  2A16               	goto	l1714
  2676  01DE                     l1704:
  2677  01DE  3001               	movlw	1
  2678  01DF  00A7               	movwf	??_DIO_SetPinValue
  2679  01E0  0A25               	incf	DIO_SetPinValue@u8PinIdCopy,w
  2680  01E1  29E4               	goto	u1164
  2681  01E2                     u1165:
  2682  01E2  1003               	clrc
  2683  01E3  0DA7               	rlf	??_DIO_SetPinValue,f
  2684  01E4                     u1164:
  2685  01E4  3EFF               	addlw	-1
  2686  01E5  1D03               	skipz
  2687  01E6  29E2               	goto	u1165
  2688  01E7  0827               	movf	??_DIO_SetPinValue,w
  2689  01E8  00FF               	movwf	btemp+1
  2690  01E9  087F               	movf	btemp+1,w
  2691  01EA  0485               	iorwf	5,f	;volatile
  2692  01EB  2A84               	goto	l80
  2693  01EC                     l1706:
  2694  01EC  3001               	movlw	1
  2695  01ED  00A7               	movwf	??_DIO_SetPinValue
  2696  01EE  0A25               	incf	DIO_SetPinValue@u8PinIdCopy,w
  2697  01EF  29F2               	goto	u1174
  2698  01F0                     u1175:
  2699  01F0  1003               	clrc
  2700  01F1  0DA7               	rlf	??_DIO_SetPinValue,f
  2701  01F2                     u1174:
  2702  01F2  3EFF               	addlw	-1
  2703  01F3  1D03               	skipz
  2704  01F4  29F0               	goto	u1175
  2705  01F5  0827               	movf	??_DIO_SetPinValue,w
  2706  01F6  00FF               	movwf	btemp+1
  2707  01F7  087F               	movf	btemp+1,w
  2708  01F8  0486               	iorwf	6,f	;volatile
  2709  01F9  2A84               	goto	l80
  2710  01FA                     l1708:
  2711  01FA  3001               	movlw	1
  2712  01FB  00A7               	movwf	??_DIO_SetPinValue
  2713  01FC  0A25               	incf	DIO_SetPinValue@u8PinIdCopy,w
  2714  01FD  2A00               	goto	u1184
  2715  01FE                     u1185:
  2716  01FE  1003               	clrc
  2717  01FF  0DA7               	rlf	??_DIO_SetPinValue,f
  2718  0200                     u1184:
  2719  0200  3EFF               	addlw	-1
  2720  0201  1D03               	skipz
  2721  0202  29FE               	goto	u1185
  2722  0203  0827               	movf	??_DIO_SetPinValue,w
  2723  0204  00FF               	movwf	btemp+1
  2724  0205  087F               	movf	btemp+1,w
  2725  0206  0487               	iorwf	7,f	;volatile
  2726  0207  2A84               	goto	l80
  2727  0208                     l1710:
  2728  0208  3001               	movlw	1
  2729  0209  00A7               	movwf	??_DIO_SetPinValue
  2730  020A  0A25               	incf	DIO_SetPinValue@u8PinIdCopy,w
  2731  020B  2A0E               	goto	u1194
  2732  020C                     u1195:
  2733  020C  1003               	clrc
  2734  020D  0DA7               	rlf	??_DIO_SetPinValue,f
  2735  020E                     u1194:
  2736  020E  3EFF               	addlw	-1
  2737  020F  1D03               	skipz
  2738  0210  2A0C               	goto	u1195
  2739  0211  0827               	movf	??_DIO_SetPinValue,w
  2740  0212  00FF               	movwf	btemp+1
  2741  0213  087F               	movf	btemp+1,w
  2742  0214  0488               	iorwf	8,f	;volatile
  2743  0215  2A84               	goto	l80
  2744  0216                     l1714:
  2745  0216  0829               	movf	DIO_SetPinValue@u8PortIdCopy,w
  2746  0217  00A7               	movwf	??_DIO_SetPinValue
  2747  0218  01A8               	clrf	??_DIO_SetPinValue+1
  2748                           
  2749                           ; Switch on 2 bytes has been partitioned into a top level switch of size 1, and 1 sub-sw
      +                          itches
  2750                           ; Switch size 1, requested type "simple"
  2751                           ; Number of cases is 1, Range of values is 0 to 0
  2752                           ; switch strategies available:
  2753                           ; Name         Instructions Cycles
  2754                           ; simple_byte            4     3 (average)
  2755                           ; direct_byte           11     8 (fixed)
  2756                           ; jumptable            260     6 (fixed)
  2757                           ;	Chosen strategy is simple_byte
  2758  0219  0828               	movf	??_DIO_SetPinValue+1,w
  2759  021A  3A00               	xorlw	0	; case 0
  2760  021B  1903               	skipnz
  2761  021C  2A1E               	goto	l2430
  2762  021D  2A84               	goto	l80
  2763  021E                     l2430:
  2764                           
  2765                           ; Switch size 1, requested type "simple"
  2766                           ; Number of cases is 4, Range of values is 0 to 3
  2767                           ; switch strategies available:
  2768                           ; Name         Instructions Cycles
  2769                           ; simple_byte           13     7 (average)
  2770                           ; direct_byte           20     8 (fixed)
  2771                           ; jumptable            260     6 (fixed)
  2772                           ;	Chosen strategy is simple_byte
  2773  021E  0827               	movf	??_DIO_SetPinValue,w
  2774  021F  3A00               	xorlw	0	; case 0
  2775  0220  1903               	skipnz
  2776  0221  29DE               	goto	l1704
  2777  0222  3A01               	xorlw	1	; case 1
  2778  0223  1903               	skipnz
  2779  0224  29EC               	goto	l1706
  2780  0225  3A03               	xorlw	3	; case 2
  2781  0226  1903               	skipnz
  2782  0227  29FA               	goto	l1708
  2783  0228  3A01               	xorlw	1	; case 3
  2784  0229  1903               	skipnz
  2785  022A  2A08               	goto	l1710
  2786  022B  2A84               	goto	l80
  2787  022C                     l1716:
  2788  022C  0826               	movf	DIO_SetPinValue@u8PinValCopy,w
  2789  022D  1D03               	btfss	3,2
  2790  022E  2A30               	goto	u1201
  2791  022F  2A31               	goto	u1200
  2792  0230                     u1201:
  2793  0230  2A84               	goto	l70
  2794  0231                     u1200:
  2795  0231  2A6E               	goto	l1730
  2796  0232                     l1720:
  2797  0232  3001               	movlw	1
  2798  0233  00A7               	movwf	??_DIO_SetPinValue
  2799  0234  0A25               	incf	DIO_SetPinValue@u8PinIdCopy,w
  2800  0235  2A38               	goto	u1214
  2801  0236                     u1215:
  2802  0236  1003               	clrc
  2803  0237  0DA7               	rlf	??_DIO_SetPinValue,f
  2804  0238                     u1214:
  2805  0238  3EFF               	addlw	-1
  2806  0239  1D03               	skipz
  2807  023A  2A36               	goto	u1215
  2808  023B  0827               	movf	??_DIO_SetPinValue,w
  2809  023C  3AFF               	xorlw	255
  2810  023D  00FF               	movwf	btemp+1
  2811  023E  087F               	movf	btemp+1,w
  2812  023F  0585               	andwf	5,f	;volatile
  2813  0240  2A84               	goto	l80
  2814  0241                     l1722:
  2815  0241  3001               	movlw	1
  2816  0242  00A7               	movwf	??_DIO_SetPinValue
  2817  0243  0A25               	incf	DIO_SetPinValue@u8PinIdCopy,w
  2818  0244  2A47               	goto	u1224
  2819  0245                     u1225:
  2820  0245  1003               	clrc
  2821  0246  0DA7               	rlf	??_DIO_SetPinValue,f
  2822  0247                     u1224:
  2823  0247  3EFF               	addlw	-1
  2824  0248  1D03               	skipz
  2825  0249  2A45               	goto	u1225
  2826  024A  0827               	movf	??_DIO_SetPinValue,w
  2827  024B  3AFF               	xorlw	255
  2828  024C  00FF               	movwf	btemp+1
  2829  024D  087F               	movf	btemp+1,w
  2830  024E  0586               	andwf	6,f	;volatile
  2831  024F  2A84               	goto	l80
  2832  0250                     l1724:
  2833  0250  3001               	movlw	1
  2834  0251  00A7               	movwf	??_DIO_SetPinValue
  2835  0252  0A25               	incf	DIO_SetPinValue@u8PinIdCopy,w
  2836  0253  2A56               	goto	u1234
  2837  0254                     u1235:
  2838  0254  1003               	clrc
  2839  0255  0DA7               	rlf	??_DIO_SetPinValue,f
  2840  0256                     u1234:
  2841  0256  3EFF               	addlw	-1
  2842  0257  1D03               	skipz
  2843  0258  2A54               	goto	u1235
  2844  0259  0827               	movf	??_DIO_SetPinValue,w
  2845  025A  3AFF               	xorlw	255
  2846  025B  00FF               	movwf	btemp+1
  2847  025C  087F               	movf	btemp+1,w
  2848  025D  0587               	andwf	7,f	;volatile
  2849  025E  2A84               	goto	l80
  2850  025F                     l1726:
  2851  025F  3001               	movlw	1
  2852  0260  00A7               	movwf	??_DIO_SetPinValue
  2853  0261  0A25               	incf	DIO_SetPinValue@u8PinIdCopy,w
  2854  0262  2A65               	goto	u1244
  2855  0263                     u1245:
  2856  0263  1003               	clrc
  2857  0264  0DA7               	rlf	??_DIO_SetPinValue,f
  2858  0265                     u1244:
  2859  0265  3EFF               	addlw	-1
  2860  0266  1D03               	skipz
  2861  0267  2A63               	goto	u1245
  2862  0268  0827               	movf	??_DIO_SetPinValue,w
  2863  0269  3AFF               	xorlw	255
  2864  026A  00FF               	movwf	btemp+1
  2865  026B  087F               	movf	btemp+1,w
  2866  026C  0588               	andwf	8,f	;volatile
  2867  026D  2A84               	goto	l80
  2868  026E                     l1730:
  2869  026E  0829               	movf	DIO_SetPinValue@u8PortIdCopy,w
  2870  026F  00A7               	movwf	??_DIO_SetPinValue
  2871  0270  01A8               	clrf	??_DIO_SetPinValue+1
  2872                           
  2873                           ; Switch on 2 bytes has been partitioned into a top level switch of size 1, and 1 sub-sw
      +                          itches
  2874                           ; Switch size 1, requested type "simple"
  2875                           ; Number of cases is 1, Range of values is 0 to 0
  2876                           ; switch strategies available:
  2877                           ; Name         Instructions Cycles
  2878                           ; simple_byte            4     3 (average)
  2879                           ; direct_byte           11     8 (fixed)
  2880                           ; jumptable            260     6 (fixed)
  2881                           ;	Chosen strategy is simple_byte
  2882  0271  0828               	movf	??_DIO_SetPinValue+1,w
  2883  0272  3A00               	xorlw	0	; case 0
  2884  0273  1903               	skipnz
  2885  0274  2A76               	goto	l2432
  2886  0275  2A84               	goto	l70
  2887  0276                     l2432:
  2888                           
  2889                           ; Switch size 1, requested type "simple"
  2890                           ; Number of cases is 4, Range of values is 0 to 3
  2891                           ; switch strategies available:
  2892                           ; Name         Instructions Cycles
  2893                           ; simple_byte           13     7 (average)
  2894                           ; direct_byte           20     8 (fixed)
  2895                           ; jumptable            260     6 (fixed)
  2896                           ;	Chosen strategy is simple_byte
  2897  0276  0827               	movf	??_DIO_SetPinValue,w
  2898  0277  3A00               	xorlw	0	; case 0
  2899  0278  1903               	skipnz
  2900  0279  2A32               	goto	l1720
  2901  027A  3A01               	xorlw	1	; case 1
  2902  027B  1903               	skipnz
  2903  027C  2A41               	goto	l1722
  2904  027D  3A03               	xorlw	3	; case 2
  2905  027E  1903               	skipnz
  2906  027F  2A50               	goto	l1724
  2907  0280  3A01               	xorlw	1	; case 3
  2908  0281  1903               	skipnz
  2909  0282  2A5F               	goto	l1726
  2910  0283  2A84               	goto	l70
  2911  0284                     l70:
  2912  0284                     l80:	
  2913                           ;DIO_Prog.c: 95:  }
  2914                           
  2915  0284  0008               	return
  2916  0285                     __end_of_DIO_SetPinValue:
  2917                           
  2918                           	psect	text19
  2919  06DD                     __ptext19:	
  2920 ;; *************** function _EXT_INT_Init *****************
  2921 ;; Defined at:
  2922 ;;		line 66 in file "EXT_INT_Prog.c"
  2923 ;; Parameters:    Size  Location     Type
  2924 ;;		None
  2925 ;; Auto vars:     Size  Location     Type
  2926 ;;		None
  2927 ;; Return value:  Size  Location     Type
  2928 ;;                  1    wreg      void 
  2929 ;; Registers used:
  2930 ;;		wreg, fsr0l, fsr0h, status,2, status,0, btemp+1, pclath, cstack
  2931 ;; Tracked objects:
  2932 ;;		On entry : 0/0
  2933 ;;		On exit  : 0/0
  2934 ;;		Unchanged: 0/0
  2935 ;; Data sizes:     COMMON   BANK0   BANK1   BANK3   BANK2
  2936 ;;      Params:         0       0       0       0       0
  2937 ;;      Locals:         0       0       0       0       0
  2938 ;;      Temps:          0       0       0       0       0
  2939 ;;      Totals:         0       0       0       0       0
  2940 ;;Total ram usage:        0 bytes
  2941 ;; Hardware stack levels used:    1
  2942 ;; Hardware stack levels required when called:    7
  2943 ;; This function calls:
  2944 ;;		_DIO_SetPinDirection
  2945 ;; This function is called by:
  2946 ;;		_main
  2947 ;; This function uses a non-reentrant model
  2948 ;;
  2949                           
  2950                           
  2951                           ;psect for function _EXT_INT_Init
  2952  06DD                     _EXT_INT_Init:
  2953  06DD                     l2064:	
  2954                           ;incstack = 0
  2955                           ; Regs used in _EXT_INT_Init: [wreg-fsr0h+status,2+status,0+btemp+1+pclath+cstack]
  2956                           
  2957                           
  2958                           ;EXT_INT_Prog.c: 68:     DIO_SetPinDirection ( 1 , 0 , 0 ) ;
  2959  06DD  1283               	bcf	3,5	;RP0=0, select bank0
  2960  06DE  1303               	bcf	3,6	;RP1=0, select bank0
  2961  06DF  01A5               	clrf	DIO_SetPinDirection@u8PinIdCopy
  2962  06E0  01A6               	clrf	DIO_SetPinDirection@u8PinDirCopy
  2963  06E1  3001               	movlw	1
  2964  06E2  120A  118A  2033  120A  118A  	fcall	_DIO_SetPinDirection
  2965                           
  2966                           ;EXT_INT_Prog.c: 69:     DIO_SetPinDirection ( 1 , 4 , 0 ) ;
  2967  06E7  3004               	movlw	4
  2968  06E8  00FF               	movwf	btemp+1
  2969  06E9  087F               	movf	btemp+1,w
  2970  06EA  1283               	bcf	3,5	;RP0=0, select bank0
  2971  06EB  1303               	bcf	3,6	;RP1=0, select bank0
  2972  06EC  00A5               	movwf	DIO_SetPinDirection@u8PinIdCopy
  2973  06ED  01A6               	clrf	DIO_SetPinDirection@u8PinDirCopy
  2974  06EE  3001               	movlw	1
  2975  06EF  120A  118A  2033  120A  118A  	fcall	_DIO_SetPinDirection
  2976                           
  2977                           ;EXT_INT_Prog.c: 70:     DIO_SetPinDirection ( 1 , 5 , 0 ) ;
  2978  06F4  3005               	movlw	5
  2979  06F5  00FF               	movwf	btemp+1
  2980  06F6  087F               	movf	btemp+1,w
  2981  06F7  1283               	bcf	3,5	;RP0=0, select bank0
  2982  06F8  1303               	bcf	3,6	;RP1=0, select bank0
  2983  06F9  00A5               	movwf	DIO_SetPinDirection@u8PinIdCopy
  2984  06FA  01A6               	clrf	DIO_SetPinDirection@u8PinDirCopy
  2985  06FB  3001               	movlw	1
  2986  06FC  120A  118A  2033  120A  118A  	fcall	_DIO_SetPinDirection
  2987  0701                     l2066:
  2988                           
  2989                           ;EXT_INT_Prog.c: 72:     ((*((volatile u8*)0x81))) &= ~(1 << (7)) ;
  2990  0701  307F               	movlw	127
  2991  0702  00FF               	movwf	btemp+1
  2992  0703  087F               	movf	btemp+1,w
  2993  0704  1683               	bsf	3,5	;RP0=1, select bank1
  2994  0705  1303               	bcf	3,6	;RP1=0, select bank1
  2995  0706  0581               	andwf	1,f	;volatile
  2996  0707                     l2068:
  2997                           
  2998                           ;EXT_INT_Prog.c: 74:     ((*((volatile u8*)0x81))) &= ~(1 << (6)) ;
  2999  0707  30BF               	movlw	191
  3000  0708  00FF               	movwf	btemp+1
  3001  0709  087F               	movf	btemp+1,w
  3002  070A  0581               	andwf	1,f	;volatile
  3003  070B                     l2070:
  3004                           
  3005                           ;EXT_INT_Prog.c: 75:     ((*((volatile u8*)0x0B))) |= (1 << (4)) ;
  3006  070B  160B               	bsf	11,4	;volatile
  3007  070C                     l2072:
  3008                           
  3009                           ;EXT_INT_Prog.c: 76:     ((*((volatile u8*)0x0B))) |= (1 << (3)) ;
  3010  070C  158B               	bsf	11,3	;volatile
  3011  070D                     l2074:
  3012                           
  3013                           ;EXT_INT_Prog.c: 77:     ((*((volatile u8*)0x0B))) |= (1 << (7)) ;
  3014  070D  178B               	bsf	11,7	;volatile
  3015  070E                     l133:
  3016  070E  0008               	return
  3017  070F                     __end_of_EXT_INT_Init:
  3018                           
  3019                           	psect	text20
  3020  0033                     __ptext20:	
  3021 ;; *************** function _DIO_SetPinDirection *****************
  3022 ;; Defined at:
  3023 ;;		line 17 in file "DIO_Prog.c"
  3024 ;; Parameters:    Size  Location     Type
  3025 ;;  u8PortIdCopy    1    wreg     unsigned char 
  3026 ;;  u8PinIdCopy     1    5[BANK0 ] unsigned char 
  3027 ;;  u8PinDirCopy    1    6[BANK0 ] unsigned char 
  3028 ;; Auto vars:     Size  Location     Type
  3029 ;;  u8PortIdCopy    1    9[BANK0 ] unsigned char 
  3030 ;; Return value:  Size  Location     Type
  3031 ;;                  1    wreg      void 
  3032 ;; Registers used:
  3033 ;;		wreg, fsr0l, fsr0h, status,2, status,0, btemp+1
  3034 ;; Tracked objects:
  3035 ;;		On entry : 0/0
  3036 ;;		On exit  : 0/0
  3037 ;;		Unchanged: 0/0
  3038 ;; Data sizes:     COMMON   BANK0   BANK1   BANK3   BANK2
  3039 ;;      Params:         0       2       0       0       0
  3040 ;;      Locals:         0       1       0       0       0
  3041 ;;      Temps:          0       2       0       0       0
  3042 ;;      Totals:         0       5       0       0       0
  3043 ;;Total ram usage:        5 bytes
  3044 ;; Hardware stack levels used:    1
  3045 ;; Hardware stack levels required when called:    6
  3046 ;; This function calls:
  3047 ;;		Nothing
  3048 ;; This function is called by:
  3049 ;;		_EXT_INT_Init
  3050 ;;		_vid_7_Segment_Init
  3051 ;; This function uses a non-reentrant model
  3052 ;;
  3053                           
  3054                           
  3055                           ;psect for function _DIO_SetPinDirection
  3056  0033                     _DIO_SetPinDirection:
  3057                           
  3058                           ;incstack = 0
  3059                           ; Regs used in _DIO_SetPinDirection: [wreg-fsr0h+status,2+status,0+btemp+1]
  3060                           ;DIO_SetPinDirection@u8PortIdCopy stored from wreg
  3061  0033  1283               	bcf	3,5	;RP0=0, select bank0
  3062  0034  1303               	bcf	3,6	;RP1=0, select bank0
  3063  0035  00A9               	movwf	DIO_SetPinDirection@u8PortIdCopy
  3064  0036                     l1954:
  3065                           
  3066                           ;DIO_Prog.c: 17: void DIO_SetPinDirection (u8 u8PortIdCopy, u8 u8PinIdCopy, u8 u8PinDirC
      +                          opy);DIO_Prog.c: 18: {;DIO_Prog.c: 20:  if ((u8PortIdCopy <= 3) && (u8PinIdCopy <= 7))
  3067  0036  3004               	movlw	4
  3068  0037  0229               	subwf	DIO_SetPinDirection@u8PortIdCopy,w
  3069  0038  1803               	skipnc
  3070  0039  283B               	goto	u1641
  3071  003A  283C               	goto	u1640
  3072  003B                     u1641:
  3073  003B  28FE               	goto	l59
  3074  003C                     u1640:
  3075  003C                     l1956:
  3076  003C  3008               	movlw	8
  3077  003D  0225               	subwf	DIO_SetPinDirection@u8PinIdCopy,w
  3078  003E  1803               	skipnc
  3079  003F  2841               	goto	u1651
  3080  0040  2842               	goto	u1650
  3081  0041                     u1651:
  3082  0041  28FE               	goto	l59
  3083  0042                     u1650:
  3084  0042                     l1958:
  3085                           
  3086                           ;DIO_Prog.c: 21:  {;DIO_Prog.c: 22:   if ( u8PinDirCopy == 1 )
  3087  0042  0326               	decf	DIO_SetPinDirection@u8PinDirCopy,w
  3088  0043  1D03               	btfss	3,2
  3089  0044  2846               	goto	u1661
  3090  0045  2847               	goto	u1660
  3091  0046                     u1661:
  3092  0046  28A2               	goto	l1974
  3093  0047                     u1660:
  3094  0047  288C               	goto	l1972
  3095  0048                     l1962:
  3096  0048  3001               	movlw	1
  3097  0049  00A7               	movwf	??_DIO_SetPinDirection
  3098  004A  0A25               	incf	DIO_SetPinDirection@u8PinIdCopy,w
  3099  004B  284E               	goto	u1674
  3100  004C                     u1675:
  3101  004C  1003               	clrc
  3102  004D  0DA7               	rlf	??_DIO_SetPinDirection,f
  3103  004E                     u1674:
  3104  004E  3EFF               	addlw	-1
  3105  004F  1D03               	skipz
  3106  0050  284C               	goto	u1675
  3107  0051  0827               	movf	??_DIO_SetPinDirection,w
  3108  0052  3AFF               	xorlw	255
  3109  0053  00FF               	movwf	btemp+1
  3110  0054  087F               	movf	btemp+1,w
  3111  0055  1683               	bsf	3,5	;RP0=1, select bank1
  3112  0056  1303               	bcf	3,6	;RP1=0, select bank1
  3113  0057  0585               	andwf	5,f	;volatile
  3114  0058  28FE               	goto	l59
  3115  0059                     l1964:
  3116  0059  3001               	movlw	1
  3117  005A  00A7               	movwf	??_DIO_SetPinDirection
  3118  005B  0A25               	incf	DIO_SetPinDirection@u8PinIdCopy,w
  3119  005C  285F               	goto	u1684
  3120  005D                     u1685:
  3121  005D  1003               	clrc
  3122  005E  0DA7               	rlf	??_DIO_SetPinDirection,f
  3123  005F                     u1684:
  3124  005F  3EFF               	addlw	-1
  3125  0060  1D03               	skipz
  3126  0061  285D               	goto	u1685
  3127  0062  0827               	movf	??_DIO_SetPinDirection,w
  3128  0063  3AFF               	xorlw	255
  3129  0064  00FF               	movwf	btemp+1
  3130  0065  087F               	movf	btemp+1,w
  3131  0066  1683               	bsf	3,5	;RP0=1, select bank1
  3132  0067  1303               	bcf	3,6	;RP1=0, select bank1
  3133  0068  0586               	andwf	6,f	;volatile
  3134  0069  28FE               	goto	l59
  3135  006A                     l1966:
  3136  006A  3001               	movlw	1
  3137  006B  00A7               	movwf	??_DIO_SetPinDirection
  3138  006C  0A25               	incf	DIO_SetPinDirection@u8PinIdCopy,w
  3139  006D  2870               	goto	u1694
  3140  006E                     u1695:
  3141  006E  1003               	clrc
  3142  006F  0DA7               	rlf	??_DIO_SetPinDirection,f
  3143  0070                     u1694:
  3144  0070  3EFF               	addlw	-1
  3145  0071  1D03               	skipz
  3146  0072  286E               	goto	u1695
  3147  0073  0827               	movf	??_DIO_SetPinDirection,w
  3148  0074  3AFF               	xorlw	255
  3149  0075  00FF               	movwf	btemp+1
  3150  0076  087F               	movf	btemp+1,w
  3151  0077  1683               	bsf	3,5	;RP0=1, select bank1
  3152  0078  1303               	bcf	3,6	;RP1=0, select bank1
  3153  0079  0587               	andwf	7,f	;volatile
  3154  007A  28FE               	goto	l59
  3155  007B                     l1968:
  3156  007B  3001               	movlw	1
  3157  007C  00A7               	movwf	??_DIO_SetPinDirection
  3158  007D  0A25               	incf	DIO_SetPinDirection@u8PinIdCopy,w
  3159  007E  2881               	goto	u1704
  3160  007F                     u1705:
  3161  007F  1003               	clrc
  3162  0080  0DA7               	rlf	??_DIO_SetPinDirection,f
  3163  0081                     u1704:
  3164  0081  3EFF               	addlw	-1
  3165  0082  1D03               	skipz
  3166  0083  287F               	goto	u1705
  3167  0084  0827               	movf	??_DIO_SetPinDirection,w
  3168  0085  3AFF               	xorlw	255
  3169  0086  00FF               	movwf	btemp+1
  3170  0087  087F               	movf	btemp+1,w
  3171  0088  1683               	bsf	3,5	;RP0=1, select bank1
  3172  0089  1303               	bcf	3,6	;RP1=0, select bank1
  3173  008A  0588               	andwf	8,f	;volatile
  3174  008B  28FE               	goto	l59
  3175  008C                     l1972:
  3176  008C  0829               	movf	DIO_SetPinDirection@u8PortIdCopy,w
  3177  008D  00A7               	movwf	??_DIO_SetPinDirection
  3178  008E  01A8               	clrf	??_DIO_SetPinDirection+1
  3179                           
  3180                           ; Switch on 2 bytes has been partitioned into a top level switch of size 1, and 1 sub-sw
      +                          itches
  3181                           ; Switch size 1, requested type "simple"
  3182                           ; Number of cases is 1, Range of values is 0 to 0
  3183                           ; switch strategies available:
  3184                           ; Name         Instructions Cycles
  3185                           ; simple_byte            4     3 (average)
  3186                           ; direct_byte           11     8 (fixed)
  3187                           ; jumptable            260     6 (fixed)
  3188                           ;	Chosen strategy is simple_byte
  3189  008F  0828               	movf	??_DIO_SetPinDirection+1,w
  3190  0090  3A00               	xorlw	0	; case 0
  3191  0091  1903               	skipnz
  3192  0092  2894               	goto	l2434
  3193  0093  28FE               	goto	l59
  3194  0094                     l2434:
  3195                           
  3196                           ; Switch size 1, requested type "simple"
  3197                           ; Number of cases is 4, Range of values is 0 to 3
  3198                           ; switch strategies available:
  3199                           ; Name         Instructions Cycles
  3200                           ; simple_byte           13     7 (average)
  3201                           ; direct_byte           20     8 (fixed)
  3202                           ; jumptable            260     6 (fixed)
  3203                           ;	Chosen strategy is simple_byte
  3204  0094  0827               	movf	??_DIO_SetPinDirection,w
  3205  0095  3A00               	xorlw	0	; case 0
  3206  0096  1903               	skipnz
  3207  0097  2848               	goto	l1962
  3208  0098  3A01               	xorlw	1	; case 1
  3209  0099  1903               	skipnz
  3210  009A  2859               	goto	l1964
  3211  009B  3A03               	xorlw	3	; case 2
  3212  009C  1903               	skipnz
  3213  009D  286A               	goto	l1966
  3214  009E  3A01               	xorlw	1	; case 3
  3215  009F  1903               	skipnz
  3216  00A0  287B               	goto	l1968
  3217  00A1  28FE               	goto	l59
  3218  00A2                     l1974:
  3219  00A2  0826               	movf	DIO_SetPinDirection@u8PinDirCopy,w
  3220  00A3  1D03               	btfss	3,2
  3221  00A4  28A6               	goto	u1711
  3222  00A5  28A7               	goto	u1710
  3223  00A6                     u1711:
  3224  00A6  28FE               	goto	l49
  3225  00A7                     u1710:
  3226  00A7  28E8               	goto	l1988
  3227  00A8                     l1978:
  3228  00A8  3001               	movlw	1
  3229  00A9  00A7               	movwf	??_DIO_SetPinDirection
  3230  00AA  0A25               	incf	DIO_SetPinDirection@u8PinIdCopy,w
  3231  00AB  28AE               	goto	u1724
  3232  00AC                     u1725:
  3233  00AC  1003               	clrc
  3234  00AD  0DA7               	rlf	??_DIO_SetPinDirection,f
  3235  00AE                     u1724:
  3236  00AE  3EFF               	addlw	-1
  3237  00AF  1D03               	skipz
  3238  00B0  28AC               	goto	u1725
  3239  00B1  0827               	movf	??_DIO_SetPinDirection,w
  3240  00B2  00FF               	movwf	btemp+1
  3241  00B3  087F               	movf	btemp+1,w
  3242  00B4  1683               	bsf	3,5	;RP0=1, select bank1
  3243  00B5  1303               	bcf	3,6	;RP1=0, select bank1
  3244  00B6  0485               	iorwf	5,f	;volatile
  3245  00B7  28FE               	goto	l59
  3246  00B8                     l1980:
  3247  00B8  3001               	movlw	1
  3248  00B9  00A7               	movwf	??_DIO_SetPinDirection
  3249  00BA  0A25               	incf	DIO_SetPinDirection@u8PinIdCopy,w
  3250  00BB  28BE               	goto	u1734
  3251  00BC                     u1735:
  3252  00BC  1003               	clrc
  3253  00BD  0DA7               	rlf	??_DIO_SetPinDirection,f
  3254  00BE                     u1734:
  3255  00BE  3EFF               	addlw	-1
  3256  00BF  1D03               	skipz
  3257  00C0  28BC               	goto	u1735
  3258  00C1  0827               	movf	??_DIO_SetPinDirection,w
  3259  00C2  00FF               	movwf	btemp+1
  3260  00C3  087F               	movf	btemp+1,w
  3261  00C4  1683               	bsf	3,5	;RP0=1, select bank1
  3262  00C5  1303               	bcf	3,6	;RP1=0, select bank1
  3263  00C6  0486               	iorwf	6,f	;volatile
  3264  00C7  28FE               	goto	l59
  3265  00C8                     l1982:
  3266  00C8  3001               	movlw	1
  3267  00C9  00A7               	movwf	??_DIO_SetPinDirection
  3268  00CA  0A25               	incf	DIO_SetPinDirection@u8PinIdCopy,w
  3269  00CB  28CE               	goto	u1744
  3270  00CC                     u1745:
  3271  00CC  1003               	clrc
  3272  00CD  0DA7               	rlf	??_DIO_SetPinDirection,f
  3273  00CE                     u1744:
  3274  00CE  3EFF               	addlw	-1
  3275  00CF  1D03               	skipz
  3276  00D0  28CC               	goto	u1745
  3277  00D1  0827               	movf	??_DIO_SetPinDirection,w
  3278  00D2  00FF               	movwf	btemp+1
  3279  00D3  087F               	movf	btemp+1,w
  3280  00D4  1683               	bsf	3,5	;RP0=1, select bank1
  3281  00D5  1303               	bcf	3,6	;RP1=0, select bank1
  3282  00D6  0487               	iorwf	7,f	;volatile
  3283  00D7  28FE               	goto	l59
  3284  00D8                     l1984:
  3285  00D8  3001               	movlw	1
  3286  00D9  00A7               	movwf	??_DIO_SetPinDirection
  3287  00DA  0A25               	incf	DIO_SetPinDirection@u8PinIdCopy,w
  3288  00DB  28DE               	goto	u1754
  3289  00DC                     u1755:
  3290  00DC  1003               	clrc
  3291  00DD  0DA7               	rlf	??_DIO_SetPinDirection,f
  3292  00DE                     u1754:
  3293  00DE  3EFF               	addlw	-1
  3294  00DF  1D03               	skipz
  3295  00E0  28DC               	goto	u1755
  3296  00E1  0827               	movf	??_DIO_SetPinDirection,w
  3297  00E2  00FF               	movwf	btemp+1
  3298  00E3  087F               	movf	btemp+1,w
  3299  00E4  1683               	bsf	3,5	;RP0=1, select bank1
  3300  00E5  1303               	bcf	3,6	;RP1=0, select bank1
  3301  00E6  0488               	iorwf	8,f	;volatile
  3302  00E7  28FE               	goto	l59
  3303  00E8                     l1988:
  3304  00E8  0829               	movf	DIO_SetPinDirection@u8PortIdCopy,w
  3305  00E9  00A7               	movwf	??_DIO_SetPinDirection
  3306  00EA  01A8               	clrf	??_DIO_SetPinDirection+1
  3307                           
  3308                           ; Switch on 2 bytes has been partitioned into a top level switch of size 1, and 1 sub-sw
      +                          itches
  3309                           ; Switch size 1, requested type "simple"
  3310                           ; Number of cases is 1, Range of values is 0 to 0
  3311                           ; switch strategies available:
  3312                           ; Name         Instructions Cycles
  3313                           ; simple_byte            4     3 (average)
  3314                           ; direct_byte           11     8 (fixed)
  3315                           ; jumptable            260     6 (fixed)
  3316                           ;	Chosen strategy is simple_byte
  3317  00EB  0828               	movf	??_DIO_SetPinDirection+1,w
  3318  00EC  3A00               	xorlw	0	; case 0
  3319  00ED  1903               	skipnz
  3320  00EE  28F0               	goto	l2436
  3321  00EF  28FE               	goto	l49
  3322  00F0                     l2436:
  3323                           
  3324                           ; Switch size 1, requested type "simple"
  3325                           ; Number of cases is 4, Range of values is 0 to 3
  3326                           ; switch strategies available:
  3327                           ; Name         Instructions Cycles
  3328                           ; simple_byte           13     7 (average)
  3329                           ; direct_byte           20     8 (fixed)
  3330                           ; jumptable            260     6 (fixed)
  3331                           ;	Chosen strategy is simple_byte
  3332  00F0  0827               	movf	??_DIO_SetPinDirection,w
  3333  00F1  3A00               	xorlw	0	; case 0
  3334  00F2  1903               	skipnz
  3335  00F3  28A8               	goto	l1978
  3336  00F4  3A01               	xorlw	1	; case 1
  3337  00F5  1903               	skipnz
  3338  00F6  28B8               	goto	l1980
  3339  00F7  3A03               	xorlw	3	; case 2
  3340  00F8  1903               	skipnz
  3341  00F9  28C8               	goto	l1982
  3342  00FA  3A01               	xorlw	1	; case 3
  3343  00FB  1903               	skipnz
  3344  00FC  28D8               	goto	l1984
  3345  00FD  28FE               	goto	l49
  3346  00FE                     l49:
  3347  00FE                     l59:	
  3348                           ;DIO_Prog.c: 50:  }
  3349                           
  3350  00FE  0008               	return
  3351  00FF                     __end_of_DIO_SetPinDirection:
  3352                           
  3353                           	psect	text21
  3354  0500                     __ptext21:	
  3355 ;; *************** function _ISR *****************
  3356 ;; Defined at:
  3357 ;;		line 82 in file "EXT_INT_Prog.c"
  3358 ;; Parameters:    Size  Location     Type
  3359 ;;		None
  3360 ;; Auto vars:     Size  Location     Type
  3361 ;;		None
  3362 ;; Return value:  Size  Location     Type
  3363 ;;                  1    wreg      void 
  3364 ;; Registers used:
  3365 ;;		wreg, fsr0l, fsr0h, status,2, status,0, btemp+1, pclath, cstack
  3366 ;; Tracked objects:
  3367 ;;		On entry : 0/0
  3368 ;;		On exit  : 0/0
  3369 ;;		Unchanged: 0/0
  3370 ;; Data sizes:     COMMON   BANK0   BANK1   BANK3   BANK2
  3371 ;;      Params:         0       0       0       0       0
  3372 ;;      Locals:         0       0       0       0       0
  3373 ;;      Temps:          0       5       0       0       0
  3374 ;;      Totals:         0       5       0       0       0
  3375 ;;Total ram usage:        5 bytes
  3376 ;; Hardware stack levels used:    1
  3377 ;; Hardware stack levels required when called:    5
  3378 ;; This function calls:
  3379 ;;		Absolute function
  3380 ;;		_DIO_GetPinValue
  3381 ;;		_RB0_Handler
  3382 ;;		_RB4_Handler
  3383 ;;		_RB5_Handler
  3384 ;; This function is called by:
  3385 ;;		Interrupt level 1
  3386 ;; This function uses a non-reentrant model
  3387 ;;
  3388                           
  3389                           
  3390                           ;psect for function _ISR
  3391  0500                     _ISR:
  3392  0500                     i1l2190:
  3393                           
  3394                           ;EXT_INT_Prog.c: 85:     if (((((*((volatile u8*)0x0B))) >> (1)) & 0x01))
  3395  0500  080B               	movf	11,w	;volatile
  3396  0501  00A0               	movwf	??_ISR
  3397  0502  3001               	movlw	1
  3398  0503                     u196_25:
  3399  0503  1003               	clrc
  3400  0504  0CA0               	rrf	??_ISR,f
  3401  0505  3EFF               	addlw	-1
  3402  0506  1D03               	skipz
  3403  0507  2D03               	goto	u196_25
  3404  0508  1C20               	btfss	??_ISR,0
  3405  0509  2D0B               	goto	u197_21
  3406  050A  2D0C               	goto	u197_20
  3407  050B                     u197_21:
  3408  050B  2D17               	goto	i1l138
  3409  050C                     u197_20:
  3410  050C                     i1l2192:
  3411                           
  3412                           ;EXT_INT_Prog.c: 86:     {;EXT_INT_Prog.c: 87:        GptrToFun_RB0();
  3413  050C  0839               	movf	_GptrToFun_RB0,w
  3414  050D  120A  118A  2024  120A  118A  	fcall	i1fptable
  3415  0512                     i1l2194:
  3416                           
  3417                           ;EXT_INT_Prog.c: 88:        ((*((volatile u8*)0x0B))) &= ~(1 << (1)) ;
  3418  0512  30FD               	movlw	253
  3419  0513  00FF               	movwf	btemp+1
  3420  0514  087F               	movf	btemp+1,w
  3421  0515  058B               	andwf	11,f	;volatile
  3422                           
  3423                           ;EXT_INT_Prog.c: 90:     }
  3424  0516  2D4E               	goto	i1l146
  3425  0517                     i1l138:	
  3426                           ;EXT_INT_Prog.c: 91:     else if ( ((((*((volatile u8*)0x0B))) >> (0)) & 0x01) )
  3427                           
  3428  0517  1C0B               	btfss	11,0	;volatile
  3429  0518  2D1A               	goto	u198_21
  3430  0519  2D1B               	goto	u198_20
  3431  051A                     u198_21:
  3432  051A  2D4E               	goto	i1l146
  3433  051B                     u198_20:
  3434  051B                     i1l2196:
  3435                           
  3436                           ;EXT_INT_Prog.c: 92:     {;EXT_INT_Prog.c: 94:         if ( ! DIO_GetPinValue(1,4) )
  3437  051B  3004               	movlw	4
  3438  051C  00FF               	movwf	btemp+1
  3439  051D  087F               	movf	btemp+1,w
  3440  051E  00F0               	movwf	DIO_GetPinValue@u8PinIdCopy
  3441  051F  3001               	movlw	1
  3442  0520  120A  118A  22FE  120A  118A  	fcall	_DIO_GetPinValue
  3443  0525  3A00               	xorlw	0
  3444  0526  1D03               	skipz
  3445  0527  2D29               	goto	u199_21
  3446  0528  2D2A               	goto	u199_20
  3447  0529                     u199_21:
  3448  0529  2D33               	goto	i1l2200
  3449  052A                     u199_20:
  3450  052A                     i1l2198:
  3451                           
  3452                           ;EXT_INT_Prog.c: 95:         {;EXT_INT_Prog.c: 96:             GptrToFun_RB4() ;
  3453  052A  1283               	bcf	3,5	;RP0=0, select bank0
  3454  052B  1303               	bcf	3,6	;RP1=0, select bank0
  3455  052C  0838               	movf	_GptrToFun_RB4,w
  3456  052D  120A  118A  2024  120A  118A  	fcall	i1fptable
  3457                           
  3458                           ;EXT_INT_Prog.c: 97:         }
  3459  0532  2D4A               	goto	i1l2204
  3460  0533                     i1l2200:
  3461  0533  3005               	movlw	5
  3462  0534  00FF               	movwf	btemp+1
  3463  0535  087F               	movf	btemp+1,w
  3464  0536  00F0               	movwf	DIO_GetPinValue@u8PinIdCopy
  3465  0537  3001               	movlw	1
  3466  0538  120A  118A  22FE  120A  118A  	fcall	_DIO_GetPinValue
  3467  053D  3A00               	xorlw	0
  3468  053E  1D03               	skipz
  3469  053F  2D41               	goto	u200_21
  3470  0540  2D42               	goto	u200_20
  3471  0541                     u200_21:
  3472  0541  2D4A               	goto	i1l2204
  3473  0542                     u200_20:
  3474  0542                     i1l2202:
  3475                           
  3476                           ;EXT_INT_Prog.c: 100:         {;EXT_INT_Prog.c: 101:             GptrToFun_RB5() ;
  3477  0542  1283               	bcf	3,5	;RP0=0, select bank0
  3478  0543  1303               	bcf	3,6	;RP1=0, select bank0
  3479  0544  0837               	movf	_GptrToFun_RB5,w
  3480  0545  120A  118A  2024  120A  118A  	fcall	i1fptable
  3481  054A                     i1l2204:	
  3482                           ;EXT_INT_Prog.c: 103:         }
  3483                           
  3484                           
  3485                           ;EXT_INT_Prog.c: 108:         ((*((volatile u8*)0x0B))) &= ~(1 << (0)) ;
  3486  054A  30FE               	movlw	254
  3487  054B  00FF               	movwf	btemp+1
  3488  054C  087F               	movf	btemp+1,w
  3489  054D  058B               	andwf	11,f	;volatile
  3490  054E                     i1l146:	
  3491                           ;EXT_INT_Prog.c: 110:     }
  3492                           
  3493  054E  1283               	bcf	3,5	;RP0=0, select bank0
  3494  054F  1303               	bcf	3,6	;RP1=0, select bank0
  3495  0550  0824               	movf	??_ISR+4,w
  3496  0551  00FF               	movwf	btemp+1
  3497  0552  0823               	movf	??_ISR+3,w
  3498  0553  008A               	movwf	10
  3499  0554  0822               	movf	??_ISR+2,w
  3500  0555  0084               	movwf	4
  3501  0556  0E21               	swapf	(??_ISR+1)^0,w
  3502  0557  0083               	movwf	3
  3503  0558  0EFE               	swapf	btemp,f
  3504  0559  0E7E               	swapf	btemp,w
  3505  055A  0009               	retfie
  3506  055B                     __end_of_ISR:
  3507                           
  3508                           	psect	intentry
  3509  0004                     __pintentry:	
  3510                           ;incstack = 0
  3511 ;; hardware stack exceeded
  3512                           ; Regs used in _ISR: [wreg-fsr0h+status,2+status,0+btemp+1+pclath+cstack]
  3513                           
  3514  0004                     interrupt_function:
  3515  007E                     saved_w	set	btemp
  3516  0004  00FE               	movwf	btemp
  3517  0005  0E03               	swapf	3,w
  3518  0006  1283               	bcf	3,5	;RP0=0, select bank0
  3519  0007  1303               	bcf	3,6	;RP1=0, select bank0
  3520  0008  00A1               	movwf	??_ISR+1
  3521  0009  0804               	movf	4,w
  3522  000A  00A2               	movwf	??_ISR+2
  3523  000B  080A               	movf	10,w
  3524  000C  00A3               	movwf	??_ISR+3
  3525  000D  087F               	movf	btemp+1,w
  3526  000E  00A4               	movwf	??_ISR+4
  3527  000F  120A  118A  2D00   	ljmp	_ISR
  3528                           
  3529                           	psect	text22
  3530  0FAD                     __ptext22:	
  3531 ;; *************** function _RB5_Handler *****************
  3532 ;; Defined at:
  3533 ;;		line 158 in file "APP_Program.c"
  3534 ;; Parameters:    Size  Location     Type
  3535 ;;		None
  3536 ;; Auto vars:     Size  Location     Type
  3537 ;;		None
  3538 ;; Return value:  Size  Location     Type
  3539 ;;                  1    wreg      void 
  3540 ;; Registers used:
  3541 ;;		wreg, status,2, status,0
  3542 ;; Tracked objects:
  3543 ;;		On entry : 0/0
  3544 ;;		On exit  : 0/0
  3545 ;;		Unchanged: 0/0
  3546 ;; Data sizes:     COMMON   BANK0   BANK1   BANK3   BANK2
  3547 ;;      Params:         0       0       0       0       0
  3548 ;;      Locals:         0       0       0       0       0
  3549 ;;      Temps:          0       0       0       0       0
  3550 ;;      Totals:         0       0       0       0       0
  3551 ;;Total ram usage:        0 bytes
  3552 ;; Hardware stack levels used:    1
  3553 ;; This function calls:
  3554 ;;		Nothing
  3555 ;; This function is called by:
  3556 ;;		_SetCallBacks
  3557 ;;		_ISR
  3558 ;; This function uses a non-reentrant model
  3559 ;;
  3560                           
  3561                           
  3562                           ;psect for function _RB5_Handler
  3563  0FAD                     _RB5_Handler:
  3564  0FAD                     i1l2160:	
  3565                           ;incstack = 0
  3566                           ; Regs used in _RB5_Handler: [wreg+status,2+status,0]
  3567                           
  3568                           
  3569                           ;APP_Program.c: 160:     if (Set_Temp_Flag == 0)
  3570  0FAD  1283               	bcf	3,5	;RP0=0, select bank0
  3571  0FAE  1303               	bcf	3,6	;RP1=0, select bank0
  3572  0FAF  083B               	movf	_Set_Temp_Flag,w
  3573  0FB0  1D03               	btfss	3,2
  3574  0FB1  2FB3               	goto	u191_21
  3575  0FB2  2FB4               	goto	u191_20
  3576  0FB3                     u191_21:
  3577  0FB3  2FB7               	goto	i1l2164
  3578  0FB4                     u191_20:
  3579  0FB4                     i1l2162:
  3580                           
  3581                           ;APP_Program.c: 161:             {;APP_Program.c: 162:                 Set_Temp_Flag = 1
      +                           ;
  3582  0FB4  01BB               	clrf	_Set_Temp_Flag
  3583  0FB5  0ABB               	incf	_Set_Temp_Flag,f
  3584                           
  3585                           ;APP_Program.c: 163:             }
  3586  0FB6  2FC7               	goto	i1l250
  3587  0FB7                     i1l2164:
  3588                           
  3589                           ;APP_Program.c: 165:             {;APP_Program.c: 166:                 if (ON_OFF_Status
      +                           == 1)
  3590  0FB7  033E               	decf	_ON_OFF_Status,w
  3591  0FB8  1D03               	btfss	3,2
  3592  0FB9  2FBB               	goto	u192_21
  3593  0FBA  2FBC               	goto	u192_20
  3594  0FBB                     u192_21:
  3595  0FBB  2FC7               	goto	i1l250
  3596  0FBC                     u192_20:
  3597  0FBC                     i1l2166:
  3598                           
  3599                           ;APP_Program.c: 167:                 {;APP_Program.c: 168:                 if (u8_Temp >
      +                           35 )
  3600  0FBC  3024               	movlw	36
  3601  0FBD  023F               	subwf	_u8_Temp,w
  3602  0FBE  1C03               	skipc
  3603  0FBF  2FC1               	goto	u193_21
  3604  0FC0  2FC2               	goto	u193_20
  3605  0FC1                     u193_21:
  3606  0FC1  2FC7               	goto	i1l249
  3607  0FC2                     u193_20:
  3608  0FC2                     i1l2168:
  3609                           
  3610                           ;APP_Program.c: 169:                 {;APP_Program.c: 170:                    u8_Temp -=
      +                           5 ;
  3611  0FC2  3005               	movlw	5
  3612  0FC3  02BF               	subwf	_u8_Temp,f
  3613  0FC4                     i1l2170:
  3614                           
  3615                           ;APP_Program.c: 171:                    TempChange_Status = 1 ;
  3616  0FC4  01BA               	clrf	_TempChange_Status
  3617  0FC5  0ABA               	incf	_TempChange_Status,f
  3618                           
  3619                           ;APP_Program.c: 173:                 }
  3620  0FC6  2FC7               	goto	i1l250
  3621  0FC7                     i1l249:	
  3622                           ;APP_Program.c: 180:                 {;APP_Program.c: 182:                 }
  3623                           
  3624  0FC7                     i1l250:
  3625  0FC7  0008               	return
  3626  0FC8                     __end_of_RB5_Handler:
  3627                           
  3628                           	psect	text23
  3629  0FE3                     __ptext23:	
  3630 ;; *************** function _RB4_Handler *****************
  3631 ;; Defined at:
  3632 ;;		line 129 in file "APP_Program.c"
  3633 ;; Parameters:    Size  Location     Type
  3634 ;;		None
  3635 ;; Auto vars:     Size  Location     Type
  3636 ;;		None
  3637 ;; Return value:  Size  Location     Type
  3638 ;;                  1    wreg      void 
  3639 ;; Registers used:
  3640 ;;		wreg, status,2, status,0, btemp+1
  3641 ;; Tracked objects:
  3642 ;;		On entry : 0/0
  3643 ;;		On exit  : 0/0
  3644 ;;		Unchanged: 0/0
  3645 ;; Data sizes:     COMMON   BANK0   BANK1   BANK3   BANK2
  3646 ;;      Params:         0       0       0       0       0
  3647 ;;      Locals:         0       0       0       0       0
  3648 ;;      Temps:          0       0       0       0       0
  3649 ;;      Totals:         0       0       0       0       0
  3650 ;;Total ram usage:        0 bytes
  3651 ;; Hardware stack levels used:    1
  3652 ;; This function calls:
  3653 ;;		Nothing
  3654 ;; This function is called by:
  3655 ;;		_SetCallBacks
  3656 ;;		_ISR
  3657 ;; This function uses a non-reentrant model
  3658 ;;
  3659                           
  3660                           
  3661                           ;psect for function _RB4_Handler
  3662  0FE3                     _RB4_Handler:
  3663  0FE3                     i1l2148:	
  3664                           ;incstack = 0
  3665                           ; Regs used in _RB4_Handler: [wreg+status,2+status,0+btemp+1]
  3666                           
  3667                           
  3668                           ;APP_Program.c: 132:             if (Set_Temp_Flag == 0)
  3669  0FE3  1283               	bcf	3,5	;RP0=0, select bank0
  3670  0FE4  1303               	bcf	3,6	;RP1=0, select bank0
  3671  0FE5  083B               	movf	_Set_Temp_Flag,w
  3672  0FE6  1D03               	btfss	3,2
  3673  0FE7  2FE9               	goto	u188_21
  3674  0FE8  2FEA               	goto	u188_20
  3675  0FE9                     u188_21:
  3676  0FE9  2FED               	goto	i1l2152
  3677  0FEA                     u188_20:
  3678  0FEA                     i1l2150:
  3679                           
  3680                           ;APP_Program.c: 133:             {;APP_Program.c: 134:                 Set_Temp_Flag = 1
      +                           ;
  3681  0FEA  01BB               	clrf	_Set_Temp_Flag
  3682  0FEB  0ABB               	incf	_Set_Temp_Flag,f
  3683                           
  3684                           ;APP_Program.c: 135:             }
  3685  0FEC  2FFF               	goto	i1l241
  3686  0FED                     i1l2152:
  3687                           
  3688                           ;APP_Program.c: 137:             {;APP_Program.c: 138:                 if (ON_OFF_Status
      +                           == 1)
  3689  0FED  033E               	decf	_ON_OFF_Status,w
  3690  0FEE  1D03               	btfss	3,2
  3691  0FEF  2FF1               	goto	u189_21
  3692  0FF0  2FF2               	goto	u189_20
  3693  0FF1                     u189_21:
  3694  0FF1  2FFF               	goto	i1l241
  3695  0FF2                     u189_20:
  3696  0FF2                     i1l2154:
  3697                           
  3698                           ;APP_Program.c: 139:                 {;APP_Program.c: 140:                 if ( u8_Temp 
      +                          <75 )
  3699  0FF2  304B               	movlw	75
  3700  0FF3  023F               	subwf	_u8_Temp,w
  3701  0FF4  1803               	skipnc
  3702  0FF5  2FF7               	goto	u190_21
  3703  0FF6  2FF8               	goto	u190_20
  3704  0FF7                     u190_21:
  3705  0FF7  2FFF               	goto	i1l240
  3706  0FF8                     u190_20:
  3707  0FF8                     i1l2156:
  3708                           
  3709                           ;APP_Program.c: 141:                 {;APP_Program.c: 142:                     u8_Temp +
      +                          = 5 ;
  3710  0FF8  3005               	movlw	5
  3711  0FF9  00FF               	movwf	btemp+1
  3712  0FFA  087F               	movf	btemp+1,w
  3713  0FFB  07BF               	addwf	_u8_Temp,f
  3714  0FFC                     i1l2158:
  3715                           
  3716                           ;APP_Program.c: 143:                     TempChange_Status = 1 ;
  3717  0FFC  01BA               	clrf	_TempChange_Status
  3718  0FFD  0ABA               	incf	_TempChange_Status,f
  3719                           
  3720                           ;APP_Program.c: 144:                 }
  3721  0FFE  2FFF               	goto	i1l241
  3722  0FFF                     i1l240:	
  3723                           ;APP_Program.c: 151:                 {;APP_Program.c: 153:                 }
  3724                           
  3725  0FFF                     i1l241:
  3726  0FFF  0008               	return
  3727  1000                     __end_of_RB4_Handler:
  3728                           
  3729                           	psect	text24
  3730  0F70                     __ptext24:	
  3731 ;; *************** function _RB0_Handler *****************
  3732 ;; Defined at:
  3733 ;;		line 117 in file "APP_Program.c"
  3734 ;; Parameters:    Size  Location     Type
  3735 ;;		None
  3736 ;; Auto vars:     Size  Location     Type
  3737 ;;		None
  3738 ;; Return value:  Size  Location     Type
  3739 ;;                  1    wreg      void 
  3740 ;; Registers used:
  3741 ;;		wreg, fsr0l, fsr0h, status,2, status,0, btemp+1, pclath, cstack
  3742 ;; Tracked objects:
  3743 ;;		On entry : 0/0
  3744 ;;		On exit  : 0/0
  3745 ;;		Unchanged: 0/0
  3746 ;; Data sizes:     COMMON   BANK0   BANK1   BANK3   BANK2
  3747 ;;      Params:         0       0       0       0       0
  3748 ;;      Locals:         0       0       0       0       0
  3749 ;;      Temps:          0       0       0       0       0
  3750 ;;      Totals:         0       0       0       0       0
  3751 ;;Total ram usage:        0 bytes
  3752 ;; Hardware stack levels used:    1
  3753 ;; Hardware stack levels required when called:    4
  3754 ;; This function calls:
  3755 ;;		i1_OFF_Mode
  3756 ;;		i1_ON_Mode
  3757 ;; This function is called by:
  3758 ;;		_SetCallBacks
  3759 ;;		_ISR
  3760 ;; This function uses a non-reentrant model
  3761 ;;
  3762                           
  3763                           
  3764                           ;psect for function _RB0_Handler
  3765  0F70                     _RB0_Handler:
  3766  0F70                     i1l2142:	
  3767                           ;incstack = 0
  3768 ;; hardware stack exceeded
  3769                           ; Regs used in _RB0_Handler: [wreg-fsr0h+status,2+status,0+btemp+1+pclath+cstack]
  3770                           
  3771                           
  3772                           ;APP_Program.c: 119:     if ( ON_OFF_Status == 1 )
  3773  0F70  1283               	bcf	3,5	;RP0=0, select bank0
  3774  0F71  1303               	bcf	3,6	;RP1=0, select bank0
  3775  0F72  033E               	decf	_ON_OFF_Status,w
  3776  0F73  1D03               	btfss	3,2
  3777  0F74  2F76               	goto	u187_21
  3778  0F75  2F77               	goto	u187_20
  3779  0F76                     u187_21:
  3780  0F76  2F7D               	goto	i1l2146
  3781  0F77                     u187_20:
  3782  0F77                     i1l2144:
  3783                           
  3784                           ;APP_Program.c: 120:     {;APP_Program.c: 121:         OFF_Mode();
  3785  0F77  120A  158A  2748  120A  158A  	fcall	i1_OFF_Mode
  3786                           
  3787                           ;APP_Program.c: 122:     }
  3788  0F7C  2F82               	goto	i1l232
  3789  0F7D                     i1l2146:
  3790                           
  3791                           ;APP_Program.c: 124:     {;APP_Program.c: 125:        ON_Mode();
  3792  0F7D  120A  158A  275A  120A  158A  	fcall	i1_ON_Mode
  3793  0F82                     i1l232:
  3794  0F82  0008               	return
  3795  0F83                     __end_of_RB0_Handler:
  3796                           
  3797                           	psect	text25
  3798  0F5A                     __ptext25:	
  3799 ;; *************** function i1_ON_Mode *****************
  3800 ;; Defined at:
  3801 ;;		line 56 in file "APP_Program.c"
  3802 ;; Parameters:    Size  Location     Type
  3803 ;;		None
  3804 ;; Auto vars:     Size  Location     Type
  3805 ;;		None
  3806 ;; Return value:  Size  Location     Type
  3807 ;;                  1    wreg      void 
  3808 ;; Registers used:
  3809 ;;		wreg, fsr0l, fsr0h, status,2, status,0, btemp+1, pclath, cstack
  3810 ;; Tracked objects:
  3811 ;;		On entry : 0/0
  3812 ;;		On exit  : 0/0
  3813 ;;		Unchanged: 0/0
  3814 ;; Data sizes:     COMMON   BANK0   BANK1   BANK3   BANK2
  3815 ;;      Params:         0       0       0       0       0
  3816 ;;      Locals:         0       0       0       0       0
  3817 ;;      Temps:          0       0       0       0       0
  3818 ;;      Totals:         0       0       0       0       0
  3819 ;;Total ram usage:        0 bytes
  3820 ;; Hardware stack levels used:    1
  3821 ;; Hardware stack levels required when called:    3
  3822 ;; This function calls:
  3823 ;;		i1_vid_7_Segment_Display_2Digits
  3824 ;; This function is called by:
  3825 ;;		_RB0_Handler
  3826 ;; This function uses a non-reentrant model
  3827 ;;
  3828                           
  3829                           
  3830                           ;psect for function i1_ON_Mode
  3831  0F5A                     i1_ON_Mode:
  3832  0F5A                     i1l2046:	
  3833                           ;incstack = 0
  3834 ;; hardware stack exceeded
  3835                           ; Regs used in i1_ON_Mode: [wreg-fsr0h+status,2+status,0+btemp+1+pclath+cstack]
  3836                           
  3837                           
  3838                           ;APP_Program.c: 58:     ON_OFF_Status = 1 ;
  3839  0F5A  1283               	bcf	3,5	;RP0=0, select bank0
  3840  0F5B  1303               	bcf	3,6	;RP1=0, select bank0
  3841  0F5C  01BE               	clrf	_ON_OFF_Status
  3842  0F5D  0ABE               	incf	_ON_OFF_Status,f
  3843  0F5E                     i1l2048:
  3844                           
  3845                           ;APP_Program.c: 60:     vid_7_Segment_Display_2Digits(u8_Temp) ;
  3846  0F5E  083F               	movf	_u8_Temp,w
  3847  0F5F  120A  118A  23D5  120A  158A  	fcall	i1_vid_7_Segment_Display_2Digits
  3848  0F64                     i1l214:
  3849  0F64  0008               	return
  3850  0F65                     __end_ofi1_ON_Mode:
  3851                           
  3852                           	psect	text26
  3853  03D5                     __ptext26:	
  3854 ;; *************** function i1_vid_7_Segment_Display_2Digits *****************
  3855 ;; Defined at:
  3856 ;;		line 71 in file "7_Segment_prog.c"
  3857 ;; Parameters:    Size  Location     Type
  3858 ;;  u8_Num          1    wreg     unsigned char 
  3859 ;; Auto vars:     Size  Location     Type
  3860 ;;  u8_Num          1   12[COMMON] unsigned char 
  3861 ;;  Stability       1   13[COMMON] unsigned char 
  3862 ;;  Tens            1   11[COMMON] unsigned char 
  3863 ;;  Ones            1   10[COMMON] unsigned char 
  3864 ;; Return value:  Size  Location     Type
  3865 ;;                  1    wreg      void 
  3866 ;; Registers used:
  3867 ;;		wreg, fsr0l, fsr0h, status,2, status,0, btemp+1, pclath, cstack
  3868 ;; Tracked objects:
  3869 ;;		On entry : 0/0
  3870 ;;		On exit  : 0/0
  3871 ;;		Unchanged: 0/0
  3872 ;; Data sizes:     COMMON   BANK0   BANK1   BANK3   BANK2
  3873 ;;      Params:         0       0       0       0       0
  3874 ;;      Locals:         4       0       0       0       0
  3875 ;;      Temps:          2       0       0       0       0
  3876 ;;      Totals:         6       0       0       0       0
  3877 ;;Total ram usage:        6 bytes
  3878 ;; Hardware stack levels used:    1
  3879 ;; Hardware stack levels required when called:    2
  3880 ;; This function calls:
  3881 ;;		i1_DIO_SetPinValue
  3882 ;;		i1___awdiv
  3883 ;;		i1___awmod
  3884 ;;		i1_vid_Left_7_Segment_DisplayNumber
  3885 ;;		i1_vid_Right_7_Segment_DisplayNumber
  3886 ;; This function is called by:
  3887 ;;		i1_ON_Mode
  3888 ;; This function uses a non-reentrant model
  3889 ;;
  3890                           
  3891                           
  3892                           ;psect for function i1_vid_7_Segment_Display_2Digits
  3893  03D5                     i1_vid_7_Segment_Display_2Digits:
  3894                           
  3895                           ;incstack = 0
  3896 ;; hardware stack exceeded
  3897                           ; Regs used in i1_vid_7_Segment_Display_2Digits: [wreg-fsr0h+status,2+status,0+btemp+1+p
      +                          clath+cstack]
  3898                           ;i1vid_7_Segment_Display_2Digits@u8_Num stored from wreg
  3899  03D5  00FC               	movwf	i1vid_7_Segment_Display_2Digits@u8_Num
  3900  03D6                     i1l1934:
  3901  03D6  300A               	movlw	10
  3902  03D7  00F0               	movwf	i1___awmod@divisor
  3903  03D8  3000               	movlw	0
  3904  03D9  00F1               	movwf	i1___awmod@divisor+1
  3905  03DA  087C               	movf	i1vid_7_Segment_Display_2Digits@u8_Num,w
  3906  03DB  00F8               	movwf	??i1_vid_7_Segment_Display_2Digits
  3907  03DC  01F9               	clrf	??i1_vid_7_Segment_Display_2Digits+1
  3908  03DD  0878               	movf	??i1_vid_7_Segment_Display_2Digits,w
  3909  03DE  00F2               	movwf	i1___awmod@dividend
  3910  03DF  0879               	movf	??i1_vid_7_Segment_Display_2Digits+1,w
  3911  03E0  00F3               	movwf	i1___awmod@dividend+1
  3912  03E1  120A  118A  255B  120A  118A  	fcall	i1___awmod
  3913  03E6  0870               	movf	?i1___awmod,w
  3914  03E7  00FF               	movwf	btemp+1
  3915  03E8  087F               	movf	btemp+1,w
  3916  03E9  00FA               	movwf	i1vid_7_Segment_Display_2Digits@Ones
  3917  03EA  300A               	movlw	10
  3918  03EB  00F0               	movwf	i1___awdiv@divisor
  3919  03EC  3000               	movlw	0
  3920  03ED  00F1               	movwf	i1___awdiv@divisor+1
  3921  03EE  087C               	movf	i1vid_7_Segment_Display_2Digits@u8_Num,w
  3922  03EF  00F8               	movwf	??i1_vid_7_Segment_Display_2Digits
  3923  03F0  01F9               	clrf	??i1_vid_7_Segment_Display_2Digits+1
  3924  03F1  0878               	movf	??i1_vid_7_Segment_Display_2Digits,w
  3925  03F2  00F2               	movwf	i1___awdiv@dividend
  3926  03F3  0879               	movf	??i1_vid_7_Segment_Display_2Digits+1,w
  3927  03F4  00F3               	movwf	i1___awdiv@dividend+1
  3928  03F5  120A  118A  243E  120A  118A  	fcall	i1___awdiv
  3929  03FA  0870               	movf	?i1___awdiv,w
  3930  03FB  00FF               	movwf	btemp+1
  3931  03FC  087F               	movf	btemp+1,w
  3932  03FD  00FB               	movwf	i1vid_7_Segment_Display_2Digits@Tens
  3933  03FE                     i1l1936:
  3934  03FE  01FD               	clrf	i1vid_7_Segment_Display_2Digits@Stability
  3935  03FF                     i1l1942:
  3936  03FF  087A               	movf	i1vid_7_Segment_Display_2Digits@Ones,w
  3937  0400  120A  118A  279E  120A  118A  	fcall	i1_vid_Right_7_Segment_DisplayNumber
  3938  0405                     i1l1944:
  3939  0405  301A               	movlw	26
  3940  0406  00F9               	movwf	??i1_vid_7_Segment_Display_2Digits+1
  3941  0407  30F8               	movlw	248
  3942  0408  00F8               	movwf	??i1_vid_7_Segment_Display_2Digits
  3943  0409                     u204_27:
  3944  0409  0BF8               	decfsz	??i1_vid_7_Segment_Display_2Digits,f
  3945  040A  2C09               	goto	u204_27
  3946  040B  0BF9               	decfsz	??i1_vid_7_Segment_Display_2Digits+1,f
  3947  040C  2C09               	goto	u204_27
  3948  040D  0000               	nop
  3949  040E                     i1l1946:
  3950  040E  087B               	movf	i1vid_7_Segment_Display_2Digits@Tens,w
  3951  040F  120A  118A  27C8  120A  118A  	fcall	i1_vid_Left_7_Segment_DisplayNumber
  3952  0414  301A               	movlw	26
  3953  0415  00F9               	movwf	??i1_vid_7_Segment_Display_2Digits+1
  3954  0416  30F8               	movlw	248
  3955  0417  00F8               	movwf	??i1_vid_7_Segment_Display_2Digits
  3956  0418                     u205_27:
  3957  0418  0BF8               	decfsz	??i1_vid_7_Segment_Display_2Digits,f
  3958  0419  2C18               	goto	u205_27
  3959  041A  0BF9               	decfsz	??i1_vid_7_Segment_Display_2Digits+1,f
  3960  041B  2C18               	goto	u205_27
  3961  041C  0000               	nop
  3962  041D                     i1l1948:
  3963  041D  3001               	movlw	1
  3964  041E  00FF               	movwf	btemp+1
  3965  041F  087F               	movf	btemp+1,w
  3966  0420  07FD               	addwf	i1vid_7_Segment_Display_2Digits@Stability,f
  3967  0421                     i1l1950:
  3968  0421  3032               	movlw	50
  3969  0422  027D               	subwf	i1vid_7_Segment_Display_2Digits@Stability,w
  3970  0423  1C03               	skipc
  3971  0424  2C26               	goto	u163_21
  3972  0425  2C27               	goto	u163_20
  3973  0426                     u163_21:
  3974  0426  2BFF               	goto	i1l1942
  3975  0427                     u163_20:
  3976  0427                     i1l1952:
  3977  0427  3002               	movlw	2
  3978  0428  00FF               	movwf	btemp+1
  3979  0429  087F               	movf	btemp+1,w
  3980  042A  00F0               	movwf	i1DIO_SetPinValue@u8PinIdCopy
  3981  042B  01F1               	clrf	i1DIO_SetPinValue@u8PinValCopy
  3982  042C  3000               	movlw	0
  3983  042D  120A  118A  20FF  120A  118A  	fcall	i1_DIO_SetPinValue
  3984  0432  3003               	movlw	3
  3985  0433  00FF               	movwf	btemp+1
  3986  0434  087F               	movf	btemp+1,w
  3987  0435  00F0               	movwf	i1DIO_SetPinValue@u8PinIdCopy
  3988  0436  01F1               	clrf	i1DIO_SetPinValue@u8PinValCopy
  3989  0437  3000               	movlw	0
  3990  0438  120A  118A  20FF  120A  118A  	fcall	i1_DIO_SetPinValue
  3991  043D                     i1l177:
  3992  043D  0008               	return
  3993  043E                     __end_ofi1_vid_7_Segment_Display_2Digits:
  3994                           
  3995                           	psect	text27
  3996  079E                     __ptext27:	
  3997 ;; *************** function i1_vid_Right_7_Segment_DisplayNumber *****************
  3998 ;; Defined at:
  3999 ;;		line 61 in file "7_Segment_prog.c"
  4000 ;; Parameters:    Size  Location     Type
  4001 ;;  u8_Number       1    wreg     unsigned char 
  4002 ;; Auto vars:     Size  Location     Type
  4003 ;;  u8_Number       1    5[COMMON] unsigned char 
  4004 ;; Return value:  Size  Location     Type
  4005 ;;                  1    wreg      void 
  4006 ;; Registers used:
  4007 ;;		wreg, fsr0l, fsr0h, status,2, status,0, btemp+1, pclath, cstack
  4008 ;; Tracked objects:
  4009 ;;		On entry : 0/0
  4010 ;;		On exit  : 0/0
  4011 ;;		Unchanged: 0/0
  4012 ;; Data sizes:     COMMON   BANK0   BANK1   BANK3   BANK2
  4013 ;;      Params:         0       0       0       0       0
  4014 ;;      Locals:         1       0       0       0       0
  4015 ;;      Temps:          0       0       0       0       0
  4016 ;;      Totals:         1       0       0       0       0
  4017 ;;Total ram usage:        1 bytes
  4018 ;; Hardware stack levels used:    1
  4019 ;; Hardware stack levels required when called:    1
  4020 ;; This function calls:
  4021 ;;		i1_DIO_SetPinValue
  4022 ;;		i1_DIO_SetPortValue
  4023 ;; This function is called by:
  4024 ;;		i1_vid_7_Segment_Display_2Digits
  4025 ;; This function uses a non-reentrant model
  4026 ;;
  4027                           
  4028                           
  4029                           ;psect for function i1_vid_Right_7_Segment_DisplayNumber
  4030  079E                     i1_vid_Right_7_Segment_DisplayNumber:
  4031                           
  4032                           ;incstack = 0
  4033 ;; hardware stack exceeded
  4034                           ; Regs used in i1_vid_Right_7_Segment_DisplayNumber: [wreg-fsr0h+status,2+status,0+btemp
      +                          +1+pclath+cstack]
  4035                           ;i1vid_Right_7_Segment_DisplayNumber@u8_Number stored from wreg
  4036  079E  00F5               	movwf	i1vid_Right_7_Segment_DisplayNumber@u8_Number
  4037  079F                     i1l1762:
  4038  079F  3002               	movlw	2
  4039  07A0  00FF               	movwf	btemp+1
  4040  07A1  087F               	movf	btemp+1,w
  4041  07A2  00F0               	movwf	i1DIO_SetPinValue@u8PinIdCopy
  4042  07A3  01F1               	clrf	i1DIO_SetPinValue@u8PinValCopy
  4043  07A4  3000               	movlw	0
  4044  07A5  120A  118A  20FF  120A  118A  	fcall	i1_DIO_SetPinValue
  4045  07AA  3003               	movlw	3
  4046  07AB  00FF               	movwf	btemp+1
  4047  07AC  087F               	movf	btemp+1,w
  4048  07AD  00F0               	movwf	i1DIO_SetPinValue@u8PinIdCopy
  4049  07AE  01F1               	clrf	i1DIO_SetPinValue@u8PinValCopy
  4050  07AF  0AF1               	incf	i1DIO_SetPinValue@u8PinValCopy,f
  4051  07B0  3000               	movlw	0
  4052  07B1  120A  118A  20FF  120A  118A  	fcall	i1_DIO_SetPinValue
  4053  07B6  0875               	movf	i1vid_Right_7_Segment_DisplayNumber@u8_Number,w
  4054  07B7  3E01               	addlw	low ((_u8_Right_7Segment-__stringbase)| (0+32768))
  4055  07B8  0084               	movwf	4
  4056  07B9  120A  158A  2000  120A  118A  	fcall	stringdir
  4057  07BE  00FF               	movwf	btemp+1
  4058  07BF  087F               	movf	btemp+1,w
  4059  07C0  00F0               	movwf	i1DIO_SetPortValue@u8PortVal
  4060  07C1  3003               	movlw	3
  4061  07C2  120A  118A  26A8  120A  118A  	fcall	i1_DIO_SetPortValue
  4062  07C7                     i1l172:
  4063  07C7  0008               	return
  4064  07C8                     __end_ofi1_vid_Right_7_Segment_DisplayNumber:
  4065                           
  4066                           	psect	text28
  4067  07C8                     __ptext28:	
  4068 ;; *************** function i1_vid_Left_7_Segment_DisplayNumber *****************
  4069 ;; Defined at:
  4070 ;;		line 49 in file "7_Segment_prog.c"
  4071 ;; Parameters:    Size  Location     Type
  4072 ;;  u8_Number       1    wreg     unsigned char 
  4073 ;; Auto vars:     Size  Location     Type
  4074 ;;  u8_Number       1    5[COMMON] unsigned char 
  4075 ;; Return value:  Size  Location     Type
  4076 ;;                  1    wreg      void 
  4077 ;; Registers used:
  4078 ;;		wreg, fsr0l, fsr0h, status,2, status,0, btemp+1, pclath, cstack
  4079 ;; Tracked objects:
  4080 ;;		On entry : 0/0
  4081 ;;		On exit  : 0/0
  4082 ;;		Unchanged: 0/0
  4083 ;; Data sizes:     COMMON   BANK0   BANK1   BANK3   BANK2
  4084 ;;      Params:         0       0       0       0       0
  4085 ;;      Locals:         1       0       0       0       0
  4086 ;;      Temps:          0       0       0       0       0
  4087 ;;      Totals:         1       0       0       0       0
  4088 ;;Total ram usage:        1 bytes
  4089 ;; Hardware stack levels used:    1
  4090 ;; Hardware stack levels required when called:    1
  4091 ;; This function calls:
  4092 ;;		i1_DIO_SetPinValue
  4093 ;;		i1_DIO_SetPortValue
  4094 ;; This function is called by:
  4095 ;;		i1_vid_7_Segment_Display_2Digits
  4096 ;; This function uses a non-reentrant model
  4097 ;;
  4098                           
  4099                           
  4100                           ;psect for function i1_vid_Left_7_Segment_DisplayNumber
  4101  07C8                     i1_vid_Left_7_Segment_DisplayNumber:
  4102                           
  4103                           ;incstack = 0
  4104 ;; hardware stack exceeded
  4105                           ; Regs used in i1_vid_Left_7_Segment_DisplayNumber: [wreg-fsr0h+status,2+status,0+btemp+
      +                          1+pclath+cstack]
  4106                           ;i1vid_Left_7_Segment_DisplayNumber@u8_Number stored from wreg
  4107  07C8  00F5               	movwf	i1vid_Left_7_Segment_DisplayNumber@u8_Number
  4108  07C9                     i1l1760:
  4109  07C9  3003               	movlw	3
  4110  07CA  00FF               	movwf	btemp+1
  4111  07CB  087F               	movf	btemp+1,w
  4112  07CC  00F0               	movwf	i1DIO_SetPinValue@u8PinIdCopy
  4113  07CD  01F1               	clrf	i1DIO_SetPinValue@u8PinValCopy
  4114  07CE  3000               	movlw	0
  4115  07CF  120A  118A  20FF  120A  118A  	fcall	i1_DIO_SetPinValue
  4116  07D4  3002               	movlw	2
  4117  07D5  00FF               	movwf	btemp+1
  4118  07D6  087F               	movf	btemp+1,w
  4119  07D7  00F0               	movwf	i1DIO_SetPinValue@u8PinIdCopy
  4120  07D8  01F1               	clrf	i1DIO_SetPinValue@u8PinValCopy
  4121  07D9  0AF1               	incf	i1DIO_SetPinValue@u8PinValCopy,f
  4122  07DA  3000               	movlw	0
  4123  07DB  120A  118A  20FF  120A  118A  	fcall	i1_DIO_SetPinValue
  4124  07E0  0875               	movf	i1vid_Left_7_Segment_DisplayNumber@u8_Number,w
  4125  07E1  3E0B               	addlw	low ((_u8_Left_7Segment-__stringbase)| (0+32768))
  4126  07E2  0084               	movwf	4
  4127  07E3  120A  158A  2000  120A  118A  	fcall	stringdir
  4128  07E8  00FF               	movwf	btemp+1
  4129  07E9  087F               	movf	btemp+1,w
  4130  07EA  00F0               	movwf	i1DIO_SetPortValue@u8PortVal
  4131  07EB  3003               	movlw	3
  4132  07EC  120A  118A  26A8  120A  118A  	fcall	i1_DIO_SetPortValue
  4133  07F1                     i1l169:
  4134  07F1  0008               	return
  4135  07F2                     __end_ofi1_vid_Left_7_Segment_DisplayNumber:
  4136                           
  4137                           	psect	text29
  4138  06A8                     __ptext29:	
  4139 ;; *************** function i1_DIO_SetPortValue *****************
  4140 ;; Defined at:
  4141 ;;		line 148 in file "DIO_Prog.c"
  4142 ;; Parameters:    Size  Location     Type
  4143 ;;  u8PortId        1    wreg     unsigned char 
  4144 ;;  u8PortVal       1    0[COMMON] unsigned char 
  4145 ;; Auto vars:     Size  Location     Type
  4146 ;;  u8PortId        1    3[COMMON] unsigned char 
  4147 ;; Return value:  Size  Location     Type
  4148 ;;                  1    wreg      void 
  4149 ;; Registers used:
  4150 ;;		wreg, fsr0l, fsr0h, status,2, status,0, btemp+1
  4151 ;; Tracked objects:
  4152 ;;		On entry : 0/0
  4153 ;;		On exit  : 0/0
  4154 ;;		Unchanged: 0/0
  4155 ;; Data sizes:     COMMON   BANK0   BANK1   BANK3   BANK2
  4156 ;;      Params:         1       0       0       0       0
  4157 ;;      Locals:         1       0       0       0       0
  4158 ;;      Temps:          2       0       0       0       0
  4159 ;;      Totals:         4       0       0       0       0
  4160 ;;Total ram usage:        4 bytes
  4161 ;; Hardware stack levels used:    1
  4162 ;; This function calls:
  4163 ;;		Nothing
  4164 ;; This function is called by:
  4165 ;;		i1_vid_Left_7_Segment_DisplayNumber
  4166 ;;		i1_vid_Right_7_Segment_DisplayNumber
  4167 ;; This function uses a non-reentrant model
  4168 ;;
  4169                           
  4170                           
  4171                           ;psect for function i1_DIO_SetPortValue
  4172  06A8                     i1_DIO_SetPortValue:
  4173                           
  4174                           ;incstack = 0
  4175 ;; hardware stack exceeded
  4176                           ; Regs used in i1_DIO_SetPortValue: [wreg-fsr0h+status,2+status,0+btemp+1]
  4177                           ;i1DIO_SetPortValue@u8PortId stored from wreg
  4178  06A8  00F3               	movwf	i1DIO_SetPortValue@u8PortId
  4179  06A9                     i1l1678:
  4180                           
  4181                           ;DIO_Prog.c: 148: void DIO_SetPortValue (u8 u8PortId, u8 u8PortVal);DIO_Prog.c: 149: {;D
      +                          IO_Prog.c: 151:  switch (u8PortId)
  4182  06A9  2EC6               	goto	i1l1690
  4183  06AA                     i1l1680:
  4184  06AA  0870               	movf	i1DIO_SetPortValue@u8PortVal,w
  4185  06AB  00FF               	movwf	btemp+1
  4186  06AC  087F               	movf	btemp+1,w
  4187  06AD  1283               	bcf	3,5	;RP0=0, select bank0
  4188  06AE  1303               	bcf	3,6	;RP1=0, select bank0
  4189  06AF  0085               	movwf	5	;volatile
  4190  06B0  2EDC               	goto	i1l111
  4191  06B1                     i1l1682:
  4192  06B1  0870               	movf	i1DIO_SetPortValue@u8PortVal,w
  4193  06B2  00FF               	movwf	btemp+1
  4194  06B3  087F               	movf	btemp+1,w
  4195  06B4  1283               	bcf	3,5	;RP0=0, select bank0
  4196  06B5  1303               	bcf	3,6	;RP1=0, select bank0
  4197  06B6  0086               	movwf	6	;volatile
  4198  06B7  2EDC               	goto	i1l111
  4199  06B8                     i1l1684:
  4200  06B8  0870               	movf	i1DIO_SetPortValue@u8PortVal,w
  4201  06B9  00FF               	movwf	btemp+1
  4202  06BA  087F               	movf	btemp+1,w
  4203  06BB  1283               	bcf	3,5	;RP0=0, select bank0
  4204  06BC  1303               	bcf	3,6	;RP1=0, select bank0
  4205  06BD  0087               	movwf	7	;volatile
  4206  06BE  2EDC               	goto	i1l111
  4207  06BF                     i1l1686:
  4208  06BF  0870               	movf	i1DIO_SetPortValue@u8PortVal,w
  4209  06C0  00FF               	movwf	btemp+1
  4210  06C1  087F               	movf	btemp+1,w
  4211  06C2  1283               	bcf	3,5	;RP0=0, select bank0
  4212  06C3  1303               	bcf	3,6	;RP1=0, select bank0
  4213  06C4  0088               	movwf	8	;volatile
  4214  06C5  2EDC               	goto	i1l111
  4215  06C6                     i1l1690:
  4216  06C6  0873               	movf	i1DIO_SetPortValue@u8PortId,w
  4217  06C7  00F1               	movwf	??i1_DIO_SetPortValue
  4218  06C8  01F2               	clrf	??i1_DIO_SetPortValue+1
  4219                           
  4220                           ; Switch on 2 bytes has been partitioned into a top level switch of size 1, and 1 sub-sw
      +                          itches
  4221                           ; Switch size 1, requested type "simple"
  4222                           ; Number of cases is 1, Range of values is 0 to 0
  4223                           ; switch strategies available:
  4224                           ; Name         Instructions Cycles
  4225                           ; simple_byte            4     3 (average)
  4226                           ; direct_byte           11     8 (fixed)
  4227                           ; jumptable            260     6 (fixed)
  4228                           ;	Chosen strategy is simple_byte
  4229  06C9  0872               	movf	??i1_DIO_SetPortValue+1,w
  4230  06CA  3A00               	xorlw	0	; case 0
  4231  06CB  1903               	skipnz
  4232  06CC  2ECE               	goto	i1l2438
  4233  06CD  2EDC               	goto	i1l111
  4234  06CE                     i1l2438:
  4235                           
  4236                           ; Switch size 1, requested type "simple"
  4237                           ; Number of cases is 4, Range of values is 0 to 3
  4238                           ; switch strategies available:
  4239                           ; Name         Instructions Cycles
  4240                           ; simple_byte           13     7 (average)
  4241                           ; direct_byte           20     8 (fixed)
  4242                           ; jumptable            260     6 (fixed)
  4243                           ;	Chosen strategy is simple_byte
  4244  06CE  0871               	movf	??i1_DIO_SetPortValue,w
  4245  06CF  3A00               	xorlw	0	; case 0
  4246  06D0  1903               	skipnz
  4247  06D1  2EAA               	goto	i1l1680
  4248  06D2  3A01               	xorlw	1	; case 1
  4249  06D3  1903               	skipnz
  4250  06D4  2EB1               	goto	i1l1682
  4251  06D5  3A03               	xorlw	3	; case 2
  4252  06D6  1903               	skipnz
  4253  06D7  2EB8               	goto	i1l1684
  4254  06D8  3A01               	xorlw	1	; case 3
  4255  06D9  1903               	skipnz
  4256  06DA  2EBF               	goto	i1l1686
  4257  06DB  2EDC               	goto	i1l111
  4258  06DC                     i1l111:
  4259  06DC  0008               	return
  4260  06DD                     __end_ofi1_DIO_SetPortValue:
  4261                           
  4262                           	psect	text30
  4263  055B                     __ptext30:	
  4264 ;; *************** function i1___awmod *****************
  4265 ;; Defined at:
  4266 ;;		line 5 in file "C:\Program Files\Microchip\xc8\v2.20\pic\sources\c90\common\awmod.c"
  4267 ;; Parameters:    Size  Location     Type
  4268 ;;  divisor         2    0[COMMON] int 
  4269 ;;  dividend        2    2[COMMON] int 
  4270 ;; Auto vars:     Size  Location     Type
  4271 ;;  sign            1    5[COMMON] unsigned char 
  4272 ;;  counter         1    4[COMMON] unsigned char 
  4273 ;; Return value:  Size  Location     Type
  4274 ;;                  2    0[COMMON] int 
  4275 ;; Registers used:
  4276 ;;		wreg, status,2, status,0, btemp+1
  4277 ;; Tracked objects:
  4278 ;;		On entry : 0/0
  4279 ;;		On exit  : 0/0
  4280 ;;		Unchanged: 0/0
  4281 ;; Data sizes:     COMMON   BANK0   BANK1   BANK3   BANK2
  4282 ;;      Params:         4       0       0       0       0
  4283 ;;      Locals:         2       0       0       0       0
  4284 ;;      Temps:          0       0       0       0       0
  4285 ;;      Totals:         6       0       0       0       0
  4286 ;;Total ram usage:        6 bytes
  4287 ;; Hardware stack levels used:    1
  4288 ;; This function calls:
  4289 ;;		Nothing
  4290 ;; This function is called by:
  4291 ;;		i1_vid_7_Segment_Display_2Digits
  4292 ;; This function uses a non-reentrant model
  4293 ;;
  4294                           
  4295                           
  4296                           ;psect for function i1___awmod
  4297  055B                     i1___awmod:
  4298  055B                     i1l1808:	
  4299                           ;incstack = 0
  4300 ;; hardware stack exceeded
  4301                           ; Regs used in i1___awmod: [wreg+status,2+status,0+btemp+1]
  4302                           
  4303  055B  01F5               	clrf	i1___awmod@sign
  4304  055C                     i1l1810:
  4305  055C  1FF3               	btfss	i1___awmod@dividend+1,7
  4306  055D  2D5F               	goto	u135_21
  4307  055E  2D60               	goto	u135_20
  4308  055F                     u135_21:
  4309  055F  2D67               	goto	i1l1816
  4310  0560                     u135_20:
  4311  0560                     i1l1812:
  4312  0560  09F2               	comf	i1___awmod@dividend,f
  4313  0561  09F3               	comf	i1___awmod@dividend+1,f
  4314  0562  0AF2               	incf	i1___awmod@dividend,f
  4315  0563  1903               	skipnz
  4316  0564  0AF3               	incf	i1___awmod@dividend+1,f
  4317  0565                     i1l1814:
  4318  0565  01F5               	clrf	i1___awmod@sign
  4319  0566  0AF5               	incf	i1___awmod@sign,f
  4320  0567                     i1l1816:
  4321  0567  1FF1               	btfss	i1___awmod@divisor+1,7
  4322  0568  2D6A               	goto	u136_21
  4323  0569  2D6B               	goto	u136_20
  4324  056A                     u136_21:
  4325  056A  2D70               	goto	i1l1820
  4326  056B                     u136_20:
  4327  056B                     i1l1818:
  4328  056B  09F0               	comf	i1___awmod@divisor,f
  4329  056C  09F1               	comf	i1___awmod@divisor+1,f
  4330  056D  0AF0               	incf	i1___awmod@divisor,f
  4331  056E  1903               	skipnz
  4332  056F  0AF1               	incf	i1___awmod@divisor+1,f
  4333  0570                     i1l1820:
  4334  0570  0870               	movf	i1___awmod@divisor,w
  4335  0571  0471               	iorwf	i1___awmod@divisor+1,w
  4336  0572  1903               	btfsc	3,2
  4337  0573  2D75               	goto	u137_21
  4338  0574  2D76               	goto	u137_20
  4339  0575                     u137_21:
  4340  0575  2DA5               	goto	i1l1838
  4341  0576                     u137_20:
  4342  0576                     i1l1822:
  4343  0576  01F4               	clrf	i1___awmod@counter
  4344  0577  0AF4               	incf	i1___awmod@counter,f
  4345  0578  2D84               	goto	i1l1828
  4346  0579                     i1l1824:
  4347  0579  3001               	movlw	1
  4348  057A                     u138_25:
  4349  057A  1003               	clrc
  4350  057B  0DF0               	rlf	i1___awmod@divisor,f
  4351  057C  0DF1               	rlf	i1___awmod@divisor+1,f
  4352  057D  3EFF               	addlw	-1
  4353  057E  1D03               	skipz
  4354  057F  2D7A               	goto	u138_25
  4355  0580                     i1l1826:
  4356  0580  3001               	movlw	1
  4357  0581  00FF               	movwf	btemp+1
  4358  0582  087F               	movf	btemp+1,w
  4359  0583  07F4               	addwf	i1___awmod@counter,f
  4360  0584                     i1l1828:
  4361  0584  1FF1               	btfss	i1___awmod@divisor+1,7
  4362  0585  2D87               	goto	u139_21
  4363  0586  2D88               	goto	u139_20
  4364  0587                     u139_21:
  4365  0587  2D79               	goto	i1l1824
  4366  0588                     u139_20:
  4367  0588                     i1l1830:
  4368  0588  0871               	movf	i1___awmod@divisor+1,w
  4369  0589  0273               	subwf	i1___awmod@dividend+1,w
  4370  058A  1D03               	skipz
  4371  058B  2D8E               	goto	u140_25
  4372  058C  0870               	movf	i1___awmod@divisor,w
  4373  058D  0272               	subwf	i1___awmod@dividend,w
  4374  058E                     u140_25:
  4375  058E  1C03               	skipc
  4376  058F  2D91               	goto	u140_21
  4377  0590  2D92               	goto	u140_20
  4378  0591                     u140_21:
  4379  0591  2D98               	goto	i1l1834
  4380  0592                     u140_20:
  4381  0592                     i1l1832:
  4382  0592  0870               	movf	i1___awmod@divisor,w
  4383  0593  02F2               	subwf	i1___awmod@dividend,f
  4384  0594  0871               	movf	i1___awmod@divisor+1,w
  4385  0595  1C03               	skipc
  4386  0596  03F3               	decf	i1___awmod@dividend+1,f
  4387  0597  02F3               	subwf	i1___awmod@dividend+1,f
  4388  0598                     i1l1834:
  4389  0598  3001               	movlw	1
  4390  0599                     u141_25:
  4391  0599  1003               	clrc
  4392  059A  0CF1               	rrf	i1___awmod@divisor+1,f
  4393  059B  0CF0               	rrf	i1___awmod@divisor,f
  4394  059C  3EFF               	addlw	-1
  4395  059D  1D03               	skipz
  4396  059E  2D99               	goto	u141_25
  4397  059F                     i1l1836:
  4398  059F  3001               	movlw	1
  4399  05A0  02F4               	subwf	i1___awmod@counter,f
  4400  05A1  1D03               	btfss	3,2
  4401  05A2  2DA4               	goto	u142_21
  4402  05A3  2DA5               	goto	u142_20
  4403  05A4                     u142_21:
  4404  05A4  2D88               	goto	i1l1830
  4405  05A5                     u142_20:
  4406  05A5                     i1l1838:
  4407  05A5  0875               	movf	i1___awmod@sign,w
  4408  05A6  1903               	btfsc	3,2
  4409  05A7  2DA9               	goto	u143_21
  4410  05A8  2DAA               	goto	u143_20
  4411  05A9                     u143_21:
  4412  05A9  2DAF               	goto	i1l1842
  4413  05AA                     u143_20:
  4414  05AA                     i1l1840:
  4415  05AA  09F2               	comf	i1___awmod@dividend,f
  4416  05AB  09F3               	comf	i1___awmod@dividend+1,f
  4417  05AC  0AF2               	incf	i1___awmod@dividend,f
  4418  05AD  1903               	skipnz
  4419  05AE  0AF3               	incf	i1___awmod@dividend+1,f
  4420  05AF                     i1l1842:
  4421  05AF  0873               	movf	i1___awmod@dividend+1,w
  4422  05B0  00F1               	movwf	?i1___awmod+1
  4423  05B1  0872               	movf	i1___awmod@dividend,w
  4424  05B2  00F0               	movwf	?i1___awmod
  4425  05B3                     i1l502:
  4426  05B3  0008               	return
  4427  05B4                     __end_ofi1___awmod:
  4428                           
  4429                           	psect	text31
  4430  043E                     __ptext31:	
  4431 ;; *************** function i1___awdiv *****************
  4432 ;; Defined at:
  4433 ;;		line 5 in file "C:\Program Files\Microchip\xc8\v2.20\pic\sources\c90\common\awdiv.c"
  4434 ;; Parameters:    Size  Location     Type
  4435 ;;  divisor         2    0[COMMON] int 
  4436 ;;  dividend        2    2[COMMON] int 
  4437 ;; Auto vars:     Size  Location     Type
  4438 ;;  quotient        2    6[COMMON] int 
  4439 ;;  sign            1    5[COMMON] unsigned char 
  4440 ;;  counter         1    4[COMMON] unsigned char 
  4441 ;; Return value:  Size  Location     Type
  4442 ;;                  2    0[COMMON] int 
  4443 ;; Registers used:
  4444 ;;		wreg, status,2, status,0, btemp+1
  4445 ;; Tracked objects:
  4446 ;;		On entry : 0/0
  4447 ;;		On exit  : 0/0
  4448 ;;		Unchanged: 0/0
  4449 ;; Data sizes:     COMMON   BANK0   BANK1   BANK3   BANK2
  4450 ;;      Params:         4       0       0       0       0
  4451 ;;      Locals:         4       0       0       0       0
  4452 ;;      Temps:          0       0       0       0       0
  4453 ;;      Totals:         8       0       0       0       0
  4454 ;;Total ram usage:        8 bytes
  4455 ;; Hardware stack levels used:    1
  4456 ;; This function calls:
  4457 ;;		Nothing
  4458 ;; This function is called by:
  4459 ;;		i1_vid_7_Segment_Display_2Digits
  4460 ;; This function uses a non-reentrant model
  4461 ;;
  4462                           
  4463                           
  4464                           ;psect for function i1___awdiv
  4465  043E                     i1___awdiv:
  4466  043E                     i1l1764:	
  4467                           ;incstack = 0
  4468 ;; hardware stack exceeded
  4469                           ; Regs used in i1___awdiv: [wreg+status,2+status,0+btemp+1]
  4470                           
  4471  043E  01F5               	clrf	i1___awdiv@sign
  4472  043F                     i1l1766:
  4473  043F  1FF1               	btfss	i1___awdiv@divisor+1,7
  4474  0440  2C42               	goto	u125_21
  4475  0441  2C43               	goto	u125_20
  4476  0442                     u125_21:
  4477  0442  2C4A               	goto	i1l1772
  4478  0443                     u125_20:
  4479  0443                     i1l1768:
  4480  0443  09F0               	comf	i1___awdiv@divisor,f
  4481  0444  09F1               	comf	i1___awdiv@divisor+1,f
  4482  0445  0AF0               	incf	i1___awdiv@divisor,f
  4483  0446  1903               	skipnz
  4484  0447  0AF1               	incf	i1___awdiv@divisor+1,f
  4485  0448                     i1l1770:
  4486  0448  01F5               	clrf	i1___awdiv@sign
  4487  0449  0AF5               	incf	i1___awdiv@sign,f
  4488  044A                     i1l1772:
  4489  044A  1FF3               	btfss	i1___awdiv@dividend+1,7
  4490  044B  2C4D               	goto	u126_21
  4491  044C  2C4E               	goto	u126_20
  4492  044D                     u126_21:
  4493  044D  2C57               	goto	i1l1778
  4494  044E                     u126_20:
  4495  044E                     i1l1774:
  4496  044E  09F2               	comf	i1___awdiv@dividend,f
  4497  044F  09F3               	comf	i1___awdiv@dividend+1,f
  4498  0450  0AF2               	incf	i1___awdiv@dividend,f
  4499  0451  1903               	skipnz
  4500  0452  0AF3               	incf	i1___awdiv@dividend+1,f
  4501  0453                     i1l1776:
  4502  0453  3001               	movlw	1
  4503  0454  00FF               	movwf	btemp+1
  4504  0455  087F               	movf	btemp+1,w
  4505  0456  06F5               	xorwf	i1___awdiv@sign,f
  4506  0457                     i1l1778:
  4507  0457  01F6               	clrf	i1___awdiv@quotient
  4508  0458  01F7               	clrf	i1___awdiv@quotient+1
  4509  0459                     i1l1780:
  4510  0459  0870               	movf	i1___awdiv@divisor,w
  4511  045A  0471               	iorwf	i1___awdiv@divisor+1,w
  4512  045B  1903               	btfsc	3,2
  4513  045C  2C5E               	goto	u127_21
  4514  045D  2C5F               	goto	u127_20
  4515  045E                     u127_21:
  4516  045E  2C96               	goto	i1l1800
  4517  045F                     u127_20:
  4518  045F                     i1l1782:
  4519  045F  01F4               	clrf	i1___awdiv@counter
  4520  0460  0AF4               	incf	i1___awdiv@counter,f
  4521  0461  2C6D               	goto	i1l1788
  4522  0462                     i1l1784:
  4523  0462  3001               	movlw	1
  4524  0463                     u128_25:
  4525  0463  1003               	clrc
  4526  0464  0DF0               	rlf	i1___awdiv@divisor,f
  4527  0465  0DF1               	rlf	i1___awdiv@divisor+1,f
  4528  0466  3EFF               	addlw	-1
  4529  0467  1D03               	skipz
  4530  0468  2C63               	goto	u128_25
  4531  0469                     i1l1786:
  4532  0469  3001               	movlw	1
  4533  046A  00FF               	movwf	btemp+1
  4534  046B  087F               	movf	btemp+1,w
  4535  046C  07F4               	addwf	i1___awdiv@counter,f
  4536  046D                     i1l1788:
  4537  046D  1FF1               	btfss	i1___awdiv@divisor+1,7
  4538  046E  2C70               	goto	u129_21
  4539  046F  2C71               	goto	u129_20
  4540  0470                     u129_21:
  4541  0470  2C62               	goto	i1l1784
  4542  0471                     u129_20:
  4543  0471                     i1l1790:
  4544  0471  3001               	movlw	1
  4545  0472                     u130_25:
  4546  0472  1003               	clrc
  4547  0473  0DF6               	rlf	i1___awdiv@quotient,f
  4548  0474  0DF7               	rlf	i1___awdiv@quotient+1,f
  4549  0475  3EFF               	addlw	-1
  4550  0476  1D03               	skipz
  4551  0477  2C72               	goto	u130_25
  4552  0478  0871               	movf	i1___awdiv@divisor+1,w
  4553  0479  0273               	subwf	i1___awdiv@dividend+1,w
  4554  047A  1D03               	skipz
  4555  047B  2C7E               	goto	u131_25
  4556  047C  0870               	movf	i1___awdiv@divisor,w
  4557  047D  0272               	subwf	i1___awdiv@dividend,w
  4558  047E                     u131_25:
  4559  047E  1C03               	skipc
  4560  047F  2C81               	goto	u131_21
  4561  0480  2C82               	goto	u131_20
  4562  0481                     u131_21:
  4563  0481  2C89               	goto	i1l1796
  4564  0482                     u131_20:
  4565  0482                     i1l1792:
  4566  0482  0870               	movf	i1___awdiv@divisor,w
  4567  0483  02F2               	subwf	i1___awdiv@dividend,f
  4568  0484  0871               	movf	i1___awdiv@divisor+1,w
  4569  0485  1C03               	skipc
  4570  0486  03F3               	decf	i1___awdiv@dividend+1,f
  4571  0487  02F3               	subwf	i1___awdiv@dividend+1,f
  4572  0488                     i1l1794:
  4573  0488  1476               	bsf	i1___awdiv@quotient,0
  4574  0489                     i1l1796:
  4575  0489  3001               	movlw	1
  4576  048A                     u132_25:
  4577  048A  1003               	clrc
  4578  048B  0CF1               	rrf	i1___awdiv@divisor+1,f
  4579  048C  0CF0               	rrf	i1___awdiv@divisor,f
  4580  048D  3EFF               	addlw	-1
  4581  048E  1D03               	skipz
  4582  048F  2C8A               	goto	u132_25
  4583  0490                     i1l1798:
  4584  0490  3001               	movlw	1
  4585  0491  02F4               	subwf	i1___awdiv@counter,f
  4586  0492  1D03               	btfss	3,2
  4587  0493  2C95               	goto	u133_21
  4588  0494  2C96               	goto	u133_20
  4589  0495                     u133_21:
  4590  0495  2C71               	goto	i1l1790
  4591  0496                     u133_20:
  4592  0496                     i1l1800:
  4593  0496  0875               	movf	i1___awdiv@sign,w
  4594  0497  1903               	btfsc	3,2
  4595  0498  2C9A               	goto	u134_21
  4596  0499  2C9B               	goto	u134_20
  4597  049A                     u134_21:
  4598  049A  2CA0               	goto	i1l1804
  4599  049B                     u134_20:
  4600  049B                     i1l1802:
  4601  049B  09F6               	comf	i1___awdiv@quotient,f
  4602  049C  09F7               	comf	i1___awdiv@quotient+1,f
  4603  049D  0AF6               	incf	i1___awdiv@quotient,f
  4604  049E  1903               	skipnz
  4605  049F  0AF7               	incf	i1___awdiv@quotient+1,f
  4606  04A0                     i1l1804:
  4607  04A0  0877               	movf	i1___awdiv@quotient+1,w
  4608  04A1  00F1               	movwf	?i1___awdiv+1
  4609  04A2  0876               	movf	i1___awdiv@quotient,w
  4610  04A3  00F0               	movwf	?i1___awdiv
  4611  04A4                     i1l489:
  4612  04A4  0008               	return
  4613  04A5                     __end_ofi1___awdiv:
  4614                           
  4615                           	psect	text32
  4616  0F48                     __ptext32:	
  4617 ;; *************** function i1_OFF_Mode *****************
  4618 ;; Defined at:
  4619 ;;		line 67 in file "APP_Program.c"
  4620 ;; Parameters:    Size  Location     Type
  4621 ;;		None
  4622 ;; Auto vars:     Size  Location     Type
  4623 ;;		None
  4624 ;; Return value:  Size  Location     Type
  4625 ;;                  1    wreg      void 
  4626 ;; Registers used:
  4627 ;;		wreg, fsr0l, fsr0h, status,2, status,0, btemp+1, pclath, cstack
  4628 ;; Tracked objects:
  4629 ;;		On entry : 0/0
  4630 ;;		On exit  : 0/0
  4631 ;;		Unchanged: 0/0
  4632 ;; Data sizes:     COMMON   BANK0   BANK1   BANK3   BANK2
  4633 ;;      Params:         0       0       0       0       0
  4634 ;;      Locals:         0       0       0       0       0
  4635 ;;      Temps:          0       0       0       0       0
  4636 ;;      Totals:         0       0       0       0       0
  4637 ;;Total ram usage:        0 bytes
  4638 ;; Hardware stack levels used:    1
  4639 ;; Hardware stack levels required when called:    2
  4640 ;; This function calls:
  4641 ;;		i1_vid_7_Segment_DeInit
  4642 ;; This function is called by:
  4643 ;;		_RB0_Handler
  4644 ;; This function uses a non-reentrant model
  4645 ;;
  4646                           
  4647                           
  4648                           ;psect for function i1_OFF_Mode
  4649  0F48                     i1_OFF_Mode:
  4650  0F48                     i1l2050:	
  4651                           ;incstack = 0
  4652 ;; hardware stack exceeded
  4653                           ; Regs used in i1_OFF_Mode: [wreg-fsr0h+status,2+status,0+btemp+1+pclath+cstack]
  4654                           
  4655                           
  4656                           ;APP_Program.c: 69:     ON_OFF_Status = 0 ;
  4657  0F48  1283               	bcf	3,5	;RP0=0, select bank0
  4658  0F49  1303               	bcf	3,6	;RP1=0, select bank0
  4659  0F4A  01BE               	clrf	_ON_OFF_Status
  4660  0F4B                     i1l2052:
  4661                           
  4662                           ;APP_Program.c: 70:     vid_7_Segment_DeInit () ;
  4663  0F4B  120A  158A  2796  120A  158A  	fcall	i1_vid_7_Segment_DeInit
  4664  0F50                     i1l217:
  4665  0F50  0008               	return
  4666  0F51                     __end_ofi1_OFF_Mode:
  4667                           
  4668                           	psect	text33
  4669  0F96                     __ptext33:	
  4670 ;; *************** function i1_vid_7_Segment_DeInit *****************
  4671 ;; Defined at:
  4672 ;;		line 41 in file "7_Segment_prog.c"
  4673 ;; Parameters:    Size  Location     Type
  4674 ;;		None
  4675 ;; Auto vars:     Size  Location     Type
  4676 ;;		None
  4677 ;; Return value:  Size  Location     Type
  4678 ;;                  1    wreg      void 
  4679 ;; Registers used:
  4680 ;;		wreg, fsr0l, fsr0h, status,2, status,0, btemp+1, pclath, cstack
  4681 ;; Tracked objects:
  4682 ;;		On entry : 0/0
  4683 ;;		On exit  : 0/0
  4684 ;;		Unchanged: 0/0
  4685 ;; Data sizes:     COMMON   BANK0   BANK1   BANK3   BANK2
  4686 ;;      Params:         0       0       0       0       0
  4687 ;;      Locals:         0       0       0       0       0
  4688 ;;      Temps:          0       0       0       0       0
  4689 ;;      Totals:         0       0       0       0       0
  4690 ;;Total ram usage:        0 bytes
  4691 ;; Hardware stack levels used:    1
  4692 ;; Hardware stack levels required when called:    1
  4693 ;; This function calls:
  4694 ;;		i1_DIO_SetPinValue
  4695 ;; This function is called by:
  4696 ;;		i1_OFF_Mode
  4697 ;; This function uses a non-reentrant model
  4698 ;;
  4699                           
  4700                           
  4701                           ;psect for function i1_vid_7_Segment_DeInit
  4702  0F96                     i1_vid_7_Segment_DeInit:
  4703  0F96                     i1l1932:	
  4704                           ;incstack = 0
  4705 ;; hardware stack exceeded
  4706                           ; Regs used in i1_vid_7_Segment_DeInit: [wreg-fsr0h+status,2+status,0+btemp+1+pclath+cst
      +                          ack]
  4707                           
  4708  0F96  3002               	movlw	2
  4709  0F97  00FF               	movwf	btemp+1
  4710  0F98  087F               	movf	btemp+1,w
  4711  0F99  00F0               	movwf	i1DIO_SetPinValue@u8PinIdCopy
  4712  0F9A  01F1               	clrf	i1DIO_SetPinValue@u8PinValCopy
  4713  0F9B  3000               	movlw	0
  4714  0F9C  120A  118A  20FF  120A  158A  	fcall	i1_DIO_SetPinValue
  4715  0FA1  3003               	movlw	3
  4716  0FA2  00FF               	movwf	btemp+1
  4717  0FA3  087F               	movf	btemp+1,w
  4718  0FA4  00F0               	movwf	i1DIO_SetPinValue@u8PinIdCopy
  4719  0FA5  01F1               	clrf	i1DIO_SetPinValue@u8PinValCopy
  4720  0FA6  3000               	movlw	0
  4721  0FA7  120A  118A  20FF  120A  158A  	fcall	i1_DIO_SetPinValue
  4722  0FAC                     i1l166:
  4723  0FAC  0008               	return
  4724  0FAD                     __end_ofi1_vid_7_Segment_DeInit:
  4725                           
  4726                           	psect	text34
  4727  00FF                     __ptext34:	
  4728 ;; *************** function i1_DIO_SetPinValue *****************
  4729 ;; Defined at:
  4730 ;;		line 61 in file "DIO_Prog.c"
  4731 ;; Parameters:    Size  Location     Type
  4732 ;;  u8PortIdCopy    1    wreg     unsigned char 
  4733 ;;  u8PinIdCopy     1    0[COMMON] unsigned char 
  4734 ;;  u8PinValCopy    1    1[COMMON] unsigned char 
  4735 ;; Auto vars:     Size  Location     Type
  4736 ;;  u8PortIdCopy    1    4[COMMON] unsigned char 
  4737 ;; Return value:  Size  Location     Type
  4738 ;;                  1    wreg      void 
  4739 ;; Registers used:
  4740 ;;		wreg, fsr0l, fsr0h, status,2, status,0, btemp+1
  4741 ;; Tracked objects:
  4742 ;;		On entry : 0/0
  4743 ;;		On exit  : 0/0
  4744 ;;		Unchanged: 0/0
  4745 ;; Data sizes:     COMMON   BANK0   BANK1   BANK3   BANK2
  4746 ;;      Params:         2       0       0       0       0
  4747 ;;      Locals:         1       0       0       0       0
  4748 ;;      Temps:          2       0       0       0       0
  4749 ;;      Totals:         5       0       0       0       0
  4750 ;;Total ram usage:        5 bytes
  4751 ;; Hardware stack levels used:    1
  4752 ;; This function calls:
  4753 ;;		Nothing
  4754 ;; This function is called by:
  4755 ;;		i1_vid_7_Segment_DeInit
  4756 ;;		i1_vid_Left_7_Segment_DisplayNumber
  4757 ;;		i1_vid_Right_7_Segment_DisplayNumber
  4758 ;;		i1_vid_7_Segment_Display_2Digits
  4759 ;; This function uses a non-reentrant model
  4760 ;;
  4761                           
  4762                           
  4763                           ;psect for function i1_DIO_SetPinValue
  4764  00FF                     i1_DIO_SetPinValue:
  4765                           
  4766                           ;incstack = 0
  4767 ;; hardware stack exceeded
  4768                           ; Regs used in i1_DIO_SetPinValue: [wreg-fsr0h+status,2+status,0+btemp+1]
  4769                           ;i1DIO_SetPinValue@u8PortIdCopy stored from wreg
  4770  00FF  00F4               	movwf	i1DIO_SetPinValue@u8PortIdCopy
  4771  0100                     i1l1634:
  4772                           
  4773                           ;DIO_Prog.c: 61: void DIO_SetPinValue(u8 u8PortIdCopy , u8 u8PinIdCopy, u8 u8PinValCopy)
      +                          ;DIO_Prog.c: 62: {;DIO_Prog.c: 64:  if ((u8PortIdCopy <= 3) && (u8PinIdCopy <= 7))
  4774  0100  3004               	movlw	4
  4775  0101  0274               	subwf	i1DIO_SetPinValue@u8PortIdCopy,w
  4776  0102  1803               	skipnc
  4777  0103  2905               	goto	u101_21
  4778  0104  2906               	goto	u101_20
  4779  0105                     u101_21:
  4780  0105  29C8               	goto	i1l80
  4781  0106                     u101_20:
  4782  0106                     i1l1636:
  4783  0106  3008               	movlw	8
  4784  0107  0270               	subwf	i1DIO_SetPinValue@u8PinIdCopy,w
  4785  0108  1803               	skipnc
  4786  0109  290B               	goto	u102_21
  4787  010A  290C               	goto	u102_20
  4788  010B                     u102_21:
  4789  010B  29C8               	goto	i1l80
  4790  010C                     u102_20:
  4791  010C                     i1l1638:
  4792                           
  4793                           ;DIO_Prog.c: 65:  {;DIO_Prog.c: 66:   if (u8PinValCopy == 1)
  4794  010C  0371               	decf	i1DIO_SetPinValue@u8PinValCopy,w
  4795  010D  1D03               	btfss	3,2
  4796  010E  2910               	goto	u103_21
  4797  010F  2911               	goto	u103_20
  4798  0110                     u103_21:
  4799  0110  2968               	goto	i1l1654
  4800  0111                     u103_20:
  4801  0111  2952               	goto	i1l1652
  4802  0112                     i1l1642:
  4803  0112  3001               	movlw	1
  4804  0113  00F2               	movwf	??i1_DIO_SetPinValue
  4805  0114  0A70               	incf	i1DIO_SetPinValue@u8PinIdCopy,w
  4806  0115  2918               	goto	u104_24
  4807  0116                     u104_25:
  4808  0116  1003               	clrc
  4809  0117  0DF2               	rlf	??i1_DIO_SetPinValue,f
  4810  0118                     u104_24:
  4811  0118  3EFF               	addlw	-1
  4812  0119  1D03               	skipz
  4813  011A  2916               	goto	u104_25
  4814  011B  0872               	movf	??i1_DIO_SetPinValue,w
  4815  011C  00FF               	movwf	btemp+1
  4816  011D  087F               	movf	btemp+1,w
  4817  011E  1283               	bcf	3,5	;RP0=0, select bank0
  4818  011F  1303               	bcf	3,6	;RP1=0, select bank0
  4819  0120  0485               	iorwf	5,f	;volatile
  4820  0121  29C8               	goto	i1l80
  4821  0122                     i1l1644:
  4822  0122  3001               	movlw	1
  4823  0123  00F2               	movwf	??i1_DIO_SetPinValue
  4824  0124  0A70               	incf	i1DIO_SetPinValue@u8PinIdCopy,w
  4825  0125  2928               	goto	u105_24
  4826  0126                     u105_25:
  4827  0126  1003               	clrc
  4828  0127  0DF2               	rlf	??i1_DIO_SetPinValue,f
  4829  0128                     u105_24:
  4830  0128  3EFF               	addlw	-1
  4831  0129  1D03               	skipz
  4832  012A  2926               	goto	u105_25
  4833  012B  0872               	movf	??i1_DIO_SetPinValue,w
  4834  012C  00FF               	movwf	btemp+1
  4835  012D  087F               	movf	btemp+1,w
  4836  012E  1283               	bcf	3,5	;RP0=0, select bank0
  4837  012F  1303               	bcf	3,6	;RP1=0, select bank0
  4838  0130  0486               	iorwf	6,f	;volatile
  4839  0131  29C8               	goto	i1l80
  4840  0132                     i1l1646:
  4841  0132  3001               	movlw	1
  4842  0133  00F2               	movwf	??i1_DIO_SetPinValue
  4843  0134  0A70               	incf	i1DIO_SetPinValue@u8PinIdCopy,w
  4844  0135  2938               	goto	u106_24
  4845  0136                     u106_25:
  4846  0136  1003               	clrc
  4847  0137  0DF2               	rlf	??i1_DIO_SetPinValue,f
  4848  0138                     u106_24:
  4849  0138  3EFF               	addlw	-1
  4850  0139  1D03               	skipz
  4851  013A  2936               	goto	u106_25
  4852  013B  0872               	movf	??i1_DIO_SetPinValue,w
  4853  013C  00FF               	movwf	btemp+1
  4854  013D  087F               	movf	btemp+1,w
  4855  013E  1283               	bcf	3,5	;RP0=0, select bank0
  4856  013F  1303               	bcf	3,6	;RP1=0, select bank0
  4857  0140  0487               	iorwf	7,f	;volatile
  4858  0141  29C8               	goto	i1l80
  4859  0142                     i1l1648:
  4860  0142  3001               	movlw	1
  4861  0143  00F2               	movwf	??i1_DIO_SetPinValue
  4862  0144  0A70               	incf	i1DIO_SetPinValue@u8PinIdCopy,w
  4863  0145  2948               	goto	u107_24
  4864  0146                     u107_25:
  4865  0146  1003               	clrc
  4866  0147  0DF2               	rlf	??i1_DIO_SetPinValue,f
  4867  0148                     u107_24:
  4868  0148  3EFF               	addlw	-1
  4869  0149  1D03               	skipz
  4870  014A  2946               	goto	u107_25
  4871  014B  0872               	movf	??i1_DIO_SetPinValue,w
  4872  014C  00FF               	movwf	btemp+1
  4873  014D  087F               	movf	btemp+1,w
  4874  014E  1283               	bcf	3,5	;RP0=0, select bank0
  4875  014F  1303               	bcf	3,6	;RP1=0, select bank0
  4876  0150  0488               	iorwf	8,f	;volatile
  4877  0151  29C8               	goto	i1l80
  4878  0152                     i1l1652:
  4879  0152  0874               	movf	i1DIO_SetPinValue@u8PortIdCopy,w
  4880  0153  00F2               	movwf	??i1_DIO_SetPinValue
  4881  0154  01F3               	clrf	??i1_DIO_SetPinValue+1
  4882                           
  4883                           ; Switch on 2 bytes has been partitioned into a top level switch of size 1, and 1 sub-sw
      +                          itches
  4884                           ; Switch size 1, requested type "simple"
  4885                           ; Number of cases is 1, Range of values is 0 to 0
  4886                           ; switch strategies available:
  4887                           ; Name         Instructions Cycles
  4888                           ; simple_byte            4     3 (average)
  4889                           ; direct_byte           11     8 (fixed)
  4890                           ; jumptable            260     6 (fixed)
  4891                           ;	Chosen strategy is simple_byte
  4892  0155  0873               	movf	??i1_DIO_SetPinValue+1,w
  4893  0156  3A00               	xorlw	0	; case 0
  4894  0157  1903               	skipnz
  4895  0158  295A               	goto	i1l2440
  4896  0159  29C8               	goto	i1l80
  4897  015A                     i1l2440:
  4898                           
  4899                           ; Switch size 1, requested type "simple"
  4900                           ; Number of cases is 4, Range of values is 0 to 3
  4901                           ; switch strategies available:
  4902                           ; Name         Instructions Cycles
  4903                           ; simple_byte           13     7 (average)
  4904                           ; direct_byte           20     8 (fixed)
  4905                           ; jumptable            260     6 (fixed)
  4906                           ;	Chosen strategy is simple_byte
  4907  015A  0872               	movf	??i1_DIO_SetPinValue,w
  4908  015B  3A00               	xorlw	0	; case 0
  4909  015C  1903               	skipnz
  4910  015D  2912               	goto	i1l1642
  4911  015E  3A01               	xorlw	1	; case 1
  4912  015F  1903               	skipnz
  4913  0160  2922               	goto	i1l1644
  4914  0161  3A03               	xorlw	3	; case 2
  4915  0162  1903               	skipnz
  4916  0163  2932               	goto	i1l1646
  4917  0164  3A01               	xorlw	1	; case 3
  4918  0165  1903               	skipnz
  4919  0166  2942               	goto	i1l1648
  4920  0167  29C8               	goto	i1l80
  4921  0168                     i1l1654:
  4922  0168  0871               	movf	i1DIO_SetPinValue@u8PinValCopy,w
  4923  0169  1D03               	btfss	3,2
  4924  016A  296C               	goto	u108_21
  4925  016B  296D               	goto	u108_20
  4926  016C                     u108_21:
  4927  016C  29C8               	goto	i1l70
  4928  016D                     u108_20:
  4929  016D  29B2               	goto	i1l1668
  4930  016E                     i1l1658:
  4931  016E  3001               	movlw	1
  4932  016F  00F2               	movwf	??i1_DIO_SetPinValue
  4933  0170  0A70               	incf	i1DIO_SetPinValue@u8PinIdCopy,w
  4934  0171  2974               	goto	u109_24
  4935  0172                     u109_25:
  4936  0172  1003               	clrc
  4937  0173  0DF2               	rlf	??i1_DIO_SetPinValue,f
  4938  0174                     u109_24:
  4939  0174  3EFF               	addlw	-1
  4940  0175  1D03               	skipz
  4941  0176  2972               	goto	u109_25
  4942  0177  0872               	movf	??i1_DIO_SetPinValue,w
  4943  0178  3AFF               	xorlw	255
  4944  0179  00FF               	movwf	btemp+1
  4945  017A  087F               	movf	btemp+1,w
  4946  017B  1283               	bcf	3,5	;RP0=0, select bank0
  4947  017C  1303               	bcf	3,6	;RP1=0, select bank0
  4948  017D  0585               	andwf	5,f	;volatile
  4949  017E  29C8               	goto	i1l80
  4950  017F                     i1l1660:
  4951  017F  3001               	movlw	1
  4952  0180  00F2               	movwf	??i1_DIO_SetPinValue
  4953  0181  0A70               	incf	i1DIO_SetPinValue@u8PinIdCopy,w
  4954  0182  2985               	goto	u110_24
  4955  0183                     u110_25:
  4956  0183  1003               	clrc
  4957  0184  0DF2               	rlf	??i1_DIO_SetPinValue,f
  4958  0185                     u110_24:
  4959  0185  3EFF               	addlw	-1
  4960  0186  1D03               	skipz
  4961  0187  2983               	goto	u110_25
  4962  0188  0872               	movf	??i1_DIO_SetPinValue,w
  4963  0189  3AFF               	xorlw	255
  4964  018A  00FF               	movwf	btemp+1
  4965  018B  087F               	movf	btemp+1,w
  4966  018C  1283               	bcf	3,5	;RP0=0, select bank0
  4967  018D  1303               	bcf	3,6	;RP1=0, select bank0
  4968  018E  0586               	andwf	6,f	;volatile
  4969  018F  29C8               	goto	i1l80
  4970  0190                     i1l1662:
  4971  0190  3001               	movlw	1
  4972  0191  00F2               	movwf	??i1_DIO_SetPinValue
  4973  0192  0A70               	incf	i1DIO_SetPinValue@u8PinIdCopy,w
  4974  0193  2996               	goto	u111_24
  4975  0194                     u111_25:
  4976  0194  1003               	clrc
  4977  0195  0DF2               	rlf	??i1_DIO_SetPinValue,f
  4978  0196                     u111_24:
  4979  0196  3EFF               	addlw	-1
  4980  0197  1D03               	skipz
  4981  0198  2994               	goto	u111_25
  4982  0199  0872               	movf	??i1_DIO_SetPinValue,w
  4983  019A  3AFF               	xorlw	255
  4984  019B  00FF               	movwf	btemp+1
  4985  019C  087F               	movf	btemp+1,w
  4986  019D  1283               	bcf	3,5	;RP0=0, select bank0
  4987  019E  1303               	bcf	3,6	;RP1=0, select bank0
  4988  019F  0587               	andwf	7,f	;volatile
  4989  01A0  29C8               	goto	i1l80
  4990  01A1                     i1l1664:
  4991  01A1  3001               	movlw	1
  4992  01A2  00F2               	movwf	??i1_DIO_SetPinValue
  4993  01A3  0A70               	incf	i1DIO_SetPinValue@u8PinIdCopy,w
  4994  01A4  29A7               	goto	u112_24
  4995  01A5                     u112_25:
  4996  01A5  1003               	clrc
  4997  01A6  0DF2               	rlf	??i1_DIO_SetPinValue,f
  4998  01A7                     u112_24:
  4999  01A7  3EFF               	addlw	-1
  5000  01A8  1D03               	skipz
  5001  01A9  29A5               	goto	u112_25
  5002  01AA  0872               	movf	??i1_DIO_SetPinValue,w
  5003  01AB  3AFF               	xorlw	255
  5004  01AC  00FF               	movwf	btemp+1
  5005  01AD  087F               	movf	btemp+1,w
  5006  01AE  1283               	bcf	3,5	;RP0=0, select bank0
  5007  01AF  1303               	bcf	3,6	;RP1=0, select bank0
  5008  01B0  0588               	andwf	8,f	;volatile
  5009  01B1  29C8               	goto	i1l80
  5010  01B2                     i1l1668:
  5011  01B2  0874               	movf	i1DIO_SetPinValue@u8PortIdCopy,w
  5012  01B3  00F2               	movwf	??i1_DIO_SetPinValue
  5013  01B4  01F3               	clrf	??i1_DIO_SetPinValue+1
  5014                           
  5015                           ; Switch on 2 bytes has been partitioned into a top level switch of size 1, and 1 sub-sw
      +                          itches
  5016                           ; Switch size 1, requested type "simple"
  5017                           ; Number of cases is 1, Range of values is 0 to 0
  5018                           ; switch strategies available:
  5019                           ; Name         Instructions Cycles
  5020                           ; simple_byte            4     3 (average)
  5021                           ; direct_byte           11     8 (fixed)
  5022                           ; jumptable            260     6 (fixed)
  5023                           ;	Chosen strategy is simple_byte
  5024  01B5  0873               	movf	??i1_DIO_SetPinValue+1,w
  5025  01B6  3A00               	xorlw	0	; case 0
  5026  01B7  1903               	skipnz
  5027  01B8  29BA               	goto	i1l2442
  5028  01B9  29C8               	goto	i1l70
  5029  01BA                     i1l2442:
  5030                           
  5031                           ; Switch size 1, requested type "simple"
  5032                           ; Number of cases is 4, Range of values is 0 to 3
  5033                           ; switch strategies available:
  5034                           ; Name         Instructions Cycles
  5035                           ; simple_byte           13     7 (average)
  5036                           ; direct_byte           20     8 (fixed)
  5037                           ; jumptable            260     6 (fixed)
  5038                           ;	Chosen strategy is simple_byte
  5039  01BA  0872               	movf	??i1_DIO_SetPinValue,w
  5040  01BB  3A00               	xorlw	0	; case 0
  5041  01BC  1903               	skipnz
  5042  01BD  296E               	goto	i1l1658
  5043  01BE  3A01               	xorlw	1	; case 1
  5044  01BF  1903               	skipnz
  5045  01C0  297F               	goto	i1l1660
  5046  01C1  3A03               	xorlw	3	; case 2
  5047  01C2  1903               	skipnz
  5048  01C3  2990               	goto	i1l1662
  5049  01C4  3A01               	xorlw	1	; case 3
  5050  01C5  1903               	skipnz
  5051  01C6  29A1               	goto	i1l1664
  5052  01C7  29C8               	goto	i1l70
  5053  01C8                     i1l70:
  5054  01C8                     i1l80:	
  5055                           ;DIO_Prog.c: 95:  }
  5056                           
  5057  01C8  0008               	return
  5058  01C9                     __end_ofi1_DIO_SetPinValue:
  5059                           
  5060                           	psect	text35
  5061  02FE                     __ptext35:	
  5062 ;; *************** function _DIO_GetPinValue *****************
  5063 ;; Defined at:
  5064 ;;		line 105 in file "DIO_Prog.c"
  5065 ;; Parameters:    Size  Location     Type
  5066 ;;  u8PortIdCopy    1    wreg     unsigned char 
  5067 ;;  u8PinIdCopy     1    0[COMMON] unsigned char 
  5068 ;; Auto vars:     Size  Location     Type
  5069 ;;  u8PortIdCopy    1    3[COMMON] unsigned char 
  5070 ;;  u8ResultLoca    1    4[COMMON] unsigned char 
  5071 ;; Return value:  Size  Location     Type
  5072 ;;                  1    wreg      unsigned char 
  5073 ;; Registers used:
  5074 ;;		wreg, fsr0l, fsr0h, status,2, status,0, btemp+1
  5075 ;; Tracked objects:
  5076 ;;		On entry : 0/0
  5077 ;;		On exit  : 0/0
  5078 ;;		Unchanged: 0/0
  5079 ;; Data sizes:     COMMON   BANK0   BANK1   BANK3   BANK2
  5080 ;;      Params:         1       0       0       0       0
  5081 ;;      Locals:         2       0       0       0       0
  5082 ;;      Temps:          2       0       0       0       0
  5083 ;;      Totals:         5       0       0       0       0
  5084 ;;Total ram usage:        5 bytes
  5085 ;; Hardware stack levels used:    1
  5086 ;; This function calls:
  5087 ;;		Nothing
  5088 ;; This function is called by:
  5089 ;;		_ISR
  5090 ;; This function uses a non-reentrant model
  5091 ;;
  5092                           
  5093                           
  5094                           ;psect for function _DIO_GetPinValue
  5095  02FE                     _DIO_GetPinValue:
  5096                           
  5097                           ;incstack = 0
  5098                           ; Regs used in _DIO_GetPinValue: [wreg-fsr0h+status,2+status,0+btemp+1]
  5099                           ;DIO_GetPinValue@u8PortIdCopy stored from wreg
  5100  02FE  00F3               	movwf	DIO_GetPinValue@u8PortIdCopy
  5101  02FF                     i1l2114:
  5102                           
  5103                           ;DIO_Prog.c: 105: u8 DIO_GetPinValue(u8 u8PortIdCopy, u8 u8PinIdCopy);DIO_Prog.c: 106: {
      +                          ;DIO_Prog.c: 108:  u8 u8ResultLocal;;DIO_Prog.c: 110:  if ((u8PortIdCopy <= 3) && (u8Pin
      +                          IdCopy <= 7))
  5104  02FF  3004               	movlw	4
  5105  0300  0273               	subwf	DIO_GetPinValue@u8PortIdCopy,w
  5106  0301  1803               	skipnc
  5107  0302  2B04               	goto	u181_21
  5108  0303  2B05               	goto	u181_20
  5109  0304                     u181_21:
  5110  0304  2B66               	goto	i1l2132
  5111  0305                     u181_20:
  5112  0305                     i1l2116:
  5113  0305  3008               	movlw	8
  5114  0306  0270               	subwf	DIO_GetPinValue@u8PinIdCopy,w
  5115  0307  1803               	skipnc
  5116  0308  2B0A               	goto	u182_21
  5117  0309  2B0B               	goto	u182_20
  5118  030A                     u182_21:
  5119  030A  2B66               	goto	i1l2132
  5120  030B                     u182_20:
  5121  030B  2B50               	goto	i1l2130
  5122  030C                     i1l2120:
  5123  030C  1283               	bcf	3,5	;RP0=0, select bank0
  5124  030D  1303               	bcf	3,6	;RP1=0, select bank0
  5125  030E  0805               	movf	5,w	;volatile
  5126  030F  00F1               	movwf	??_DIO_GetPinValue
  5127  0310  0A70               	incf	DIO_GetPinValue@u8PinIdCopy,w
  5128  0311  2B14               	goto	u183_24
  5129  0312                     u183_25:
  5130  0312  1003               	clrc
  5131  0313  0CF1               	rrf	??_DIO_GetPinValue,f
  5132  0314                     u183_24:
  5133  0314  3EFF               	addlw	-1
  5134  0315  1D03               	skipz
  5135  0316  2B12               	goto	u183_25
  5136  0317  0871               	movf	??_DIO_GetPinValue,w
  5137  0318  3901               	andlw	1
  5138  0319  00FF               	movwf	btemp+1
  5139  031A  087F               	movf	btemp+1,w
  5140  031B  00F4               	movwf	DIO_GetPinValue@u8ResultLocal
  5141  031C  2B6A               	goto	i1l2134
  5142  031D                     i1l2122:
  5143  031D  1283               	bcf	3,5	;RP0=0, select bank0
  5144  031E  1303               	bcf	3,6	;RP1=0, select bank0
  5145  031F  0806               	movf	6,w	;volatile
  5146  0320  00F1               	movwf	??_DIO_GetPinValue
  5147  0321  0A70               	incf	DIO_GetPinValue@u8PinIdCopy,w
  5148  0322  2B25               	goto	u184_24
  5149  0323                     u184_25:
  5150  0323  1003               	clrc
  5151  0324  0CF1               	rrf	??_DIO_GetPinValue,f
  5152  0325                     u184_24:
  5153  0325  3EFF               	addlw	-1
  5154  0326  1D03               	skipz
  5155  0327  2B23               	goto	u184_25
  5156  0328  0871               	movf	??_DIO_GetPinValue,w
  5157  0329  3901               	andlw	1
  5158  032A  00FF               	movwf	btemp+1
  5159  032B  087F               	movf	btemp+1,w
  5160  032C  00F4               	movwf	DIO_GetPinValue@u8ResultLocal
  5161  032D  2B6A               	goto	i1l2134
  5162  032E                     i1l2124:
  5163  032E  1283               	bcf	3,5	;RP0=0, select bank0
  5164  032F  1303               	bcf	3,6	;RP1=0, select bank0
  5165  0330  0807               	movf	7,w	;volatile
  5166  0331  00F1               	movwf	??_DIO_GetPinValue
  5167  0332  0A70               	incf	DIO_GetPinValue@u8PinIdCopy,w
  5168  0333  2B36               	goto	u185_24
  5169  0334                     u185_25:
  5170  0334  1003               	clrc
  5171  0335  0CF1               	rrf	??_DIO_GetPinValue,f
  5172  0336                     u185_24:
  5173  0336  3EFF               	addlw	-1
  5174  0337  1D03               	skipz
  5175  0338  2B34               	goto	u185_25
  5176  0339  0871               	movf	??_DIO_GetPinValue,w
  5177  033A  3901               	andlw	1
  5178  033B  00FF               	movwf	btemp+1
  5179  033C  087F               	movf	btemp+1,w
  5180  033D  00F4               	movwf	DIO_GetPinValue@u8ResultLocal
  5181  033E  2B6A               	goto	i1l2134
  5182  033F                     i1l2126:
  5183  033F  1283               	bcf	3,5	;RP0=0, select bank0
  5184  0340  1303               	bcf	3,6	;RP1=0, select bank0
  5185  0341  0808               	movf	8,w	;volatile
  5186  0342  00F1               	movwf	??_DIO_GetPinValue
  5187  0343  0A70               	incf	DIO_GetPinValue@u8PinIdCopy,w
  5188  0344  2B47               	goto	u186_24
  5189  0345                     u186_25:
  5190  0345  1003               	clrc
  5191  0346  0CF1               	rrf	??_DIO_GetPinValue,f
  5192  0347                     u186_24:
  5193  0347  3EFF               	addlw	-1
  5194  0348  1D03               	skipz
  5195  0349  2B45               	goto	u186_25
  5196  034A  0871               	movf	??_DIO_GetPinValue,w
  5197  034B  3901               	andlw	1
  5198  034C  00FF               	movwf	btemp+1
  5199  034D  087F               	movf	btemp+1,w
  5200  034E  00F4               	movwf	DIO_GetPinValue@u8ResultLocal
  5201  034F  2B6A               	goto	i1l2134
  5202  0350                     i1l2130:
  5203  0350  0873               	movf	DIO_GetPinValue@u8PortIdCopy,w
  5204  0351  00F1               	movwf	??_DIO_GetPinValue
  5205  0352  01F2               	clrf	??_DIO_GetPinValue+1
  5206                           
  5207                           ; Switch on 2 bytes has been partitioned into a top level switch of size 1, and 1 sub-sw
      +                          itches
  5208                           ; Switch size 1, requested type "simple"
  5209                           ; Number of cases is 1, Range of values is 0 to 0
  5210                           ; switch strategies available:
  5211                           ; Name         Instructions Cycles
  5212                           ; simple_byte            4     3 (average)
  5213                           ; direct_byte           11     8 (fixed)
  5214                           ; jumptable            260     6 (fixed)
  5215                           ;	Chosen strategy is simple_byte
  5216  0353  0872               	movf	??_DIO_GetPinValue+1,w
  5217  0354  3A00               	xorlw	0	; case 0
  5218  0355  1903               	skipnz
  5219  0356  2B58               	goto	i1l2444
  5220  0357  2B6A               	goto	i1l2134
  5221  0358                     i1l2444:
  5222                           
  5223                           ; Switch size 1, requested type "simple"
  5224                           ; Number of cases is 4, Range of values is 0 to 3
  5225                           ; switch strategies available:
  5226                           ; Name         Instructions Cycles
  5227                           ; simple_byte           13     7 (average)
  5228                           ; direct_byte           20     8 (fixed)
  5229                           ; jumptable            260     6 (fixed)
  5230                           ;	Chosen strategy is simple_byte
  5231  0358  0871               	movf	??_DIO_GetPinValue,w
  5232  0359  3A00               	xorlw	0	; case 0
  5233  035A  1903               	skipnz
  5234  035B  2B0C               	goto	i1l2120
  5235  035C  3A01               	xorlw	1	; case 1
  5236  035D  1903               	skipnz
  5237  035E  2B1D               	goto	i1l2122
  5238  035F  3A03               	xorlw	3	; case 2
  5239  0360  1903               	skipnz
  5240  0361  2B2E               	goto	i1l2124
  5241  0362  3A01               	xorlw	1	; case 3
  5242  0363  1903               	skipnz
  5243  0364  2B3F               	goto	i1l2126
  5244  0365  2B6A               	goto	i1l2134
  5245  0366                     i1l2132:
  5246                           
  5247                           ;DIO_Prog.c: 123:  {;DIO_Prog.c: 125:   u8ResultLocal = 0xFF;
  5248  0366  30FF               	movlw	255
  5249  0367  00FF               	movwf	btemp+1
  5250  0368  087F               	movf	btemp+1,w
  5251  0369  00F4               	movwf	DIO_GetPinValue@u8ResultLocal
  5252  036A                     i1l2134:
  5253                           
  5254                           ;DIO_Prog.c: 128:  return u8ResultLocal;
  5255  036A  0874               	movf	DIO_GetPinValue@u8ResultLocal,w
  5256  036B                     i1l91:
  5257  036B  0008               	return
  5258  036C                     __end_of_DIO_GetPinValue:
  5259  0006                     
  5260                           	psect	functab
  5261  0023                     __pfunctab:
  5262  0023                     fptable:
  5263  0023  2823               	goto	fptable	;no entries
  5264  0024                     __i1fptable:
  5265  0024                     i1fptable:
  5266  0024  00FF               	movwf	(btemp+1)& (0+127)
  5267  0025  3000               	movlw	high i1fptable
  5268  0026  008A               	movwf	10
  5269  0027  087F               	movf	(btemp+1)& (0+127),w
  5270  0028  0782               	addwf	2,f
  5271  0029                     i1fpbase:
  5272  0029  2829               	goto	i1fpbase	; Call via a null pointer and you will get stuck here.
  5273  002A                     fp__RB0_Handler:
  5274  002A  120A  158A  2F70   	ljmp	_RB0_Handler
  5275  002D                     fp__RB4_Handler:
  5276  002D  120A  158A  2FE3   	ljmp	_RB4_Handler
  5277  0030                     fp__RB5_Handler:
  5278  0030  120A  158A  2FAD   	ljmp	_RB5_Handler
  5279  0033                     __end_of__i1fptable:
  5280  007E                     btemp	set	126	;btemp
  5281  007E                     wtemp0	set	126
  5282                           
  5283                           	psect	config
  5284                           
  5285                           ;Config register CONFIG @ 0x2007
  5286                           ;	Oscillator Selection bits
  5287                           ;	FOSC = XT, XT oscillator
  5288                           ;	Watchdog Timer Enable bit
  5289                           ;	WDTE = OFF, WDT disabled
  5290                           ;	Power-up Timer Enable bit
  5291                           ;	PWRTE = ON, PWRT enabled
  5292                           ;	Brown-out Reset Enable bit
  5293                           ;	BOREN = ON, BOR enabled
  5294                           ;	Low-Voltage (Single-Supply) In-Circuit Serial Programming Enable bit
  5295                           ;	LVP = OFF, RB3 is digital I/O, HV on MCLR must be used for programming
  5296                           ;	Data EEPROM Memory Code Protection bit
  5297                           ;	CPD = OFF, Data EEPROM code protection off
  5298                           ;	Flash Program Memory Write Enable bits
  5299                           ;	WRT = OFF, Write protection off; all program memory may be written to by EECON control
  5300                           ;	In-Circuit Debugger Mode bit
  5301                           ;	DEBUG = 0x1, unprogrammed default
  5302                           ;	Flash Program Memory Code Protection bit
  5303                           ;	CP = OFF, Code protection off
  5304  2007                     	org	8199
  5305  2007  3F71               	dw	16241

Data Sizes:
    Strings     0
    Constant    20
    Data        0
    BSS         8
    Persistent  1
    Stack       0

Auto Spaces:
    Space          Size  Autos    Used
    COMMON           14     14      14
    BANK0            80     23      32
    BANK1            80      0       0
    BANK3            96      0       0
    BANK2            96      0       0

Pointer List with Targets:

    RB5_SetCallBack@pFun	PTR FTN()void  size(1) Largest target is 1
		 -> RB5_Handler(), 

    GptrToFun_RB5	PTR FTN()void  size(1) Largest target is 1
		 -> Absolute function(), RB5_Handler(), 

    RB4_SetCallBack@pFun	PTR FTN()void  size(1) Largest target is 1
		 -> RB4_Handler(), 

    GptrToFun_RB4	PTR FTN()void  size(1) Largest target is 1
		 -> Absolute function(), RB4_Handler(), 

    RB0_SetCallBack@pFun	PTR FTN()void  size(1) Largest target is 1
		 -> RB0_Handler(), 

    GptrToFun_RB0	PTR FTN()void  size(1) Largest target is 1
		 -> Absolute function(), RB0_Handler(), 


Critical Paths under _main in COMMON

    None.

Critical Paths under _ISR in COMMON

    i1_ON_Mode->i1_vid_7_Segment_Display_2Digits
    i1_vid_7_Segment_Display_2Digits->i1___awdiv
    i1_vid_Right_7_Segment_DisplayNumber->i1_DIO_SetPinValue
    i1_vid_Left_7_Segment_DisplayNumber->i1_DIO_SetPinValue
    i1_vid_7_Segment_DeInit->i1_DIO_SetPinValue

Critical Paths under _main in BANK0

    _main->_SetTemp_Mode
    _vid_7_Segment_Init->_DIO_SetPinDirection
    _vid_7_Segment_Init->_DIO_SetPinValue
    _SetTemp_Mode->_vid_7_Segment_Display_2Digits
    _SetCallBacks->_RB0_SetCallBack
    _SetCallBacks->_RB4_SetCallBack
    _SetCallBacks->_RB5_SetCallBack
    _ON_Mode->_vid_7_Segment_Display_2Digits
    _vid_7_Segment_Display_2Digits->___awdiv
    _vid_Right_7_Segment_DisplayNumber->_DIO_SetPinValue
    _vid_Left_7_Segment_DisplayNumber->_DIO_SetPinValue
    _vid_7_Segment_DeInit->_DIO_SetPinValue
    _EXT_INT_Init->_DIO_SetPinDirection

Critical Paths under _ISR in BANK0

    None.

Critical Paths under _main in BANK1

    None.

Critical Paths under _ISR in BANK1

    None.

Critical Paths under _main in BANK3

    None.

Critical Paths under _ISR in BANK3

    None.

Critical Paths under _main in BANK2

    None.

Critical Paths under _ISR in BANK2

    None.

Call Graph Tables:

 ---------------------------------------------------------------------------------
 (Depth) Function   	        Calls       Base Space   Used Autos Params    Refs
 ---------------------------------------------------------------------------------
 (0) _main                                                 0     0      0   22738
                       _EXT_INT_Init
                           _OFF_Mode
                            _ON_Mode
                       _SetCallBacks
                       _SetTemp_Mode
                    _SystemVars_Init
                 _vid_7_Segment_Init
 ---------------------------------------------------------------------------------
 (1) _vid_7_Segment_Init                                   0     0      0    3420
                _DIO_SetPinDirection
                    _DIO_SetPinValue
               _DIO_SetPortDirection
                   _DIO_SetPortValue
 ---------------------------------------------------------------------------------
 (2) _DIO_SetPortDirection                                 4     3      1     186
                                              5 BANK0      4     3      1
 ---------------------------------------------------------------------------------
 (1) _SystemVars_Init                                      0     0      0       0
 ---------------------------------------------------------------------------------
 (1) _SetTemp_Mode                                         4     4      0    9116
                                             19 BANK0      4     4      0
               _vid_7_Segment_DeInit
      _vid_7_Segment_Display_2Digits
 ---------------------------------------------------------------------------------
 (1) _SetCallBacks                                         0     0      0      66
                    _RB0_SetCallBack
                    _RB4_SetCallBack
                    _RB5_SetCallBack
 ---------------------------------------------------------------------------------
 (2) _RB5_SetCallBack                                      1     1      0      22
                                              5 BANK0      1     1      0
 ---------------------------------------------------------------------------------
 (2) _RB4_SetCallBack                                      1     1      0      22
                                              5 BANK0      1     1      0
 ---------------------------------------------------------------------------------
 (2) _RB0_SetCallBack                                      1     1      0      22
                                              5 BANK0      1     1      0
 ---------------------------------------------------------------------------------
 (1) _ON_Mode                                              0     0      0    7240
      _vid_7_Segment_Display_2Digits
 ---------------------------------------------------------------------------------
 (2) _vid_7_Segment_Display_2Digits                        6     6      0    7240
                                             13 BANK0      6     6      0
                    _DIO_SetPinValue
                            ___awdiv
                            ___awmod
   _vid_Left_7_Segment_DisplayNumber
  _vid_Right_7_Segment_DisplayNumber
 ---------------------------------------------------------------------------------
 (3) _vid_Right_7_Segment_DisplayNumber                    1     1      0    2188
                                             10 BANK0      1     1      0
                    _DIO_SetPinValue
                   _DIO_SetPortValue
 ---------------------------------------------------------------------------------
 (3) _vid_Left_7_Segment_DisplayNumber                     1     1      0    2188
                                             10 BANK0      1     1      0
                    _DIO_SetPinValue
                   _DIO_SetPortValue
 ---------------------------------------------------------------------------------
 (2) _DIO_SetPortValue                                     4     3      1     338
                                              5 BANK0      4     3      1
 ---------------------------------------------------------------------------------
 (3) ___awmod                                              6     2      4     448
                                              5 BANK0      6     2      4
 ---------------------------------------------------------------------------------
 (3) ___awdiv                                              8     4      4     452
                                              5 BANK0      8     4      4
 ---------------------------------------------------------------------------------
 (1) _OFF_Mode                                             0     0      0    1828
               _vid_7_Segment_DeInit
 ---------------------------------------------------------------------------------
 (2) _vid_7_Segment_DeInit                                 0     0      0    1828
                    _DIO_SetPinValue
 ---------------------------------------------------------------------------------
 (2) _DIO_SetPinValue                                      5     3      2    1828
                                              5 BANK0      5     3      2
 ---------------------------------------------------------------------------------
 (1) _EXT_INT_Init                                         0     0      0    1068
                _DIO_SetPinDirection
 ---------------------------------------------------------------------------------
 (2) _DIO_SetPinDirection                                  5     3      2    1068
                                              5 BANK0      5     3      2
 ---------------------------------------------------------------------------------
 Estimated maximum stack depth 3
 ---------------------------------------------------------------------------------
 (Depth) Function   	        Calls       Base Space   Used Autos Params    Refs
 ---------------------------------------------------------------------------------
 (5) _ISR                                                  5     5      0    4433
                                              0 BANK0      5     5      0
                   Absolute function *
                    _DIO_GetPinValue
                        _RB0_Handler *
                        _RB4_Handler *
                        _RB5_Handler *
 ---------------------------------------------------------------------------------
 (6) _RB5_Handler                                          0     0      0       0
 ---------------------------------------------------------------------------------
 (6) _RB4_Handler                                          0     0      0       0
 ---------------------------------------------------------------------------------
 (6) _RB0_Handler                                          0     0      0    4100
                         i1_OFF_Mode
                          i1_ON_Mode
 ---------------------------------------------------------------------------------
 (7) i1_ON_Mode                                            0     0      0    3376
    i1_vid_7_Segment_Display_2Digits
 ---------------------------------------------------------------------------------
 (8) i1_vid_7_Segment_Display_2Digits                      6     6      0    3376
                                              8 COMMON     6     6      0
                  i1_DIO_SetPinValue
                          i1___awdiv
                          i1___awmod
 i1_vid_Left_7_Segment_DisplayNumber
i1_vid_Right_7_Segment_DisplayNumber
 ---------------------------------------------------------------------------------
 (9) i1_vid_Right_7_Segment_DisplayNumber                  1     1      0     908
                                              5 COMMON     1     1      0
                  i1_DIO_SetPinValue
                 i1_DIO_SetPortValue
 ---------------------------------------------------------------------------------
 (9) i1_vid_Left_7_Segment_DisplayNumber                   1     1      0     908
                                              5 COMMON     1     1      0
                  i1_DIO_SetPinValue
                 i1_DIO_SetPortValue
 ---------------------------------------------------------------------------------
 (10) i1_DIO_SetPortValue                                  4     3      1     162
                                              0 COMMON     4     3      1
 ---------------------------------------------------------------------------------
 (9) i1___awmod                                            6     2      4     348
                                              0 COMMON     6     2      4
 ---------------------------------------------------------------------------------
 (9) i1___awdiv                                            8     4      4     352
                                              0 COMMON     8     4      4
 ---------------------------------------------------------------------------------
 (7) i1_OFF_Mode                                           0     0      0     724
             i1_vid_7_Segment_DeInit
 ---------------------------------------------------------------------------------
 (8) i1_vid_7_Segment_DeInit                               0     0      0     724
                  i1_DIO_SetPinValue
 ---------------------------------------------------------------------------------
 (10) i1_DIO_SetPinValue                                   5     3      2     724
                                              0 COMMON     5     3      2
 ---------------------------------------------------------------------------------
 (6) _DIO_GetPinValue                                      5     4      1     333
                                              0 COMMON     5     4      1
 ---------------------------------------------------------------------------------
 (6) Absolute function(Fake)                               0     0      0       0
 ---------------------------------------------------------------------------------
 Estimated maximum stack depth 10
 ---------------------------------------------------------------------------------

 Call Graph Graphs:

 _main (ROOT)
   _EXT_INT_Init
     _DIO_SetPinDirection
   _OFF_Mode
     _vid_7_Segment_DeInit
       _DIO_SetPinValue
   _ON_Mode
     _vid_7_Segment_Display_2Digits
       _DIO_SetPinValue
       ___awdiv
       ___awmod
       _vid_Left_7_Segment_DisplayNumber
         _DIO_SetPinValue
         _DIO_SetPortValue
       _vid_Right_7_Segment_DisplayNumber
         _DIO_SetPinValue
         _DIO_SetPortValue
   _SetCallBacks
     _RB0_SetCallBack
     _RB4_SetCallBack
     _RB5_SetCallBack
   _SetTemp_Mode
     _vid_7_Segment_DeInit
       _DIO_SetPinValue
     _vid_7_Segment_Display_2Digits
       _DIO_SetPinValue
       ___awdiv
       ___awmod
       _vid_Left_7_Segment_DisplayNumber
         _DIO_SetPinValue
         _DIO_SetPortValue
       _vid_Right_7_Segment_DisplayNumber
         _DIO_SetPinValue
         _DIO_SetPortValue
   _SystemVars_Init
   _vid_7_Segment_Init
     _DIO_SetPinDirection
     _DIO_SetPinValue
     _DIO_SetPortDirection
     _DIO_SetPortValue

 _ISR (ROOT)
   Absolute function(Fake) *
   _DIO_GetPinValue *
   _RB0_Handler *
     i1_OFF_Mode
       i1_vid_7_Segment_DeInit
         i1_DIO_SetPinValue
     i1_ON_Mode
       i1_vid_7_Segment_Display_2Digits
         i1_DIO_SetPinValue
         i1___awdiv
         i1___awmod
         i1_vid_Left_7_Segment_DisplayNumber
           i1_DIO_SetPinValue
           i1_DIO_SetPortValue
         i1_vid_Right_7_Segment_DisplayNumber
           i1_DIO_SetPinValue
           i1_DIO_SetPortValue
   _RB4_Handler *
   _RB5_Handler *

 Address spaces:
Name               Size   Autos  Total    Cost      Usage
BITCOMMON            E      0       0       0        0.0%
EEDATA             100      0       0       0        0.0%
NULL                 0      0       0       0        0.0%
CODE                 0      0       0       0        0.0%
COMMON               E      E       E       1      100.0%
BITSFR0              0      0       0       1        0.0%
SFR0                 0      0       0       1        0.0%
BITSFR1              0      0       0       2        0.0%
SFR1                 0      0       0       2        0.0%
STACK                0      0       0       2        0.0%
ABS                  0      0      2E       3        0.0%
BITBANK0            50      0       0       4        0.0%
BITSFR3              0      0       0       4        0.0%
SFR3                 0      0       0       4        0.0%
BANK0               50     17      20       5       40.0%
BITSFR2              0      0       0       5        0.0%
SFR2                 0      0       0       5        0.0%
BITBANK1            50      0       0       6        0.0%
BANK1               50      0       0       7        0.0%
BITBANK3            60      0       0       8        0.0%
BANK3               60      0       0       9        0.0%
BITBANK2            60      0       0      10        0.0%
BANK2               60      0       0      11        0.0%
DATA                 0      0      2E      12        0.0%


Microchip Technology PIC Macro Assembler V2.20 build 20200408173844 
Symbol Table                                                                                   Sat Jul 11 12:57:08 2020

                                           pc 0002                                            l70 0284  
                                          l80 0284                                            l49 00FE  
                                          l59 00FE                                  ___awdiv@sign 002A  
                                          fsr 0004                                  ?_RB0_Handler 0070  
                           ??_DIO_GetPinValue 0071                                           l101 06A7  
                                         l111 079D                                           l130 0F47  
                                         l211 07FC                                           l124 0F37  
                                         l133 070E                                           l214 0F6F  
                                         l127 0F3F                                           l208 0F95  
                                         l217 0F59                                           l227 0637  
                                         l163 05FC                                           l172 073E  
                                         l166 0FE2                                           l502 04FF  
                                         l169 076E                                           l177 02FD  
                                         l489 03D4                                           _ISR 0500  
                                         fsr0 0004                                  ___awmod@sign 002A  
                                ?_RB4_Handler 0070                                  ?_RB5_Handler 0070  
                                        ?_ISR 0070                                          l2000 0675  
                                        l2002 067C                                          l2010 0691  
                                        l2020 0F3B                                          l2100 060A  
                                        l2004 0683                                          l2022 0F43  
                                        l2110 0630                                          l2102 0615  
                                        l2006 068A                                          l2024 0FC8  
                                        l2040 02D9                                          l2112 0636  
                                        l2104 0623                                          l2042 02DF  
                                        l2034 02B5                                          l2026 0288  
                                        l2018 0F33                                          l2106 062A  
                                        l2044 02E5                                          l2036 02BB  
                                        l2028 02B4                                          l2108 062C  
                                        l2060 07FA                                          l2070 070B  
                                        l2038 02C6                                          l2062 07FB  
                                        l2054 07F2                                          l2072 070C  
                                        l2064 06DD                                          l2080 0F51  
                                        l2056 07F5                                          l2074 070D  
                                        l2066 0701                                          l2082 0F54  
                                        l2090 05FD                                          l2058 07F9  
                                        l2068 0707                                          l1700 01D8  
                                        l2084 0F65                                          l2092 0604  
                                        l2076 05B4                                          l2180 0651  
                                        l2172 0638                                          l2430 021E  
                                        l1710 0208                                          l2086 0F69  
                                        l2078 0F83                                          l2094 0609  
                                        l2182 0658                                          l2174 063D  
                                        l2432 0276                                          l1720 0232  
                                        l1704 01DE                                          l2088 05FD  
                                        l2184 065E                                          l2176 0642  
                                        l2434 0094                                          l1722 0241  
                                        l1730 026E                                          l1706 01EC  
                                        l1714 0216                                          l2426 0699  
                                        l2186 0663                                          l2178 064C  
                                        l2436 00F0                                          l1724 0250  
                                        l1708 01FA                                          l1716 022C  
                                        l1900 04B1                                          l2428 078F  
                                        l1740 0772                                          l2188 0668  
                                        l1726 025F                                          l1910 04C5  
                                        l1902 04B3                                          l1742 0773  
                                        l1920 04E4                                          l1912 04CC  
                                        l1904 04B7                                          l1744 0778  
                                        l1752 0787                                          l1850 036C  
                                        l1922 04EB                                          l1914 04D0  
                                        l1906 04BC                                          l1746 077D  
                                        l1860 037E                                          l1852 036F  
                                        l1916 04D4                                          l1908 04C2  
                                        l1924 04F1                                          l1748 0782  
                                        l1870 0392                                          l1862 0383  
                                        l1854 0373                                          l1926 04F6  
                                        l1918 04DE                                          l1846 0742  
                                        l1696 01CC                                          l1880 03B8  
                                        l1872 0399                                          l1864 0387  
                                        l1856 0378                                          l1928 04FB  
                                        l1848 0712                                          l1962 0048  
                                        l1954 0036                                          l1698 01D2  
                                        l1890 03D0                                          l1882 03B9  
                                        l1874 039D                                          l1866 0389  
                                        l1858 037A                                          l1980 00B8  
                                        l1964 0059                                          l1972 008C  
                                        l1956 003C                                          l1884 03C0  
                                        l1876 03A1                                          l1868 038F  
                                        l1982 00C8                                          l1966 006A  
                                        l1974 00A2                                          l1958 0042  
                                        l1878 03B2                                          l1886 03C6  
                                        l1894 04A5                                          l1984 00D8  
                                        l1968 007B                                          l1888 03CB  
                                        l1896 04A8                                          l1978 00A8  
                                        l1898 04AC                                          l1988 00E8  
                                        l1998 0674                                          u1200 0231  
                                        u1201 0230                                          u1130 01D2  
                                        u1131 01D1                                          u1140 01D8  
                                        u1141 01D7                                          u1214 0238  
                                        u1150 01DD                                          u1215 0236  
                                        u1151 01DC                                          u1224 0247  
                                        u1225 0245                                          u2017 061D  
                                        u1234 0256                                          u1235 0254  
                                        u2027 02C1                                          u1244 0265  
                                        u1164 01E4                                          u1500 03B2  
                                        u1245 0263                                          u1165 01E2  
                                        u1501 03B1                                          u2037 02D4  
                                        u1174 01F2                                          u1175 01F0  
                                        u1184 0200                                          u1520 03C6  
                                        u1440 0373                                          u1185 01FE  
                                        u1521 03C5                                          u1505 03AE  
                                        u1441 0372                                          u1194 020E  
                                        u1530 03CB                                          u1450 037E  
                                        u1610 04F1                                          u1195 020C  
                                        u1531 03CA                                          u1515 03BA  
                                        u1451 037D                                          u1611 04F0  
                                        u1460 038F                                          u1620 04F6  
                                        u1540 04AC                                          u1461 038E  
                                        u1621 04F5                                          u1605 04E5  
                                        u1541 04AB                                          u1710 00A7  
                                        u1550 04B7                                          u1711 00A6  
                                        u1551 04B6                                          u1704 0081  
                                        u1640 003C                                          u1480 03A1  
                                        u1560 04C2                                          u1800 0636  
                                        u1705 007F                                          u1641 003B  
                                        u1481 03A0                                          u1561 04C1  
                                        u1801 0635                                          u1650 0042  
                                        u1651 0041                                          u1475 0393  
                                        u1724 00AE                                          u1660 0047  
                                        u1580 04D4                                          u1725 00AC  
                                        u1661 0046                                          u1581 04D3  
                                        u1734 00BE                                          u1590 04DE  
                                        u1735 00BC                                          u1495 03A2  
                                        u1591 04DD                                          u1575 04C6  
                                        u1744 00CE                                          u1760 02E5  
                                        u1745 00CC                                          u1761 02E4  
                                        u1754 00DE                                          u1674 004E  
                                        u1770 0604                                          u1755 00DC  
                                        u1675 004C                                          u1595 04DA  
                                        u1771 0603                                          u1684 005F  
                                        u1780 0609                                          u1940 0658  
                                        u1685 005D                                          u1781 0608  
                                        u1941 0657                                          u1694 0070  
                                        u1790 062A                                          u1950 0663  
                                        u1695 006E                                          u1791 0629  
                                        u1951 0662                                          i1l70 01C8  
                                        i1l80 01C8                                          i1l91 036B  
                  i1DIO_SetPortValue@u8PortId 0073                      __size_of_RB4_SetCallBack 0008  
                                        _main 0638                                   ?i1_OFF_Mode 0070  
                                        btemp 007E                               __end_of_ON_Mode 0F70  
                           i1_DIO_SetPinValue 00FF                                          start 0012  
                          ?i1_DIO_SetPinValue 0070                      __size_of_DIO_SetPinValue 00BC  
                                       ??_ISR 0020                 i1DIO_SetPinValue@u8PinValCopy 0071  
                    __size_of_SystemVars_Init 000B                           ??i1_DIO_SetPinValue 0072  
                                       ?_main 0070                                i1___awdiv@sign 0075  
                             __end_of___awdiv 03D5                               __end_of___awmod 0500  
                             ___awdiv@divisor 0025                              __end_of_OFF_Mode 0F5A  
                          __size_ofi1_ON_Mode 000B                                         i1l111 06DC  
                                       i1l214 0F64                                         i1l232 0F82  
                                       i1l240 0FFF                                         i1l217 0F50  
                                       i1l241 0FFF                                         i1l250 0FC7  
                                       i1l146 054E                                         i1l138 0517  
                                       i1l172 07C7                                         i1l166 0FAC  
                                       i1l502 05B3                                         i1l169 07F1  
                                       i1l177 043D                                         i1l249 0FC7  
                                       i1l489 04A4                               ___awdiv@counter 0029  
                              i1___awmod@sign 0075                                         fpbase 0000  
                                       pclath 000A                     __end_ofi1_DIO_SetPinValue 01C9  
                    __size_of_RB5_SetCallBack 0008                                         status 0003  
                                       wtemp0 007E                            __size_ofi1___awdiv 0067  
                          __size_ofi1___awmod 0059                 i1DIO_SetPinValue@u8PortIdCopy 0074  
                             __initialization 0015                                  __end_of_main 0671  
              DIO_SetPinDirection@u8PinIdCopy 0025                            i1_DIO_SetPortValue 06A8  
                                      ??_main 0037                           __size_ofi1_OFF_Mode 0009  
                         ?i1_DIO_SetPortValue 0070                                 ?_SetCallBacks 0070  
                               _GptrToFun_RB0 0039                                 _GptrToFun_RB4 0038  
                               _GptrToFun_RB5 0037                                     ??_ON_Mode 0033  
                            ___awdiv@dividend 0027                               _RB0_SetCallBack 0F30  
                __end_of_DIO_SetPortDirection 06A8                            _vid_7_Segment_Init 05B4  
                                      u101_20 0106                                        u101_21 0105  
                                      u102_20 010C                                        u102_21 010B  
                                      u110_24 0185                                        u110_25 0183  
                                      i1l2120 030C                                        u103_20 0111  
                                      i1l2200 0533                                        u103_21 0110  
                                      i1l2122 031D                                        i1l2130 0350  
                                      i1l2114 02FF                                        i1l2050 0F48  
                                      i1l2202 0542                                        i1l2124 032E  
                                      i1l2116 0305                                        i1l2132 0366  
                                      u111_24 0196                                        i1l2052 0F4B  
                                      i1l2204 054A                                        u111_25 0194  
                                      i1l2126 033F                                        i1l2134 036A  
                                      i1l2046 0F5A                                        i1l2142 0F70  
                                      i1l2150 0FEA                                        i1l2048 0F5E  
                                      i1l2144 0F77                                        i1l2152 0FED  
                                      i1l2160 0FAD                                        u200_20 0542  
                                      u200_21 0541                                        i1l2146 0F7D  
                                      i1l2154 0FF2                                        i1l2170 0FC4  
                                      i1l2162 0FB4                                        u112_24 01A7  
                                      u104_24 0118                                        i1l2156 0FF8  
                                      i1l2148 0FE3                                        i1l2164 0FB7  
                                      u112_25 01A5                                        u104_25 0116  
                                      i1l2158 0FFC                                        i1l2166 0FBC  
                                      i1l2190 0500                                        i1l2440 015A  
                                      i1l1800 0496                                        i1l2168 0FC2  
                                      i1l2192 050C                                        i1l2442 01BA  
                                      i1l1642 0112                                        i1l1634 0100  
                                      i1l1802 049B                                        i1l1810 055C  
                                      i1l2194 0512                                        i1l2444 0358  
                                      i1l1660 017F                                        u105_24 0128  
                                      i1l1644 0122                                        i1l1652 0152  
                                      i1l1636 0106                                        i1l1804 04A0  
                                      i1l1820 0570                                        i1l1812 0560  
                                      i1l2196 051B                                        u105_25 0126  
                                      i1l1662 0190                                        i1l1646 0132  
                                      i1l1654 0168                                        i1l1638 010C  
                                      i1l1830 0588                                        i1l1822 0576  
                                      i1l1814 0565                                        i1l2438 06CE  
                                      i1l2198 052A                                        i1l1664 01A1  
                                      i1l1648 0142                                        i1l1840 05AA  
                                      i1l1832 0592                                        i1l1824 0579  
                                      i1l1816 0567                                        i1l1808 055B  
                                      i1l1680 06AA                                        i1l1760 07C9  
                                      i1l1658 016E                                        i1l1770 0448  
                                      i1l1842 05AF                                        i1l1834 0598  
                                      i1l1826 0580                                        i1l1818 056B  
                                      i1l1682 06B1                                        i1l1690 06C6  
                                      i1l1762 079F                                        i1l1668 01B2  
                                      u106_24 0138                                        i1l1932 0F96  
                                      i1l1780 0459                                        i1l1772 044A  
                                      i1l1764 043E                                        i1l1836 059F  
                                      i1l1828 0584                                        i1l1684 06B8  
                                      u106_25 0136                                        u130_25 0472  
                                      i1l1790 0471                                        i1l1782 045F  
                                      i1l1774 044E                                        i1l1766 043F  
                                      i1l1838 05A5                                        i1l1686 06BF  
                                      i1l1678 06A9                                        i1l1950 0421  
                                      i1l1942 03FF                                        i1l1934 03D6  
                                      i1l1792 0482                                        u131_20 0482  
                                      i1l1784 0462                                        i1l1776 0453  
                                      i1l1768 0443                                        i1l1952 0427  
                                      i1l1944 0405                                        i1l1936 03FE  
                                      u131_21 0481                                        i1l1794 0488  
                                      i1l1786 0469                                        i1l1778 0457  
                                      i1l1946 040E                                        u107_24 0148  
                                      i1l1796 0489                                        i1l1788 046D  
                                      i1l1948 041D                                        u107_25 0146  
                                      u131_25 047E                                        i1l1798 0490  
                                      u108_20 016D                                        u140_20 0592  
                                      u108_21 016C                                        u140_21 0591  
                                      u132_25 048A                                        u140_25 058E  
                                      u204_27 0409                                        u133_20 0496  
                                      u125_20 0443                                        u133_21 0495  
                                      u125_21 0442                                        u109_24 0174  
                                      u109_25 0172                                        u141_25 0599  
                                      u205_27 0418                                        u134_20 049B  
                                      u126_20 044E                                        u142_20 05A5  
                                      u134_21 049A                                        u126_21 044D  
                                      u142_21 05A4                                        u127_20 045F  
                                      u143_20 05AA                                        u135_20 0560  
                                      u127_21 045E                                        u143_21 05A9  
                                      u135_21 055F                                        u136_20 056B  
                                      u136_21 056A                                        u128_25 0463  
                                      u129_20 0471                                        u137_20 0576  
                                      u129_21 0470                                        u137_21 0575  
                                      u138_25 057A                                        u139_20 0588  
                                      u163_20 0427                                        u139_21 0587  
                                      u163_21 0426                                        u181_20 0305  
                                      u181_21 0304                                        u182_20 030B  
                                      u190_20 0FF8                                        u182_21 030A  
                                      u190_21 0FF7                                        u191_20 0FB4  
                                      u191_21 0FB3                                        u183_24 0314  
                                      u183_25 0312                                        u192_20 0FBC  
                                      u192_21 0FBB                                        u184_24 0325  
                                      u184_25 0323                                        u193_20 0FC2  
                                      u193_21 0FC1                                        u185_24 0336  
                                      u185_25 0334                                        u186_24 0347  
                                      u186_25 0345                                        u187_20 0F77  
                                      u187_21 0F76                                        u188_20 0FEA  
                                      u188_21 0FE9                                        u196_25 0503  
                                      u189_20 0FF2                                        u197_20 050C  
                                      u189_21 0FF1                                        u197_21 050B  
                                      u198_20 051B                                        u198_21 051A  
                                      u199_20 052A                                        u199_21 0529  
                                  __i1fptable 0024                  __size_of_DIO_SetPinDirection 00CC  
                           __end_ofi1_ON_Mode 0F65                          ??i1_DIO_SetPortValue 0071  
                         ?_vid_7_Segment_Init 0070                      __end_of_DIO_SetPortValue 079E  
                           ??_RB4_SetCallBack 0025                                     ??___awdiv 0029  
                                   ??___awmod 0029                              ___awdiv@quotient 002B  
                             ___awmod@divisor 0025                               ___awmod@counter 0029  
                           ??_DIO_SetPinValue 0027                             __end_ofi1___awdiv 04A5  
                           __end_ofi1___awmod 05B4                                        fptable 0023  
                        ??_vid_7_Segment_Init 002A                          __size_of_RB0_Handler 0013  
                                      fptotal 0000                             ??_SystemVars_Init 0025  
                                      saved_w 007E               ??_vid_7_Segment_Display_2Digits 002D  
                              ??_SetCallBacks 0026                                 ?_EXT_INT_Init 0070  
               __size_of_vid_7_Segment_DeInit 001B                          __size_of_RB4_Handler 001D  
                        __size_of_RB5_Handler 001B                    __size_ofi1_DIO_SetPinValue 00CA  
                     __end_of__initialization 001F                                 ?_SetTemp_Mode 0070  
                                   ?_OFF_Mode 0070                               _DIO_GetPinValue 02FE  
                              __pcstackCOMMON 0070                             ??_RB5_SetCallBack 0025  
                             _SET_Mode_Status 003D                 DIO_SetPortDirection@u8PortDir 0025  
                     __end_of_RB0_SetCallBack 0F38                                ??_EXT_INT_Init 002A  
  vid_Right_7_Segment_DisplayNumber@u8_Number 002A     vid_Left_7_Segment_DisplayNumber@u8_Number 002A  
i1vid_Right_7_Segment_DisplayNumber@u8_Number 0075   i1vid_Left_7_Segment_DisplayNumber@u8_Number 0075  
                  DIO_GetPinValue@u8PinIdCopy 0070                                    __pbssBANK0 0037  
                            _u8_Left_7Segment 0810                                  ??i1_OFF_Mode 0075  
                              ??_SetTemp_Mode 0033                                    ??_OFF_Mode 002A  
                                  __pmaintext 0638                    DIO_SetPinValue@u8PinIdCopy 0025  
                                  __pintentry 0004                          _DIO_SetPortDirection 0671  
      vid_7_Segment_Display_2Digits@Stability 0032      i1vid_7_Segment_Display_2Digits@Stability 007D  
                          i1___awdiv@dividend 0072                            __end_ofi1_OFF_Mode 0F51  
                                     _ON_Mode 0F65                                    __stringtab 0800  
       __end_of_vid_7_Segment_Display_2Digits 02FE        __size_of_vid_7_Segment_Display_2Digits 0079  
               _vid_7_Segment_Display_2Digits 0285                       __end_of_DIO_GetPinValue 036C  
                                     i1fpbase 0029                            i1___awdiv@quotient 0076  
                    ??i1_vid_7_Segment_DeInit 0075                          __end_of_SetCallBacks 0F96  
                                     _u8_Temp 003F                                       ___awdiv 036C  
                                     ___awmod 04A5                         ?_DIO_SetPortDirection 0025  
                         _DIO_SetPinDirection 0033                                       __ptext1 05B4  
                                     __ptext2 0671                                       __ptext3 07F2  
                                     __ptext4 05FD                                       __ptext5 0F83  
                                     __ptext6 0F40                                       __ptext7 0F38  
                                     __ptext8 0F30                                       __ptext9 0F65  
                         __size_of__i1fptable 000F                                  __size_of_ISR 005B  
                            ?_RB0_SetCallBack 0070                              ___awmod@dividend 0027  
                        end_of_initialization 001F                               _RB4_SetCallBack 0F38  
                        ?_DIO_SetPinDirection 0025                                 _Set_Temp_Flag 003B  
                        __end_of_EXT_INT_Init 070F                             ?_DIO_SetPortValue 0025  
                             _DIO_SetPinValue 01C9                                     i1_ON_Mode 0F5A  
                             _SystemVars_Init 07F2                            ??_DIO_SetPortValue 0026  
                        __end_of_SetTemp_Mode 0638                                     i1___awdiv 043E  
                                   i1___awmod 055B                         ??_DIO_SetPinDirection 0027  
                             _RB5_SetCallBack 0F40                              ?_DIO_GetPinValue 0070  
     __end_ofi1_vid_7_Segment_Display_2Digits 043E      __size_ofi1_vid_7_Segment_Display_2Digits 0069  
           ??i1_vid_7_Segment_Display_2Digits 0078              ?i1_vid_7_Segment_Display_2Digits 0070  
              ?_vid_7_Segment_Display_2Digits 0070               i1_vid_7_Segment_Display_2Digits 03D5  
                i1DIO_SetPinValue@u8PinIdCopy 0070                   __size_ofi1_DIO_SetPortValue 0035  
                __end_of_vid_7_Segment_DeInit 0FE3               __size_ofi1_vid_7_Segment_DeInit 0017  
                                  ?i1_ON_Mode 0070                             __size_of_OFF_Mode 0009  
                      ??_DIO_SetPortDirection 0026                                 ??_RB0_Handler 007E  
                    __end_of_u8_Left_7Segment 081A                           RB4_SetCallBack@pFun 0025  
                 __size_of_vid_7_Segment_Init 0049                           start_initialization 0015  
                     __end_of_RB4_SetCallBack 0F40                                 ??_RB4_Handler 0070  
                                 __end_of_ISR 055B                                 ??_RB5_Handler 0070  
                                  ?i1___awdiv 0070                                    ?i1___awmod 0070  
                     __end_of_DIO_SetPinValue 0285                     DIO_SetPortValue@u8PortVal 0025  
                     __end_of_SystemVars_Init 07FD                         __size_of_SetCallBacks 0013  
                          i1___awmod@dividend 0072                            __end_of__i1fptable 0033  
                                   ___latbits 0002                       __end_of_RB5_SetCallBack 0F48  
                               __pcstackBANK0 0020                        i1_vid_7_Segment_DeInit 0F96  
                         __end_of_RB0_Handler 0F83                                  _SetCallBacks 0F83  
                                    ?_ON_Mode 0070                  DIO_SetPortDirection@u8PortId 0028  
                         __end_of_RB4_Handler 1000                         __size_of_EXT_INT_Init 0032  
                         __end_of_RB5_Handler 0FC8                                     __pnvBANK0 003F  
                                   __pfunctab 0023                                   ??i1_ON_Mode 007E  
                                    ?___awdiv 0025                                      ?___awmod 0025  
                       __size_of_SetTemp_Mode 003B                             i1___awdiv@divisor 0070  
                           i1___awdiv@counter 0074                                     __pstrings 0800  
                 DIO_SetPinValue@u8PinValCopy 0026                   i1DIO_SetPortValue@u8PortVal 0070  
                 DIO_GetPinValue@u8PortIdCopy 0073                              ?_RB4_SetCallBack 0070  
                                _EXT_INT_Init 06DD                                   ??i1___awdiv 0074  
                                 ??i1___awmod 0074                          _vid_7_Segment_DeInit 0FC8  
                           interrupt_function 0004                              ?_DIO_SetPinValue 0025  
                            ?_SystemVars_Init 0070                             _TempChange_Status 003A  
                                _SetTemp_Mode 05FD                           RB5_SetCallBack@pFun 0025  
                                    _OFF_Mode 0F51                   DIO_SetPinValue@u8PortIdCopy 0029  
                                 _RB0_Handler 0F70                                   __stringbase 0805  
                   __size_of_DIO_SetPortValue 002F                              ?_RB5_SetCallBack 0070  
                       ?_vid_7_Segment_DeInit 0070                                   _RB4_Handler 0FE3  
                                 _RB5_Handler 0FAD                                      i1fptable 0024  
                                    i1fptotal 0006   __end_ofi1_vid_Right_7_Segment_DisplayNumber 07C8  
__size_ofi1_vid_Right_7_Segment_DisplayNumber 002A     __end_of_vid_Right_7_Segment_DisplayNumber 073F  
  __size_of_vid_Right_7_Segment_DisplayNumber 0030           ??_vid_Right_7_Segment_DisplayNumber 002A  
       ??i1_vid_Right_7_Segment_DisplayNumber 0075          ?i1_vid_Right_7_Segment_DisplayNumber 0070  
          ?_vid_Right_7_Segment_DisplayNumber 0070           i1_vid_Right_7_Segment_DisplayNumber 079E  
           _vid_Right_7_Segment_DisplayNumber 070F                                 _ON_OFF_Status 003E  
                            __size_of_ON_Mode 000B                      __size_of_RB0_SetCallBack 0008  
                           i1___awmod@divisor 0070             vid_7_Segment_Display_2Digits@Ones 002F  
         i1vid_7_Segment_Display_2Digits@Ones 007A             vid_7_Segment_Display_2Digits@Tens 0030  
         i1vid_7_Segment_Display_2Digits@Tens 007B                             i1___awmod@counter 0074  
                            __size_of___awdiv 0069                              __size_of___awmod 005B  
                           _u8_Right_7Segment 0806                            __end_of__stringtab 0806  
         vid_7_Segment_Display_2Digits@u8_Num 0031         i1vid_7_Segment_Display_2Digits@u8_Num 007C  
                           SetTemp_Mode@count 0036                   __end_of_DIO_SetPinDirection 00FF  
                                    __ptext10 0285                                      __ptext11 070F  
                                    __ptext20 0033                                      __ptext12 073F  
                                    __ptext21 0500                                      __ptext13 076F  
                                    __ptext30 055B                                      __ptext22 0FAD  
                                    __ptext14 04A5                                      __ptext31 043E  
                                    __ptext23 0FE3                                      __ptext15 036C  
                                    __ptext32 0F48                                      __ptext24 0F70  
                                    __ptext16 0F51                                      __ptext33 0F96  
                                    __ptext25 0F5A                                      __ptext17 0FC8  
                                    __ptext34 00FF                                      __ptext26 03D5  
                                    __ptext18 01C9                                      __ptext35 02FE  
                                    __ptext27 079E                                      __ptext19 06DD  
                                    __ptext28 07C8                                      __ptext29 06A8  
  __end_ofi1_vid_Left_7_Segment_DisplayNumber 07F2   __size_ofi1_vid_Left_7_Segment_DisplayNumber 002A  
    __end_of_vid_Left_7_Segment_DisplayNumber 076F     __size_of_vid_Left_7_Segment_DisplayNumber 0030  
          ??_vid_Left_7_Segment_DisplayNumber 002A          ??i1_vid_Left_7_Segment_DisplayNumber 0075  
         ?i1_vid_Left_7_Segment_DisplayNumber 0070             ?_vid_Left_7_Segment_DisplayNumber 0070  
          i1_vid_Left_7_Segment_DisplayNumber 07C8              _vid_Left_7_Segment_DisplayNumber 073F  
                  __end_ofi1_DIO_SetPortValue 06DD                                 __size_of_main 0039  
                    __size_of_DIO_GetPinValue 006E                     __end_of_u8_Right_7Segment 0810  
             DIO_SetPinDirection@u8PinDirCopy 0026                 __size_of_DIO_SetPortDirection 0037  
                  __end_of_vid_7_Segment_Init 05FD                       ?i1_vid_7_Segment_DeInit 0070  
                         RB0_SetCallBack@pFun 0025                        ??_vid_7_Segment_DeInit 002A  
                                    intlevel1 0023                                    i1_OFF_Mode 0F48  
                                   stringcode 0800                             ??_RB0_SetCallBack 0025  
             DIO_SetPinDirection@u8PortIdCopy 0029                                   _ON_OFF_Flag 003C  
              __end_ofi1_vid_7_Segment_DeInit 0FAD                              _DIO_SetPortValue 076F  
                                    stringdir 0800                                      stringtab 0800  
                DIO_GetPinValue@u8ResultLocal 0074                                fp__RB0_Handler 002A  
                              fp__RB4_Handler 002D                                fp__RB5_Handler 0030  
                    DIO_SetPortValue@u8PortId 0028  
