

Microchip MPLAB XC8 Assembler V2.20 build 20200408173844 
                                                                                               Mon Jul 13 08:26:42 2020

Microchip MPLAB XC8 C Compiler v2.20 (Free license) build 20200408173844 Og1 
     1                           	processor	16F877A
     2                           	pagewidth 120
     3                           	opt	flic
     4                           	psect	strings,global,class=STRING,delta=2,noexec
     5                           	psect	cinit,global,class=CODE,merge=1,delta=2
     6                           	psect	bssBANK0,global,class=BANK0,space=1,delta=1,noexec
     7                           	psect	clrtext,global,class=CODE,delta=2
     8                           	psect	cstackCOMMON,global,class=COMMON,space=1,delta=1,noexec
     9                           	psect	cstackBANK0,global,class=BANK0,space=1,delta=1,noexec
    10                           	psect	maintext,global,class=CODE,split=1,delta=2
    11                           	psect	text1,local,class=CODE,merge=1,delta=2
    12                           	psect	text2,local,class=CODE,merge=1,delta=2
    13                           	psect	text3,local,class=CODE,merge=1,delta=2
    14                           	psect	text4,local,class=CODE,merge=1,delta=2,group=1
    15                           	psect	text5,local,class=CODE,merge=1,delta=2,group=1
    16                           	psect	text6,local,class=CODE,merge=1,delta=2
    17                           	psect	text7,local,class=CODE,merge=1,delta=2
    18                           	psect	text8,local,class=CODE,merge=1,delta=2
    19                           	psect	text9,local,class=CODE,merge=1,delta=2
    20                           	psect	text10,local,class=CODE,merge=1,delta=2
    21                           	psect	text11,local,class=CODE,merge=1,delta=2
    22                           	psect	text12,local,class=CODE,merge=1,delta=2
    23                           	psect	text13,local,class=CODE,merge=1,delta=2
    24                           	psect	text14,local,class=CODE,merge=1,delta=2
    25                           	psect	text15,local,class=CODE,merge=1,delta=2
    26                           	psect	text16,local,class=CODE,merge=1,delta=2
    27                           	psect	text17,local,class=CODE,merge=1,delta=2
    28                           	psect	text18,local,class=CODE,merge=1,delta=2
    29                           	psect	text19,local,class=CODE,merge=1,delta=2
    30                           	psect	text20,local,class=CODE,merge=1,delta=2
    31                           	psect	text21,local,class=CODE,merge=1,delta=2
    32                           	psect	text22,local,class=CODE,merge=1,delta=2
    33                           	psect	text23,local,class=CODE,merge=1,delta=2
    34                           	psect	text24,local,class=CODE,merge=1,delta=2
    35                           	psect	text25,local,class=CODE,merge=1,delta=2
    36                           	psect	text26,local,class=CODE,merge=1,delta=2
    37                           	psect	text27,local,class=CODE,merge=1,delta=2
    38                           	psect	text28,local,class=CODE,merge=1,delta=2
    39                           	psect	text29,local,class=CODE,merge=1,delta=2
    40                           	psect	text30,local,class=CODE,merge=1,delta=2
    41                           	psect	text31,local,class=CODE,merge=1,delta=2
    42                           	psect	text32,local,class=CODE,merge=1,delta=2,group=1
    43                           	psect	text33,local,class=CODE,merge=1,delta=2,group=1
    44                           	psect	text34,local,class=CODE,merge=1,delta=2
    45                           	psect	text35,local,class=CODE,merge=1,delta=2
    46                           	psect	text36,local,class=CODE,merge=1,delta=2
    47                           	psect	text37,local,class=CODE,merge=1,delta=2
    48                           	psect	text38,local,class=CODE,merge=1,delta=2
    49                           	psect	text39,local,class=CODE,merge=1,delta=2
    50                           	psect	text40,local,class=CODE,merge=1,delta=2
    51                           	psect	text41,local,class=CODE,merge=1,delta=2
    52                           	psect	text42,local,class=CODE,merge=1,delta=2
    53                           	psect	intentry,global,class=CODE,delta=2
    54                           	psect	text43,local,class=CODE,merge=1,delta=2
    55                           	psect	text44,local,class=CODE,merge=1,delta=2
    56                           	psect	text45,local,class=CODE,merge=1,delta=2
    57                           	psect	text46,local,class=CODE,merge=1,delta=2
    58                           	psect	text47,local,class=CODE,merge=1,delta=2
    59                           	psect	text48,local,class=CODE,merge=1,delta=2
    60                           	psect	text49,local,class=CODE,merge=1,delta=2
    61                           	psect	text50,local,class=CODE,merge=1,delta=2
    62                           	psect	text51,local,class=CODE,merge=1,delta=2
    63                           	psect	text52,local,class=CODE,merge=1,delta=2
    64                           	psect	text53,local,class=CODE,merge=1,delta=2
    65                           	psect	text54,local,class=CODE,merge=1,delta=2
    66                           	psect	text55,local,class=CODE,merge=1,delta=2
    67                           	psect	text56,local,class=CODE,merge=1,delta=2
    68                           	psect	functab,global,class=ENTRY,delta=2
    69                           	psect	config,global,abs,ovrld,class=CONFIG,space=4,delta=2,noexec
    70                           	dabs	1,0x7E,2
    71  0000                     
    72                           ; Version 2.20
    73                           ; Generated 12/02/2020 GMT
    74                           ; 
    75                           ; Copyright © 2020, Microchip Technology Inc. and its subsidiaries ("Microchip")
    76                           ; All rights reserved.
    77                           ; 
    78                           ; This software is developed by Microchip Technology Inc. and its subsidiaries ("Microch
      +                          ip").
    79                           ; 
    80                           ; Redistribution and use in source and binary forms, with or without modification, are
    81                           ; permitted provided that the following conditions are met:
    82                           ; 
    83                           ;     1. Redistributions of source code must retain the above copyright notice, this lis
      +                          t of
    84                           ;        conditions and the following disclaimer.
    85                           ; 
    86                           ;     2. Redistributions in binary form must reproduce the above copyright notice, this 
      +                          list
    87                           ;        of conditions and the following disclaimer in the documentation and/or other
    88                           ;        materials provided with the distribution.
    89                           ; 
    90                           ;     3. Microchip's name may not be used to endorse or promote products derived from th
      +                          is
    91                           ;        software without specific prior written permission.
    92                           ; 
    93                           ; THIS SOFTWARE IS PROVIDED BY MICROCHIP "AS IS" AND ANY EXPRESS OR IMPLIED WARRANTIES,
    94                           ; INCLUDING, BUT NOT LIMITED TO, THE IMPLIED WARRANTIES OF MERCHANTABILITY AND FITNESS F
      +                          OR
    95                           ; PURPOSE ARE DISCLAIMED.  IN NO EVENT SHALL MICROCHIP BE LIABLE FOR ANY DIRECT, INDIREC
      +                          T,
    96                           ; INCIDENTAL, SPECIAL, EXEMPLARY, OR CONSEQUENTIAL DAMAGES (INCLUDING BUT NOT LIMITED TO
    97                           ; PROCUREMENT OF SUBSTITUTE GOODS OR SERVICES; LOSS OF USE, DATA OR PROFITS; OR BUSINESS
    98                           ; INTERRUPTION) HOWSOEVER CAUSED AND ON ANY THEORY OF LIABILITY, WHETHER IN CONTRACT, ST
      +                          RICT
    99                           ; LIABILITY, OR TORT (INCLUDING NEGLIGENCE OR OTHERWISE) ARISING IN ANY WAY OUT OF THE U
      +                          SE OF
   100                           ; THIS SOFTWARE, EVEN IF ADVISED OF THE POSSIBILITY OF SUCH DAMAGE.
   101                           ; 
   102                           ; 
   103                           ; Code-generator required, PIC16F877A Definitions
   104                           ; 
   105                           ; SFR Addresses
   106  0000                     	;# 
   107  0001                     	;# 
   108  0002                     	;# 
   109  0003                     	;# 
   110  0004                     	;# 
   111  0005                     	;# 
   112  0006                     	;# 
   113  0007                     	;# 
   114  0008                     	;# 
   115  0009                     	;# 
   116  000A                     	;# 
   117  000B                     	;# 
   118  000C                     	;# 
   119  000D                     	;# 
   120  000E                     	;# 
   121  000E                     	;# 
   122  000F                     	;# 
   123  0010                     	;# 
   124  0011                     	;# 
   125  0012                     	;# 
   126  0013                     	;# 
   127  0014                     	;# 
   128  0015                     	;# 
   129  0015                     	;# 
   130  0016                     	;# 
   131  0017                     	;# 
   132  0018                     	;# 
   133  0019                     	;# 
   134  001A                     	;# 
   135  001B                     	;# 
   136  001B                     	;# 
   137  001C                     	;# 
   138  001D                     	;# 
   139  001E                     	;# 
   140  001F                     	;# 
   141  0081                     	;# 
   142  0085                     	;# 
   143  0086                     	;# 
   144  0087                     	;# 
   145  0088                     	;# 
   146  0089                     	;# 
   147  008C                     	;# 
   148  008D                     	;# 
   149  008E                     	;# 
   150  0091                     	;# 
   151  0092                     	;# 
   152  0093                     	;# 
   153  0094                     	;# 
   154  0098                     	;# 
   155  0099                     	;# 
   156  009C                     	;# 
   157  009D                     	;# 
   158  009E                     	;# 
   159  009F                     	;# 
   160  010C                     	;# 
   161  010D                     	;# 
   162  010E                     	;# 
   163  010F                     	;# 
   164  018C                     	;# 
   165  018D                     	;# 
   166  0000                     	;# 
   167  0001                     	;# 
   168  0002                     	;# 
   169  0003                     	;# 
   170  0004                     	;# 
   171  0005                     	;# 
   172  0006                     	;# 
   173  0007                     	;# 
   174  0008                     	;# 
   175  0009                     	;# 
   176  000A                     	;# 
   177  000B                     	;# 
   178  000C                     	;# 
   179  000D                     	;# 
   180  000E                     	;# 
   181  000E                     	;# 
   182  000F                     	;# 
   183  0010                     	;# 
   184  0011                     	;# 
   185  0012                     	;# 
   186  0013                     	;# 
   187  0014                     	;# 
   188  0015                     	;# 
   189  0015                     	;# 
   190  0016                     	;# 
   191  0017                     	;# 
   192  0018                     	;# 
   193  0019                     	;# 
   194  001A                     	;# 
   195  001B                     	;# 
   196  001B                     	;# 
   197  001C                     	;# 
   198  001D                     	;# 
   199  001E                     	;# 
   200  001F                     	;# 
   201  0081                     	;# 
   202  0085                     	;# 
   203  0086                     	;# 
   204  0087                     	;# 
   205  0088                     	;# 
   206  0089                     	;# 
   207  008C                     	;# 
   208  008D                     	;# 
   209  008E                     	;# 
   210  0091                     	;# 
   211  0092                     	;# 
   212  0093                     	;# 
   213  0094                     	;# 
   214  0098                     	;# 
   215  0099                     	;# 
   216  009C                     	;# 
   217  009D                     	;# 
   218  009E                     	;# 
   219  009F                     	;# 
   220  010C                     	;# 
   221  010D                     	;# 
   222  010E                     	;# 
   223  010F                     	;# 
   224  018C                     	;# 
   225  018D                     	;# 
   226  0000                     	;# 
   227  0001                     	;# 
   228  0002                     	;# 
   229  0003                     	;# 
   230  0004                     	;# 
   231  0005                     	;# 
   232  0006                     	;# 
   233  0007                     	;# 
   234  0008                     	;# 
   235  0009                     	;# 
   236  000A                     	;# 
   237  000B                     	;# 
   238  000C                     	;# 
   239  000D                     	;# 
   240  000E                     	;# 
   241  000E                     	;# 
   242  000F                     	;# 
   243  0010                     	;# 
   244  0011                     	;# 
   245  0012                     	;# 
   246  0013                     	;# 
   247  0014                     	;# 
   248  0015                     	;# 
   249  0015                     	;# 
   250  0016                     	;# 
   251  0017                     	;# 
   252  0018                     	;# 
   253  0019                     	;# 
   254  001A                     	;# 
   255  001B                     	;# 
   256  001B                     	;# 
   257  001C                     	;# 
   258  001D                     	;# 
   259  001E                     	;# 
   260  001F                     	;# 
   261  0081                     	;# 
   262  0085                     	;# 
   263  0086                     	;# 
   264  0087                     	;# 
   265  0088                     	;# 
   266  0089                     	;# 
   267  008C                     	;# 
   268  008D                     	;# 
   269  008E                     	;# 
   270  0091                     	;# 
   271  0092                     	;# 
   272  0093                     	;# 
   273  0094                     	;# 
   274  0098                     	;# 
   275  0099                     	;# 
   276  009C                     	;# 
   277  009D                     	;# 
   278  009E                     	;# 
   279  009F                     	;# 
   280  010C                     	;# 
   281  010D                     	;# 
   282  010E                     	;# 
   283  010F                     	;# 
   284  018C                     	;# 
   285  018D                     	;# 
   286  0000                     	;# 
   287  0001                     	;# 
   288  0002                     	;# 
   289  0003                     	;# 
   290  0004                     	;# 
   291  0005                     	;# 
   292  0006                     	;# 
   293  0007                     	;# 
   294  0008                     	;# 
   295  0009                     	;# 
   296  000A                     	;# 
   297  000B                     	;# 
   298  000C                     	;# 
   299  000D                     	;# 
   300  000E                     	;# 
   301  000E                     	;# 
   302  000F                     	;# 
   303  0010                     	;# 
   304  0011                     	;# 
   305  0012                     	;# 
   306  0013                     	;# 
   307  0014                     	;# 
   308  0015                     	;# 
   309  0015                     	;# 
   310  0016                     	;# 
   311  0017                     	;# 
   312  0018                     	;# 
   313  0019                     	;# 
   314  001A                     	;# 
   315  001B                     	;# 
   316  001B                     	;# 
   317  001C                     	;# 
   318  001D                     	;# 
   319  001E                     	;# 
   320  001F                     	;# 
   321  0081                     	;# 
   322  0085                     	;# 
   323  0086                     	;# 
   324  0087                     	;# 
   325  0088                     	;# 
   326  0089                     	;# 
   327  008C                     	;# 
   328  008D                     	;# 
   329  008E                     	;# 
   330  0091                     	;# 
   331  0092                     	;# 
   332  0093                     	;# 
   333  0094                     	;# 
   334  0098                     	;# 
   335  0099                     	;# 
   336  009C                     	;# 
   337  009D                     	;# 
   338  009E                     	;# 
   339  009F                     	;# 
   340  010C                     	;# 
   341  010D                     	;# 
   342  010E                     	;# 
   343  010F                     	;# 
   344  018C                     	;# 
   345  018D                     	;# 
   346  0000                     	;# 
   347  0001                     	;# 
   348  0002                     	;# 
   349  0003                     	;# 
   350  0004                     	;# 
   351  0005                     	;# 
   352  0006                     	;# 
   353  0007                     	;# 
   354  0008                     	;# 
   355  0009                     	;# 
   356  000A                     	;# 
   357  000B                     	;# 
   358  000C                     	;# 
   359  000D                     	;# 
   360  000E                     	;# 
   361  000E                     	;# 
   362  000F                     	;# 
   363  0010                     	;# 
   364  0011                     	;# 
   365  0012                     	;# 
   366  0013                     	;# 
   367  0014                     	;# 
   368  0015                     	;# 
   369  0015                     	;# 
   370  0016                     	;# 
   371  0017                     	;# 
   372  0018                     	;# 
   373  0019                     	;# 
   374  001A                     	;# 
   375  001B                     	;# 
   376  001B                     	;# 
   377  001C                     	;# 
   378  001D                     	;# 
   379  001E                     	;# 
   380  001F                     	;# 
   381  0081                     	;# 
   382  0085                     	;# 
   383  0086                     	;# 
   384  0087                     	;# 
   385  0088                     	;# 
   386  0089                     	;# 
   387  008C                     	;# 
   388  008D                     	;# 
   389  008E                     	;# 
   390  0091                     	;# 
   391  0092                     	;# 
   392  0093                     	;# 
   393  0094                     	;# 
   394  0098                     	;# 
   395  0099                     	;# 
   396  009C                     	;# 
   397  009D                     	;# 
   398  009E                     	;# 
   399  009F                     	;# 
   400  010C                     	;# 
   401  010D                     	;# 
   402  010E                     	;# 
   403  010F                     	;# 
   404  018C                     	;# 
   405  018D                     	;# 
   406  0000                     	;# 
   407  0001                     	;# 
   408  0002                     	;# 
   409  0003                     	;# 
   410  0004                     	;# 
   411  0005                     	;# 
   412  0006                     	;# 
   413  0007                     	;# 
   414  0008                     	;# 
   415  0009                     	;# 
   416  000A                     	;# 
   417  000B                     	;# 
   418  000C                     	;# 
   419  000D                     	;# 
   420  000E                     	;# 
   421  000E                     	;# 
   422  000F                     	;# 
   423  0010                     	;# 
   424  0011                     	;# 
   425  0012                     	;# 
   426  0013                     	;# 
   427  0014                     	;# 
   428  0015                     	;# 
   429  0015                     	;# 
   430  0016                     	;# 
   431  0017                     	;# 
   432  0018                     	;# 
   433  0019                     	;# 
   434  001A                     	;# 
   435  001B                     	;# 
   436  001B                     	;# 
   437  001C                     	;# 
   438  001D                     	;# 
   439  001E                     	;# 
   440  001F                     	;# 
   441  0081                     	;# 
   442  0085                     	;# 
   443  0086                     	;# 
   444  0087                     	;# 
   445  0088                     	;# 
   446  0089                     	;# 
   447  008C                     	;# 
   448  008D                     	;# 
   449  008E                     	;# 
   450  0091                     	;# 
   451  0092                     	;# 
   452  0093                     	;# 
   453  0094                     	;# 
   454  0098                     	;# 
   455  0099                     	;# 
   456  009C                     	;# 
   457  009D                     	;# 
   458  009E                     	;# 
   459  009F                     	;# 
   460  010C                     	;# 
   461  010D                     	;# 
   462  010E                     	;# 
   463  010F                     	;# 
   464  018C                     	;# 
   465  018D                     	;# 
   466                           
   467                           	psect	strings
   468  0800                     __pstrings:
   469  0800                     stringtab:
   470  0800                     __stringtab:
   471  0800                     stringcode:	
   472                           ;	String table - string pointers are 1 byte each
   473                           
   474  0800                     stringdir:
   475  0800  3008               	movlw	high stringdir
   476  0801  008A               	movwf	10
   477  0802  0804               	movf	4,w
   478  0803  0A84               	incf	4,f
   479  0804  0782               	addwf	2,f
   480  0805                     __stringbase:
   481  0805  3400               	retlw	0
   482  0806                     __end_of__stringtab:
   483  0806                     _u8_Right_7Segment:
   484  0806  343F               	retlw	63
   485  0807  3406               	retlw	6
   486  0808  345B               	retlw	91
   487  0809  344F               	retlw	79
   488  080A  3466               	retlw	102
   489  080B  346D               	retlw	109
   490  080C  347D               	retlw	125
   491  080D  3407               	retlw	7
   492  080E  347F               	retlw	127
   493  080F  346F               	retlw	111
   494  0810                     __end_of_u8_Right_7Segment:
   495  0810                     _u8_Left_7Segment:
   496  0810  343F               	retlw	63
   497  0811  3406               	retlw	6
   498  0812  345B               	retlw	91
   499  0813  344F               	retlw	79
   500  0814  3466               	retlw	102
   501  0815  346D               	retlw	109
   502  0816  347D               	retlw	125
   503  0817  3407               	retlw	7
   504  0818  347F               	retlw	127
   505  0819  346F               	retlw	111
   506  081A                     __end_of_u8_Left_7Segment:
   507                           
   508                           	psect	cinit
   509  0015                     start_initialization:	
   510                           ; #config settings
   511                           
   512  0015                     __initialization:
   513                           
   514                           ; Clear objects allocated to BANK0
   515  0015  1383               	bcf	3,7	;select IRP bank0
   516  0016  3020               	movlw	low __pbssBANK0
   517  0017  0084               	movwf	4
   518  0018  3039               	movlw	low (__pbssBANK0+25)
   519  0019  120A  158A  242D  120A  118A  	fcall	clear_ram0
   520  001E                     end_of_initialization:	
   521                           ;End of C runtime variable initialization code
   522                           
   523  001E                     __end_of__initialization:
   524  001E  0183               	clrf	3
   525  001F  120A  118A  2E9B   	ljmp	_main	;jump to C main() function
   526                           
   527                           	psect	bssBANK0
   528  0020                     __pbssBANK0:
   529  0020                     _u8_arr_Temp:
   530  0020                     	ds	10
   531  002A                     _u16_Voltage:
   532  002A                     	ds	2
   533  002C                     _u16_ADC_Read:
   534  002C                     	ds	2
   535  002E                     _SET_Mode_Status:
   536  002E                     	ds	1
   537  002F                     _GptrToFun_RB5:
   538  002F                     	ds	1
   539  0030                     _GptrToFun_RB4:
   540  0030                     	ds	1
   541  0031                     _GptrToFun_RB0:
   542  0031                     	ds	1
   543  0032                     _u8_Counter:
   544  0032                     	ds	1
   545  0033                     _u8_Water_Temp:
   546  0033                     	ds	1
   547  0034                     _TempChange_Status:
   548  0034                     	ds	1
   549  0035                     _Set_Temp_Flag:
   550  0035                     	ds	1
   551  0036                     _ON_OFF_Flag:
   552  0036                     	ds	1
   553  0037                     _ON_OFF_Status:
   554  0037                     	ds	1
   555  0038                     _u8_Temp_Set:
   556  0038                     	ds	1
   557                           
   558                           	psect	clrtext
   559  0C2D                     clear_ram0:	
   560                           ;	Called with FSR containing the base address, and
   561                           ;	W with the last address+1
   562                           
   563  0C2D  0064               	clrwdt	;clear the watchdog before getting into this loop
   564  0C2E                     clrloop0:
   565  0C2E  0180               	clrf	0	;clear RAM location pointed to by FSR
   566  0C2F  0A84               	incf	4,f	;increment pointer
   567  0C30  0604               	xorwf	4,w	;XOR with final address
   568  0C31  1903               	btfsc	3,2	;have we reached the end yet?
   569  0C32  3400               	retlw	0	;all done for this memory range, return
   570  0C33  0604               	xorwf	4,w	;XOR again to restore value
   571  0C34  2C2E               	goto	clrloop0	;do the next byte
   572                           
   573                           	psect	cstackCOMMON
   574  0070                     __pcstackCOMMON:
   575  0070                     ?_RB0_SetCallBack:
   576  0070                     ?_RB0_Handler:	
   577                           ; 1 bytes @ 0x0
   578                           
   579  0070                     ?_RB4_SetCallBack:	
   580                           ; 1 bytes @ 0x0
   581                           
   582  0070                     ?_RB4_Handler:	
   583                           ; 1 bytes @ 0x0
   584                           
   585  0070                     ??_RB4_Handler:	
   586                           ; 1 bytes @ 0x0
   587                           
   588  0070                     ?_RB5_SetCallBack:	
   589                           ; 1 bytes @ 0x0
   590                           
   591  0070                     ?_RB5_Handler:	
   592                           ; 1 bytes @ 0x0
   593                           
   594  0070                     ??_RB5_Handler:	
   595                           ; 1 bytes @ 0x0
   596                           
   597  0070                     ?_EEPROM_ReadFromEEPROM:	
   598                           ; 1 bytes @ 0x0
   599                           
   600  0070                     ?_EEPROM_WriteToEEPROM:	
   601                           ; 1 bytes @ 0x0
   602                           
   603  0070                     ?_ON_Mode:	
   604                           ; 1 bytes @ 0x0
   605                           
   606  0070                     ?_OFF_Mode:	
   607                           ; 1 bytes @ 0x0
   608                           
   609  0070                     ?_vid_7_Segment_Display_2Digits:	
   610                           ; 1 bytes @ 0x0
   611                           
   612  0070                     ?_vid_7_Segment_DeInit:	
   613                           ; 1 bytes @ 0x0
   614                           
   615  0070                     ?_ADC_Init:	
   616                           ; 1 bytes @ 0x0
   617                           
   618  0070                     ?_I2CBegin:	
   619                           ; 1 bytes @ 0x0
   620                           
   621  0070                     ?_I2C_Write:	
   622                           ; 1 bytes @ 0x0
   623                           
   624  0070                     ?_I2C_End:	
   625                           ; 1 bytes @ 0x0
   626                           
   627  0070                     ?_I2C_RepeatedStart:	
   628                           ; 1 bytes @ 0x0
   629                           
   630  0070                     ?_I2C_Read:	
   631                           ; 1 bytes @ 0x0
   632                           
   633  0070                     ?_vid_7_Segment_Init:	
   634                           ; 1 bytes @ 0x0
   635                           
   636  0070                     ?_SetCallBacks:	
   637                           ; 1 bytes @ 0x0
   638                           
   639  0070                     ?_SystemVars_Init:	
   640                           ; 1 bytes @ 0x0
   641                           
   642  0070                     ?_SetTemp_Mode:	
   643                           ; 1 bytes @ 0x0
   644                           
   645  0070                     ?_Cooler_Init:	
   646                           ; 1 bytes @ 0x0
   647                           
   648  0070                     ?_Cooler_TurnOn:	
   649                           ; 1 bytes @ 0x0
   650                           
   651  0070                     ?_Cooler_TurnOff:	
   652                           ; 1 bytes @ 0x0
   653                           
   654  0070                     ?_Heater_Init:	
   655                           ; 1 bytes @ 0x0
   656                           
   657  0070                     ?_Heater_TurnOn:	
   658                           ; 1 bytes @ 0x0
   659                           
   660  0070                     ?_Heater_TurnOff:	
   661                           ; 1 bytes @ 0x0
   662                           
   663  0070                     ?_TempSensor_Init:	
   664                           ; 1 bytes @ 0x0
   665                           
   666  0070                     ?_Temp_ControlWaterTemp:	
   667                           ; 1 bytes @ 0x0
   668                           
   669  0070                     ?_DIO_GetPinValue:	
   670                           ; 1 bytes @ 0x0
   671                           
   672  0070                     ?_EXT_INT_Init:	
   673                           ; 1 bytes @ 0x0
   674                           
   675  0070                     ?_ISR:	
   676                           ; 1 bytes @ 0x0
   677                           
   678  0070                     ?_I2C_Init:	
   679                           ; 1 bytes @ 0x0
   680                           
   681  0070                     ?_I2C_Hold:	
   682                           ; 1 bytes @ 0x0
   683                           
   684  0070                     ?_main:	
   685                           ; 1 bytes @ 0x0
   686                           
   687  0070                     ?_vid_Left_7_Segment_DisplayNumber:	
   688                           ; 1 bytes @ 0x0
   689                           
   690  0070                     ?_vid_Right_7_Segment_DisplayNumber:	
   691                           ; 1 bytes @ 0x0
   692                           
   693  0070                     ?i1_ON_Mode:	
   694                           ; 1 bytes @ 0x0
   695                           
   696  0070                     ?i1_OFF_Mode:	
   697                           ; 1 bytes @ 0x0
   698                           
   699  0070                     ?i1_DIO_SetPinValue:	
   700                           ; 1 bytes @ 0x0
   701                           
   702  0070                     ?i1_DIO_SetPortValue:	
   703                           ; 1 bytes @ 0x0
   704                           
   705  0070                     ?i1_vid_7_Segment_DeInit:	
   706                           ; 1 bytes @ 0x0
   707                           
   708  0070                     ?i1_vid_Left_7_Segment_DisplayNumber:	
   709                           ; 1 bytes @ 0x0
   710                           
   711  0070                     ?i1_vid_Right_7_Segment_DisplayNumber:	
   712                           ; 1 bytes @ 0x0
   713                           
   714  0070                     ?i1_vid_7_Segment_Display_2Digits:	
   715                           ; 1 bytes @ 0x0
   716                           
   717  0070                     ?i1___awdiv:	
   718                           ; 1 bytes @ 0x0
   719                           
   720  0070                     ?i1___awmod:	
   721                           ; 2 bytes @ 0x0
   722                           
   723  0070                     DIO_GetPinValue@u8PinIdCopy:	
   724                           ; 2 bytes @ 0x0
   725                           
   726  0070                     i1DIO_SetPinValue@u8PinIdCopy:	
   727                           ; 1 bytes @ 0x0
   728                           
   729  0070                     i1DIO_SetPortValue@u8PortVal:	
   730                           ; 1 bytes @ 0x0
   731                           
   732  0070                     i1___awdiv@divisor:	
   733                           ; 1 bytes @ 0x0
   734                           
   735  0070                     i1___awmod@divisor:	
   736                           ; 2 bytes @ 0x0
   737                           
   738                           
   739                           ; 2 bytes @ 0x0
   740  0070                     	ds	1
   741  0071                     ??_DIO_GetPinValue:
   742  0071                     ??i1_DIO_SetPortValue:	
   743                           ; 1 bytes @ 0x1
   744                           
   745  0071                     i1DIO_SetPinValue@u8PinValCopy:	
   746                           ; 1 bytes @ 0x1
   747                           
   748                           
   749                           ; 1 bytes @ 0x1
   750  0071                     	ds	1
   751  0072                     ??i1_DIO_SetPinValue:
   752  0072                     i1___awdiv@dividend:	
   753                           ; 1 bytes @ 0x2
   754                           
   755  0072                     i1___awmod@dividend:	
   756                           ; 2 bytes @ 0x2
   757                           
   758                           
   759                           ; 2 bytes @ 0x2
   760  0072                     	ds	1
   761  0073                     DIO_GetPinValue@u8PortIdCopy:
   762  0073                     i1DIO_SetPortValue@u8PortId:	
   763                           ; 1 bytes @ 0x3
   764                           
   765                           
   766                           ; 1 bytes @ 0x3
   767  0073                     	ds	1
   768  0074                     ??i1___awdiv:
   769  0074                     ??i1___awmod:	
   770                           ; 1 bytes @ 0x4
   771                           
   772  0074                     DIO_GetPinValue@u8ResultLocal:	
   773                           ; 1 bytes @ 0x4
   774                           
   775  0074                     i1DIO_SetPinValue@u8PortIdCopy:	
   776                           ; 1 bytes @ 0x4
   777                           
   778  0074                     i1___awdiv@counter:	
   779                           ; 1 bytes @ 0x4
   780                           
   781  0074                     i1___awmod@counter:	
   782                           ; 1 bytes @ 0x4
   783                           
   784                           
   785                           ; 1 bytes @ 0x4
   786  0074                     	ds	1
   787  0075                     ??i1_OFF_Mode:
   788  0075                     ??i1_vid_7_Segment_DeInit:	
   789                           ; 1 bytes @ 0x5
   790                           
   791  0075                     ??i1_vid_Left_7_Segment_DisplayNumber:	
   792                           ; 1 bytes @ 0x5
   793                           
   794  0075                     ??i1_vid_Right_7_Segment_DisplayNumber:	
   795                           ; 1 bytes @ 0x5
   796                           
   797  0075                     i1vid_Left_7_Segment_DisplayNumber@u8_Number:	
   798                           ; 1 bytes @ 0x5
   799                           
   800  0075                     i1vid_Right_7_Segment_DisplayNumber@u8_Number:	
   801                           ; 1 bytes @ 0x5
   802                           
   803  0075                     i1___awdiv@sign:	
   804                           ; 1 bytes @ 0x5
   805                           
   806  0075                     i1___awmod@sign:	
   807                           ; 1 bytes @ 0x5
   808                           
   809                           
   810                           ; 1 bytes @ 0x5
   811  0075                     	ds	1
   812  0076                     i1___awdiv@quotient:
   813                           
   814                           ; 2 bytes @ 0x6
   815  0076                     	ds	2
   816  0078                     ??i1_vid_7_Segment_Display_2Digits:
   817                           
   818                           ; 1 bytes @ 0x8
   819  0078                     	ds	2
   820  007A                     i1vid_7_Segment_Display_2Digits@Ones:
   821                           
   822                           ; 1 bytes @ 0xA
   823  007A                     	ds	1
   824  007B                     i1vid_7_Segment_Display_2Digits@Tens:
   825                           
   826                           ; 1 bytes @ 0xB
   827  007B                     	ds	1
   828  007C                     i1vid_7_Segment_Display_2Digits@u8_Num:
   829                           
   830                           ; 1 bytes @ 0xC
   831  007C                     	ds	1
   832  007D                     ??_RB0_Handler:
   833  007D                     ??i1_ON_Mode:	
   834                           ; 1 bytes @ 0xD
   835                           
   836                           
   837                           	psect	cstackBANK0
   838  0039                     __pcstackBANK0:	
   839                           ; 1 bytes @ 0xD
   840                           
   841  0039                     ??_ISR:
   842                           
   843                           ; 1 bytes @ 0x0
   844  0039                     	ds	5
   845  003E                     ??_RB0_SetCallBack:
   846  003E                     ??_RB4_SetCallBack:	
   847                           ; 1 bytes @ 0x5
   848                           
   849  003E                     ??_RB5_SetCallBack:	
   850                           ; 1 bytes @ 0x5
   851                           
   852  003E                     ?_DIO_SetPinDirection:	
   853                           ; 1 bytes @ 0x5
   854                           
   855  003E                     ?_DIO_SetPinValue:	
   856                           ; 1 bytes @ 0x5
   857                           
   858  003E                     ??_ADC_Init:	
   859                           ; 1 bytes @ 0x5
   860                           
   861  003E                     ??_I2CBegin:	
   862                           ; 1 bytes @ 0x5
   863                           
   864  003E                     ??_I2C_Write:	
   865                           ; 1 bytes @ 0x5
   866                           
   867  003E                     ??_I2C_End:	
   868                           ; 1 bytes @ 0x5
   869                           
   870  003E                     ??_I2C_RepeatedStart:	
   871                           ; 1 bytes @ 0x5
   872                           
   873  003E                     ??_I2C_Read:	
   874                           ; 1 bytes @ 0x5
   875                           
   876  003E                     ?_DIO_SetPortDirection:	
   877                           ; 1 bytes @ 0x5
   878                           
   879  003E                     ?_DIO_SetPortValue:	
   880                           ; 1 bytes @ 0x5
   881                           
   882  003E                     ??_I2C_Hold:	
   883                           ; 1 bytes @ 0x5
   884                           
   885  003E                     ?_ADC_Read:	
   886                           ; 1 bytes @ 0x5
   887                           
   888  003E                     ?___awdiv:	
   889                           ; 2 bytes @ 0x5
   890                           
   891  003E                     ?___awmod:	
   892                           ; 2 bytes @ 0x5
   893                           
   894  003E                     ?___lwdiv:	
   895                           ; 2 bytes @ 0x5
   896                           
   897  003E                     ?___lmul:	
   898                           ; 2 bytes @ 0x5
   899                           
   900  003E                     DIO_SetPinDirection@u8PinIdCopy:	
   901                           ; 4 bytes @ 0x5
   902                           
   903  003E                     DIO_SetPinValue@u8PinIdCopy:	
   904                           ; 1 bytes @ 0x5
   905                           
   906  003E                     DIO_SetPortDirection@u8PortDir:	
   907                           ; 1 bytes @ 0x5
   908                           
   909  003E                     DIO_SetPortValue@u8PortVal:	
   910                           ; 1 bytes @ 0x5
   911                           
   912  003E                     RB0_SetCallBack@pFun:	
   913                           ; 1 bytes @ 0x5
   914                           
   915  003E                     RB4_SetCallBack@pFun:	
   916                           ; 1 bytes @ 0x5
   917                           
   918  003E                     RB5_SetCallBack@pFun:	
   919                           ; 1 bytes @ 0x5
   920                           
   921  003E                     I2C_Write@u8_Data:	
   922                           ; 1 bytes @ 0x5
   923                           
   924  003E                     I2C_Read@ack:	
   925                           ; 1 bytes @ 0x5
   926                           
   927  003E                     ___awdiv@divisor:	
   928                           ; 1 bytes @ 0x5
   929                           
   930  003E                     ___awmod@divisor:	
   931                           ; 2 bytes @ 0x5
   932                           
   933  003E                     ___lwdiv@divisor:	
   934                           ; 2 bytes @ 0x5
   935                           
   936  003E                     ___lmul@multiplier:	
   937                           ; 2 bytes @ 0x5
   938                           
   939                           
   940                           ; 4 bytes @ 0x5
   941  003E                     	ds	1
   942  003F                     ??_EEPROM_WriteToEEPROM:
   943  003F                     ??_SetCallBacks:	
   944                           ; 1 bytes @ 0x6
   945                           
   946  003F                     ??_DIO_SetPortDirection:	
   947                           ; 1 bytes @ 0x6
   948                           
   949  003F                     ??_DIO_SetPortValue:	
   950                           ; 1 bytes @ 0x6
   951                           
   952  003F                     DIO_SetPinDirection@u8PinDirCopy:	
   953                           ; 1 bytes @ 0x6
   954                           
   955  003F                     DIO_SetPinValue@u8PinValCopy:	
   956                           ; 1 bytes @ 0x6
   957                           
   958  003F                     EEPROM_WriteToEEPROM@u8_Data:	
   959                           ; 1 bytes @ 0x6
   960                           
   961  003F                     I2C_Read@u8_DataRead:	
   962                           ; 1 bytes @ 0x6
   963                           
   964                           
   965                           ; 1 bytes @ 0x6
   966  003F                     	ds	1
   967  0040                     ??_EEPROM_ReadFromEEPROM:
   968  0040                     ??_DIO_SetPinDirection:	
   969                           ; 1 bytes @ 0x7
   970                           
   971  0040                     ??_DIO_SetPinValue:	
   972                           ; 1 bytes @ 0x7
   973                           
   974  0040                     ??_ADC_Read:	
   975                           ; 1 bytes @ 0x7
   976                           
   977  0040                     EEPROM_ReadFromEEPROM@Data:	
   978                           ; 1 bytes @ 0x7
   979                           
   980  0040                     ___awdiv@dividend:	
   981                           ; 1 bytes @ 0x7
   982                           
   983  0040                     ___awmod@dividend:	
   984                           ; 2 bytes @ 0x7
   985                           
   986  0040                     ___lwdiv@dividend:	
   987                           ; 2 bytes @ 0x7
   988                           
   989                           
   990                           ; 2 bytes @ 0x7
   991  0040                     	ds	1
   992  0041                     ??_SystemVars_Init:
   993  0041                     DIO_SetPortDirection@u8PortId:	
   994                           ; 1 bytes @ 0x8
   995                           
   996  0041                     DIO_SetPortValue@u8PortId:	
   997                           ; 1 bytes @ 0x8
   998                           
   999  0041                     ADC_Read@u8_Channel:	
  1000                           ; 1 bytes @ 0x8
  1001                           
  1002                           
  1003                           ; 1 bytes @ 0x8
  1004  0041                     	ds	1
  1005  0042                     ??___awdiv:
  1006  0042                     ??___awmod:	
  1007                           ; 1 bytes @ 0x9
  1008                           
  1009  0042                     ??___lwdiv:	
  1010                           ; 1 bytes @ 0x9
  1011                           
  1012  0042                     DIO_SetPinDirection@u8PortIdCopy:	
  1013                           ; 1 bytes @ 0x9
  1014                           
  1015  0042                     DIO_SetPinValue@u8PortIdCopy:	
  1016                           ; 1 bytes @ 0x9
  1017                           
  1018  0042                     ___awdiv@counter:	
  1019                           ; 1 bytes @ 0x9
  1020                           
  1021  0042                     ___awmod@counter:	
  1022                           ; 1 bytes @ 0x9
  1023                           
  1024  0042                     ___lwdiv@quotient:	
  1025                           ; 1 bytes @ 0x9
  1026                           
  1027  0042                     ___lmul@multiplicand:	
  1028                           ; 2 bytes @ 0x9
  1029                           
  1030                           
  1031                           ; 4 bytes @ 0x9
  1032  0042                     	ds	1
  1033  0043                     ??_OFF_Mode:
  1034  0043                     ??_vid_7_Segment_DeInit:	
  1035                           ; 1 bytes @ 0xA
  1036                           
  1037  0043                     ??_vid_7_Segment_Init:	
  1038                           ; 1 bytes @ 0xA
  1039                           
  1040  0043                     ??_Cooler_Init:	
  1041                           ; 1 bytes @ 0xA
  1042                           
  1043  0043                     ??_Cooler_TurnOn:	
  1044                           ; 1 bytes @ 0xA
  1045                           
  1046  0043                     ??_Cooler_TurnOff:	
  1047                           ; 1 bytes @ 0xA
  1048                           
  1049  0043                     ??_Heater_Init:	
  1050                           ; 1 bytes @ 0xA
  1051                           
  1052  0043                     ??_Heater_TurnOn:	
  1053                           ; 1 bytes @ 0xA
  1054                           
  1055  0043                     ??_Heater_TurnOff:	
  1056                           ; 1 bytes @ 0xA
  1057                           
  1058  0043                     ??_TempSensor_Init:	
  1059                           ; 1 bytes @ 0xA
  1060                           
  1061  0043                     ??_EXT_INT_Init:	
  1062                           ; 1 bytes @ 0xA
  1063                           
  1064  0043                     ??_I2C_Init:	
  1065                           ; 1 bytes @ 0xA
  1066                           
  1067  0043                     ??_vid_Left_7_Segment_DisplayNumber:	
  1068                           ; 1 bytes @ 0xA
  1069                           
  1070  0043                     ??_vid_Right_7_Segment_DisplayNumber:	
  1071                           ; 1 bytes @ 0xA
  1072                           
  1073  0043                     vid_Left_7_Segment_DisplayNumber@u8_Number:	
  1074                           ; 1 bytes @ 0xA
  1075                           
  1076  0043                     vid_Right_7_Segment_DisplayNumber@u8_Number:	
  1077                           ; 1 bytes @ 0xA
  1078                           
  1079  0043                     ___awdiv@sign:	
  1080                           ; 1 bytes @ 0xA
  1081                           
  1082  0043                     ___awmod@sign:	
  1083                           ; 1 bytes @ 0xA
  1084                           
  1085                           
  1086                           ; 1 bytes @ 0xA
  1087  0043                     	ds	1
  1088  0044                     ___lwdiv@counter:
  1089  0044                     ___awdiv@quotient:	
  1090                           ; 1 bytes @ 0xB
  1091                           
  1092                           
  1093                           ; 2 bytes @ 0xB
  1094  0044                     	ds	2
  1095  0046                     ??_vid_7_Segment_Display_2Digits:
  1096  0046                     ??___lmul:	
  1097                           ; 1 bytes @ 0xD
  1098                           
  1099                           
  1100                           ; 1 bytes @ 0xD
  1101  0046                     	ds	1
  1102  0047                     ___lmul@product:
  1103                           
  1104                           ; 4 bytes @ 0xE
  1105  0047                     	ds	1
  1106  0048                     vid_7_Segment_Display_2Digits@Ones:
  1107                           
  1108                           ; 1 bytes @ 0xF
  1109  0048                     	ds	1
  1110  0049                     vid_7_Segment_Display_2Digits@Tens:
  1111                           
  1112                           ; 1 bytes @ 0x10
  1113  0049                     	ds	1
  1114  004A                     vid_7_Segment_Display_2Digits@u8_Num:
  1115                           
  1116                           ; 1 bytes @ 0x11
  1117  004A                     	ds	1
  1118  004B                     ??_ON_Mode:
  1119  004B                     ??_SetTemp_Mode:	
  1120                           ; 1 bytes @ 0x12
  1121                           
  1122  004B                     ??_Temp_ControlWaterTemp:	
  1123                           ; 1 bytes @ 0x12
  1124                           
  1125                           
  1126                           ; 1 bytes @ 0x12
  1127  004B                     	ds	3
  1128  004E                     SetTemp_Mode@stability:
  1129                           
  1130                           ; 1 bytes @ 0x15
  1131  004E                     	ds	1
  1132  004F                     SetTemp_Mode@count:
  1133  004F                     Temp_ControlWaterTemp@iterator:	
  1134                           ; 1 bytes @ 0x16
  1135                           
  1136                           
  1137                           ; 1 bytes @ 0x16
  1138  004F                     	ds	1
  1139  0050                     Temp_ControlWaterTemp@u16_Temp_Avg:
  1140                           
  1141                           ; 2 bytes @ 0x17
  1142  0050                     	ds	2
  1143  0052                     ??_main:
  1144                           
  1145                           	psect	maintext
  1146  069B                     __pmaintext:	
  1147                           ; 1 bytes @ 0x19
  1148 ;;
  1149 ;;Main: autosize = 0, tempsize = 0, incstack = 0, save=0
  1150 ;;
  1151 ;; *************** function _main *****************
  1152 ;; Defined at:
  1153 ;;		line 33 in file "main.c"
  1154 ;; Parameters:    Size  Location     Type
  1155 ;;		None
  1156 ;; Auto vars:     Size  Location     Type
  1157 ;;		None
  1158 ;; Return value:  Size  Location     Type
  1159 ;;                  1    wreg      void 
  1160 ;; Registers used:
  1161 ;;		wreg, fsr0l, fsr0h, status,2, status,0, btemp+1, pclath, cstack
  1162 ;; Tracked objects:
  1163 ;;		On entry : B00/0
  1164 ;;		On exit  : 0/0
  1165 ;;		Unchanged: 0/0
  1166 ;; Data sizes:     COMMON   BANK0   BANK1   BANK3   BANK2
  1167 ;;      Params:         0       0       0       0       0
  1168 ;;      Locals:         0       0       0       0       0
  1169 ;;      Temps:          0       0       0       0       0
  1170 ;;      Totals:         0       0       0       0       0
  1171 ;;Total ram usage:        0 bytes
  1172 ;; Hardware stack levels required when called:   10
  1173 ;; This function calls:
  1174 ;;		_Cooler_Init
  1175 ;;		_EXT_INT_Init
  1176 ;;		_Heater_Init
  1177 ;;		_I2C_Init
  1178 ;;		_OFF_Mode
  1179 ;;		_ON_Mode
  1180 ;;		_SetCallBacks
  1181 ;;		_SetTemp_Mode
  1182 ;;		_SystemVars_Init
  1183 ;;		_TempSensor_Init
  1184 ;;		_Temp_ControlWaterTemp
  1185 ;;		_vid_7_Segment_Init
  1186 ;; This function is called by:
  1187 ;;		Startup code after reset
  1188 ;; This function uses a non-reentrant model
  1189 ;;
  1190                           
  1191                           
  1192                           ;psect for function _main
  1193  069B                     _main:
  1194  069B                     l3284:	
  1195                           ;incstack = 0
  1196 ;; hardware stack exceeded
  1197                           ; Regs used in _main: [wreg-fsr0h+status,2+status,0+btemp+1+pclath+cstack]
  1198                           
  1199                           
  1200                           ;main.c: 36:       Heater_Init() ;
  1201  069B  120A  158A  2570  120A  118A  	fcall	_Heater_Init
  1202                           
  1203                           ;main.c: 37:   Cooler_Init();
  1204  06A0  120A  158A  2554  120A  118A  	fcall	_Cooler_Init
  1205                           
  1206                           ;main.c: 38:      TempSensor_Init () ;
  1207  06A5  120A  158A  250B  120A  118A  	fcall	_TempSensor_Init
  1208                           
  1209                           ;main.c: 39: I2C_Init() ;
  1210  06AA  120A  158A  261F  120A  118A  	fcall	_I2C_Init
  1211                           
  1212                           ;main.c: 40:   EXT_INT_Init ();
  1213  06AF  120A  158A  2767  120A  118A  	fcall	_EXT_INT_Init
  1214                           
  1215                           ;main.c: 41:     vid_7_Segment_Init() ;
  1216  06B4  120A  118A  2771  120A  118A  	fcall	_vid_7_Segment_Init
  1217  06B9                     l3286:
  1218                           
  1219                           ;main.c: 42:     SetCallBacks ();
  1220  06B9  120A  158A  24F8  120A  118A  	fcall	_SetCallBacks
  1221  06BE                     l3288:
  1222                           
  1223                           ;main.c: 43:   OFF_Mode();
  1224  06BE  120A  158A  2475  120A  118A  	fcall	_OFF_Mode
  1225                           
  1226                           ;main.c: 44:   SystemVars_Init () ;
  1227  06C3  120A  158A  2799  120A  118A  	fcall	_SystemVars_Init
  1228  06C8  2ED8               	goto	l3292
  1229  06C9                     l3290:
  1230                           
  1231                           ;main.c: 53:         {;main.c: 54:             ON_Mode() ;
  1232  06C9  120A  158A  245C  120A  118A  	fcall	_ON_Mode
  1233                           
  1234                           ;main.c: 55:             SetTemp_Mode() ;
  1235  06CE  120A  118A  2651  120A  118A  	fcall	_SetTemp_Mode
  1236                           
  1237                           ;main.c: 56:              Temp_ControlWaterTemp();
  1238  06D3  120A  118A  2032  120A  118A  	fcall	_Temp_ControlWaterTemp
  1239  06D8                     l3292:
  1240                           
  1241                           ;main.c: 52:         while (ON_OFF_Status == 1)
  1242  06D8  1283               	bcf	3,5	;RP0=0, select bank0
  1243  06D9  1303               	bcf	3,6	;RP1=0, select bank0
  1244  06DA  0337               	decf	_ON_OFF_Status,w
  1245  06DB  1903               	btfsc	3,2
  1246  06DC  2EDE               	goto	u2421
  1247  06DD  2EDF               	goto	u2420
  1248  06DE                     u2421:
  1249  06DE  2EC9               	goto	l3290
  1250  06DF                     u2420:
  1251  06DF  2ED8               	goto	l3292
  1252  06E0  120A  118A  2812   	ljmp	start
  1253  06E3                     __end_of_main:
  1254                           
  1255                           	psect	text1
  1256  0771                     __ptext1:	
  1257 ;; *************** function _vid_7_Segment_Init *****************
  1258 ;; Defined at:
  1259 ;;		line 28 in file "7_Segment_prog.c"
  1260 ;; Parameters:    Size  Location     Type
  1261 ;;		None
  1262 ;; Auto vars:     Size  Location     Type
  1263 ;;		None
  1264 ;; Return value:  Size  Location     Type
  1265 ;;                  1    wreg      void 
  1266 ;; Registers used:
  1267 ;;		wreg, fsr0l, fsr0h, status,2, status,0, btemp+1, pclath, cstack
  1268 ;; Tracked objects:
  1269 ;;		On entry : 0/0
  1270 ;;		On exit  : 0/0
  1271 ;;		Unchanged: 0/0
  1272 ;; Data sizes:     COMMON   BANK0   BANK1   BANK3   BANK2
  1273 ;;      Params:         0       0       0       0       0
  1274 ;;      Locals:         0       0       0       0       0
  1275 ;;      Temps:          0       0       0       0       0
  1276 ;;      Totals:         0       0       0       0       0
  1277 ;;Total ram usage:        0 bytes
  1278 ;; Hardware stack levels used:    1
  1279 ;; Hardware stack levels required when called:    7
  1280 ;; This function calls:
  1281 ;;		_DIO_SetPinDirection
  1282 ;;		_DIO_SetPinValue
  1283 ;;		_DIO_SetPortDirection
  1284 ;; This function is called by:
  1285 ;;		_main
  1286 ;; This function uses a non-reentrant model
  1287 ;;
  1288                           
  1289                           
  1290                           ;psect for function _vid_7_Segment_Init
  1291  0771                     _vid_7_Segment_Init:
  1292  0771                     l2666:	
  1293                           ;incstack = 0
  1294                           ; Regs used in _vid_7_Segment_Init: [wreg-fsr0h+status,2+status,0+btemp+1+pclath+cstack]
  1295                           
  1296  0771  3004               	movlw	4
  1297  0772  00FF               	movwf	btemp+1
  1298  0773  087F               	movf	btemp+1,w
  1299  0774  1283               	bcf	3,5	;RP0=0, select bank0
  1300  0775  1303               	bcf	3,6	;RP1=0, select bank0
  1301  0776  00BE               	movwf	DIO_SetPinDirection@u8PinIdCopy
  1302  0777  01BF               	clrf	DIO_SetPinDirection@u8PinDirCopy
  1303  0778  0ABF               	incf	DIO_SetPinDirection@u8PinDirCopy,f
  1304  0779  3000               	movlw	0
  1305  077A  120A  118A  2100  120A  118A  	fcall	_DIO_SetPinDirection
  1306  077F  3005               	movlw	5
  1307  0780  00FF               	movwf	btemp+1
  1308  0781  087F               	movf	btemp+1,w
  1309  0782  1283               	bcf	3,5	;RP0=0, select bank0
  1310  0783  1303               	bcf	3,6	;RP1=0, select bank0
  1311  0784  00BE               	movwf	DIO_SetPinDirection@u8PinIdCopy
  1312  0785  01BF               	clrf	DIO_SetPinDirection@u8PinDirCopy
  1313  0786  0ABF               	incf	DIO_SetPinDirection@u8PinDirCopy,f
  1314  0787  3000               	movlw	0
  1315  0788  120A  118A  2100  120A  118A  	fcall	_DIO_SetPinDirection
  1316  078D  1283               	bcf	3,5	;RP0=0, select bank0
  1317  078E  1303               	bcf	3,6	;RP1=0, select bank0
  1318  078F  01BE               	clrf	DIO_SetPortDirection@u8PortDir
  1319  0790  3003               	movlw	3
  1320  0791  120A  118A  27B1  120A  118A  	fcall	_DIO_SetPortDirection
  1321  0796  3004               	movlw	4
  1322  0797  00FF               	movwf	btemp+1
  1323  0798  087F               	movf	btemp+1,w
  1324  0799  1283               	bcf	3,5	;RP0=0, select bank0
  1325  079A  1303               	bcf	3,6	;RP1=0, select bank0
  1326  079B  00BE               	movwf	DIO_SetPinValue@u8PinIdCopy
  1327  079C  01BF               	clrf	DIO_SetPinValue@u8PinValCopy
  1328  079D  3000               	movlw	0
  1329  079E  120A  118A  2296  120A  118A  	fcall	_DIO_SetPinValue
  1330  07A3  3005               	movlw	5
  1331  07A4  00FF               	movwf	btemp+1
  1332  07A5  087F               	movf	btemp+1,w
  1333  07A6  1283               	bcf	3,5	;RP0=0, select bank0
  1334  07A7  1303               	bcf	3,6	;RP1=0, select bank0
  1335  07A8  00BE               	movwf	DIO_SetPinValue@u8PinIdCopy
  1336  07A9  01BF               	clrf	DIO_SetPinValue@u8PinValCopy
  1337  07AA  3000               	movlw	0
  1338  07AB  120A  118A  2296  120A  118A  	fcall	_DIO_SetPinValue
  1339  07B0                     l376:
  1340  07B0  0008               	return
  1341  07B1                     __end_of_vid_7_Segment_Init:
  1342                           
  1343                           	psect	text2
  1344  07B1                     __ptext2:	
  1345 ;; *************** function _DIO_SetPortDirection *****************
  1346 ;; Defined at:
  1347 ;;		line 133 in file "DIO_Prog.c"
  1348 ;; Parameters:    Size  Location     Type
  1349 ;;  u8PortId        1    wreg     unsigned char 
  1350 ;;  u8PortDir       1    5[BANK0 ] unsigned char 
  1351 ;; Auto vars:     Size  Location     Type
  1352 ;;  u8PortId        1    8[BANK0 ] unsigned char 
  1353 ;; Return value:  Size  Location     Type
  1354 ;;                  1    wreg      void 
  1355 ;; Registers used:
  1356 ;;		wreg, fsr0l, fsr0h, status,2, status,0, btemp+1
  1357 ;; Tracked objects:
  1358 ;;		On entry : 0/0
  1359 ;;		On exit  : 0/0
  1360 ;;		Unchanged: 0/0
  1361 ;; Data sizes:     COMMON   BANK0   BANK1   BANK3   BANK2
  1362 ;;      Params:         0       1       0       0       0
  1363 ;;      Locals:         0       1       0       0       0
  1364 ;;      Temps:          0       2       0       0       0
  1365 ;;      Totals:         0       4       0       0       0
  1366 ;;Total ram usage:        4 bytes
  1367 ;; Hardware stack levels used:    1
  1368 ;; Hardware stack levels required when called:    6
  1369 ;; This function calls:
  1370 ;;		Nothing
  1371 ;; This function is called by:
  1372 ;;		_vid_7_Segment_Init
  1373 ;; This function uses a non-reentrant model
  1374 ;;
  1375                           
  1376                           
  1377                           ;psect for function _DIO_SetPortDirection
  1378  07B1                     _DIO_SetPortDirection:
  1379                           
  1380                           ;incstack = 0
  1381                           ; Regs used in _DIO_SetPortDirection: [wreg-fsr0h+status,2+status,0+btemp+1]
  1382                           ;DIO_SetPortDirection@u8PortId stored from wreg
  1383  07B1  1283               	bcf	3,5	;RP0=0, select bank0
  1384  07B2  1303               	bcf	3,6	;RP1=0, select bank0
  1385  07B3  00C1               	movwf	DIO_SetPortDirection@u8PortId
  1386  07B4                     l2406:
  1387                           
  1388                           ;DIO_Prog.c: 133: void DIO_SetPortDirection (u8 u8PortId, u8 u8PortDir);DIO_Prog.c: 134:
      +                           {;DIO_Prog.c: 136:  switch (u8PortId)
  1389  07B4  2FD1               	goto	l2418
  1390  07B5                     l2408:
  1391  07B5  083E               	movf	DIO_SetPortDirection@u8PortDir,w
  1392  07B6  00FF               	movwf	btemp+1
  1393  07B7  087F               	movf	btemp+1,w
  1394  07B8  1683               	bsf	3,5	;RP0=1, select bank1
  1395  07B9  1303               	bcf	3,6	;RP1=0, select bank1
  1396  07BA  0085               	movwf	5	;volatile
  1397  07BB  2FE7               	goto	l202
  1398  07BC                     l2410:
  1399  07BC  083E               	movf	DIO_SetPortDirection@u8PortDir,w
  1400  07BD  00FF               	movwf	btemp+1
  1401  07BE  087F               	movf	btemp+1,w
  1402  07BF  1683               	bsf	3,5	;RP0=1, select bank1
  1403  07C0  1303               	bcf	3,6	;RP1=0, select bank1
  1404  07C1  0086               	movwf	6	;volatile
  1405  07C2  2FE7               	goto	l202
  1406  07C3                     l2412:
  1407  07C3  083E               	movf	DIO_SetPortDirection@u8PortDir,w
  1408  07C4  00FF               	movwf	btemp+1
  1409  07C5  087F               	movf	btemp+1,w
  1410  07C6  1683               	bsf	3,5	;RP0=1, select bank1
  1411  07C7  1303               	bcf	3,6	;RP1=0, select bank1
  1412  07C8  0087               	movwf	7	;volatile
  1413  07C9  2FE7               	goto	l202
  1414  07CA                     l2414:
  1415  07CA  083E               	movf	DIO_SetPortDirection@u8PortDir,w
  1416  07CB  00FF               	movwf	btemp+1
  1417  07CC  087F               	movf	btemp+1,w
  1418  07CD  1683               	bsf	3,5	;RP0=1, select bank1
  1419  07CE  1303               	bcf	3,6	;RP1=0, select bank1
  1420  07CF  0088               	movwf	8	;volatile
  1421  07D0  2FE7               	goto	l202
  1422  07D1                     l2418:
  1423  07D1  0841               	movf	DIO_SetPortDirection@u8PortId,w
  1424  07D2  00BF               	movwf	??_DIO_SetPortDirection
  1425  07D3  01C0               	clrf	??_DIO_SetPortDirection+1
  1426                           
  1427                           ; Switch on 2 bytes has been partitioned into a top level switch of size 1, and 1 sub-sw
      +                          itches
  1428                           ; Switch size 1, requested type "simple"
  1429                           ; Number of cases is 1, Range of values is 0 to 0
  1430                           ; switch strategies available:
  1431                           ; Name         Instructions Cycles
  1432                           ; simple_byte            4     3 (average)
  1433                           ; direct_byte           11     8 (fixed)
  1434                           ; jumptable            260     6 (fixed)
  1435                           ;	Chosen strategy is simple_byte
  1436  07D4  0840               	movf	??_DIO_SetPortDirection+1,w
  1437  07D5  3A00               	xorlw	0	; case 0
  1438  07D6  1903               	skipnz
  1439  07D7  2FD9               	goto	l3514
  1440  07D8  2FE7               	goto	l202
  1441  07D9                     l3514:
  1442                           
  1443                           ; Switch size 1, requested type "simple"
  1444                           ; Number of cases is 4, Range of values is 0 to 3
  1445                           ; switch strategies available:
  1446                           ; Name         Instructions Cycles
  1447                           ; simple_byte           13     7 (average)
  1448                           ; direct_byte           20     8 (fixed)
  1449                           ; jumptable            260     6 (fixed)
  1450                           ;	Chosen strategy is simple_byte
  1451  07D9  083F               	movf	??_DIO_SetPortDirection,w
  1452  07DA  3A00               	xorlw	0	; case 0
  1453  07DB  1903               	skipnz
  1454  07DC  2FB5               	goto	l2408
  1455  07DD  3A01               	xorlw	1	; case 1
  1456  07DE  1903               	skipnz
  1457  07DF  2FBC               	goto	l2410
  1458  07E0  3A03               	xorlw	3	; case 2
  1459  07E1  1903               	skipnz
  1460  07E2  2FC3               	goto	l2412
  1461  07E3  3A01               	xorlw	1	; case 3
  1462  07E4  1903               	skipnz
  1463  07E5  2FCA               	goto	l2414
  1464  07E6  2FE7               	goto	l202
  1465  07E7                     l202:
  1466  07E7  0008               	return
  1467  07E8                     __end_of_DIO_SetPortDirection:
  1468                           
  1469                           	psect	text3
  1470  0032                     __ptext3:	
  1471 ;; *************** function _Temp_ControlWaterTemp *****************
  1472 ;; Defined at:
  1473 ;;		line 307 in file "APP_Program.c"
  1474 ;; Parameters:    Size  Location     Type
  1475 ;;		None
  1476 ;; Auto vars:     Size  Location     Type
  1477 ;;  u16_Temp_Avg    2   23[BANK0 ] unsigned short 
  1478 ;;  iterator        1   22[BANK0 ] unsigned char 
  1479 ;; Return value:  Size  Location     Type
  1480 ;;                  1    wreg      void 
  1481 ;; Registers used:
  1482 ;;		wreg, fsr0l, fsr0h, status,2, status,0, btemp+1, pclath, cstack
  1483 ;; Tracked objects:
  1484 ;;		On entry : 0/0
  1485 ;;		On exit  : 0/0
  1486 ;;		Unchanged: 0/0
  1487 ;; Data sizes:     COMMON   BANK0   BANK1   BANK3   BANK2
  1488 ;;      Params:         0       0       0       0       0
  1489 ;;      Locals:         0       3       0       0       0
  1490 ;;      Temps:          0       4       0       0       0
  1491 ;;      Totals:         0       7       0       0       0
  1492 ;;Total ram usage:        7 bytes
  1493 ;; Hardware stack levels used:    1
  1494 ;; Hardware stack levels required when called:    8
  1495 ;; This function calls:
  1496 ;;		_ADC_Read
  1497 ;;		_Cooler_TurnOff
  1498 ;;		_Cooler_TurnOn
  1499 ;;		_Heater_TurnOff
  1500 ;;		_Heater_TurnOn
  1501 ;;		___lmul
  1502 ;;		___lwdiv
  1503 ;; This function is called by:
  1504 ;;		_main
  1505 ;; This function uses a non-reentrant model
  1506 ;;
  1507                           
  1508                           
  1509                           ;psect for function _Temp_ControlWaterTemp
  1510  0032                     _Temp_ControlWaterTemp:
  1511  0032                     l3236:	
  1512                           ;incstack = 0
  1513 ;; hardware stack exceeded
  1514                           ; Regs used in _Temp_ControlWaterTemp: [wreg-fsr0h+status,2+status,0+btemp+1+pclath+csta
      +                          ck]
  1515                           
  1516                           
  1517                           ;APP_Program.c: 311:     u16 u16_Temp_Avg = 0 ;
  1518  0032  1283               	bcf	3,5	;RP0=0, select bank0
  1519  0033  1303               	bcf	3,6	;RP1=0, select bank0
  1520  0034  01D0               	clrf	Temp_ControlWaterTemp@u16_Temp_Avg
  1521  0035  01D1               	clrf	Temp_ControlWaterTemp@u16_Temp_Avg+1
  1522  0036                     l3238:
  1523                           
  1524                           ;APP_Program.c: 316:     u16_ADC_Read = ADC_Read(2);
  1525  0036  3002               	movlw	2
  1526  0037  120A  158A  2649  120A  118A  	fcall	_ADC_Read
  1527  003C  1283               	bcf	3,5	;RP0=0, select bank0
  1528  003D  1303               	bcf	3,6	;RP1=0, select bank0
  1529  003E  083F               	movf	?_ADC_Read+1,w
  1530  003F  00AD               	movwf	_u16_ADC_Read+1
  1531  0040  083E               	movf	?_ADC_Read,w
  1532  0041  00AC               	movwf	_u16_ADC_Read
  1533  0042                     l3240:
  1534                           
  1535                           ;APP_Program.c: 317:     u16_Voltage = ((u16_ADC_Read * 5000UL) /1024UL ) ;
  1536  0042  082C               	movf	_u16_ADC_Read,w
  1537  0043  00BE               	movwf	___lmul@multiplier
  1538  0044  082D               	movf	_u16_ADC_Read+1,w
  1539  0045  00BF               	movwf	___lmul@multiplier+1
  1540  0046  01C0               	clrf	___lmul@multiplier+2
  1541  0047  01C1               	clrf	___lmul@multiplier+3
  1542  0048  3000               	movlw	0
  1543  0049  00C5               	movwf	___lmul@multiplicand+3
  1544  004A  3000               	movlw	0
  1545  004B  00C4               	movwf	___lmul@multiplicand+2
  1546  004C  3013               	movlw	19
  1547  004D  00C3               	movwf	___lmul@multiplicand+1
  1548  004E  3088               	movlw	136
  1549  004F  00C2               	movwf	___lmul@multiplicand
  1550  0050  120A  118A  26E3  120A  118A  	fcall	___lmul
  1551  0055  1283               	bcf	3,5	;RP0=0, select bank0
  1552  0056  1303               	bcf	3,6	;RP1=0, select bank0
  1553  0057  083E               	movf	?___lmul,w
  1554  0058  00CB               	movwf	??_Temp_ControlWaterTemp
  1555  0059  083F               	movf	?___lmul+1,w
  1556  005A  00CC               	movwf	??_Temp_ControlWaterTemp+1
  1557  005B  0840               	movf	?___lmul+2,w
  1558  005C  00CD               	movwf	??_Temp_ControlWaterTemp+2
  1559  005D  0841               	movf	?___lmul+3,w
  1560  005E  00CE               	movwf	??_Temp_ControlWaterTemp+3
  1561  005F  300A               	movlw	10
  1562  0060                     u2375:
  1563  0060  1003               	clrc
  1564  0061  0CCE               	rrf	??_Temp_ControlWaterTemp+3,f
  1565  0062  0CCD               	rrf	??_Temp_ControlWaterTemp+2,f
  1566  0063  0CCC               	rrf	??_Temp_ControlWaterTemp+1,f
  1567  0064  0CCB               	rrf	??_Temp_ControlWaterTemp,f
  1568  0065                     u2370:
  1569  0065  3EFF               	addlw	-1
  1570  0066  1D03               	skipz
  1571  0067  2860               	goto	u2375
  1572  0068  084C               	movf	??_Temp_ControlWaterTemp+1,w
  1573  0069  00AB               	movwf	_u16_Voltage+1
  1574  006A  084B               	movf	??_Temp_ControlWaterTemp,w
  1575  006B  00AA               	movwf	_u16_Voltage
  1576  006C                     l3242:
  1577                           
  1578                           ;APP_Program.c: 318:     u8_Water_Temp = (u8) (u16_Voltage / 10 );
  1579  006C  300A               	movlw	10
  1580  006D  00BE               	movwf	___lwdiv@divisor
  1581  006E  3000               	movlw	0
  1582  006F  00BF               	movwf	___lwdiv@divisor+1
  1583  0070  082B               	movf	_u16_Voltage+1,w
  1584  0071  00C1               	movwf	___lwdiv@dividend+1
  1585  0072  082A               	movf	_u16_Voltage,w
  1586  0073  00C0               	movwf	___lwdiv@dividend
  1587  0074  120A  118A  272B  120A  118A  	fcall	___lwdiv
  1588  0079  1283               	bcf	3,5	;RP0=0, select bank0
  1589  007A  1303               	bcf	3,6	;RP1=0, select bank0
  1590  007B  083E               	movf	?___lwdiv,w
  1591  007C  00FF               	movwf	btemp+1
  1592  007D  087F               	movf	btemp+1,w
  1593  007E  00B3               	movwf	_u8_Water_Temp
  1594  007F                     l3244:
  1595                           
  1596                           ;APP_Program.c: 320:     u8_arr_Temp[u8_Counter] = u8_Water_Temp ;
  1597  007F  0833               	movf	_u8_Water_Temp,w
  1598  0080  00FF               	movwf	btemp+1
  1599  0081  0832               	movf	_u8_Counter,w
  1600  0082  3E20               	addlw	(low (_u8_arr_Temp| 0))& (0+255)
  1601  0083  0084               	movwf	4
  1602  0084  087F               	movf	btemp+1,w
  1603  0085  1383               	bcf	3,7	;select IRP bank0
  1604  0086  0080               	movwf	0
  1605  0087                     l3246:
  1606                           
  1607                           ;APP_Program.c: 321:     u8_Counter ++ ;
  1608  0087  3001               	movlw	1
  1609  0088  00FF               	movwf	btemp+1
  1610  0089  087F               	movf	btemp+1,w
  1611  008A  07B2               	addwf	_u8_Counter,f
  1612  008B                     l3248:
  1613                           
  1614                           ;APP_Program.c: 322:     if (u8_Counter == 10 )
  1615  008B  300A               	movlw	10
  1616  008C  0632               	xorwf	_u8_Counter,w
  1617  008D  1D03               	btfss	3,2
  1618  008E  2890               	goto	u2381
  1619  008F  2891               	goto	u2380
  1620  0090                     u2381:
  1621  0090  28FF               	goto	l136
  1622  0091                     u2380:
  1623  0091                     l3250:
  1624                           
  1625                           ;APP_Program.c: 323:     {;APP_Program.c: 324:         u8_Counter = 0 ;
  1626  0091  01B2               	clrf	_u8_Counter
  1627                           
  1628                           ;APP_Program.c: 326:         for ( iterator = 0 ; iterator < 10 ; iterator ++ )
  1629  0092  01CF               	clrf	Temp_ControlWaterTemp@iterator
  1630  0093                     l3256:
  1631                           
  1632                           ;APP_Program.c: 327:         {;APP_Program.c: 329:             u16_Temp_Avg = u16_Temp_A
      +                          vg + u8_arr_Temp[iterator] ;
  1633  0093  084F               	movf	Temp_ControlWaterTemp@iterator,w
  1634  0094  3E20               	addlw	(low (_u8_arr_Temp| 0))& (0+255)
  1635  0095  0084               	movwf	4
  1636  0096  0800               	movf	0,w
  1637  0097  0750               	addwf	Temp_ControlWaterTemp@u16_Temp_Avg,w
  1638  0098  00D0               	movwf	Temp_ControlWaterTemp@u16_Temp_Avg
  1639  0099  0851               	movf	Temp_ControlWaterTemp@u16_Temp_Avg+1,w
  1640  009A  1803               	skipnc
  1641  009B  0A51               	incf	Temp_ControlWaterTemp@u16_Temp_Avg+1,w
  1642  009C  00D1               	movwf	Temp_ControlWaterTemp@u16_Temp_Avg+1
  1643  009D                     l3258:
  1644                           
  1645                           ;APP_Program.c: 330:         }
  1646  009D  3001               	movlw	1
  1647  009E  00FF               	movwf	btemp+1
  1648  009F  087F               	movf	btemp+1,w
  1649  00A0  07CF               	addwf	Temp_ControlWaterTemp@iterator,f
  1650  00A1                     l3260:
  1651  00A1  300A               	movlw	10
  1652  00A2  024F               	subwf	Temp_ControlWaterTemp@iterator,w
  1653  00A3  1C03               	skipc
  1654  00A4  28A6               	goto	u2391
  1655  00A5  28A7               	goto	u2390
  1656  00A6                     u2391:
  1657  00A6  2893               	goto	l3256
  1658  00A7                     u2390:
  1659  00A7                     l3262:
  1660                           
  1661                           ;APP_Program.c: 332:         u16_Temp_Avg = (u8) ( u16_Temp_Avg / 10 ) ;
  1662  00A7  300A               	movlw	10
  1663  00A8  00BE               	movwf	___lwdiv@divisor
  1664  00A9  3000               	movlw	0
  1665  00AA  00BF               	movwf	___lwdiv@divisor+1
  1666  00AB  0851               	movf	Temp_ControlWaterTemp@u16_Temp_Avg+1,w
  1667  00AC  00C1               	movwf	___lwdiv@dividend+1
  1668  00AD  0850               	movf	Temp_ControlWaterTemp@u16_Temp_Avg,w
  1669  00AE  00C0               	movwf	___lwdiv@dividend
  1670  00AF  120A  118A  272B  120A  118A  	fcall	___lwdiv
  1671  00B4  1283               	bcf	3,5	;RP0=0, select bank0
  1672  00B5  1303               	bcf	3,6	;RP1=0, select bank0
  1673  00B6  083E               	movf	?___lwdiv,w
  1674  00B7  00CB               	movwf	??_Temp_ControlWaterTemp
  1675  00B8  01CC               	clrf	??_Temp_ControlWaterTemp+1
  1676  00B9  084B               	movf	??_Temp_ControlWaterTemp,w
  1677  00BA  00D0               	movwf	Temp_ControlWaterTemp@u16_Temp_Avg
  1678  00BB  084C               	movf	??_Temp_ControlWaterTemp+1,w
  1679  00BC  00D1               	movwf	Temp_ControlWaterTemp@u16_Temp_Avg+1
  1680  00BD                     l3264:
  1681                           
  1682                           ;APP_Program.c: 335:         if ( u16_Temp_Avg >= ( u8_Temp_Set + 5 ) )
  1683  00BD  0838               	movf	_u8_Temp_Set,w
  1684  00BE  3E05               	addlw	5
  1685  00BF  00CB               	movwf	??_Temp_ControlWaterTemp
  1686  00C0  3000               	movlw	0
  1687  00C1  1803               	skipnc
  1688  00C2  3001               	movlw	1
  1689  00C3  00CC               	movwf	??_Temp_ControlWaterTemp+1
  1690  00C4  084C               	movf	??_Temp_ControlWaterTemp+1,w
  1691  00C5  0251               	subwf	Temp_ControlWaterTemp@u16_Temp_Avg+1,w
  1692  00C6  1D03               	skipz
  1693  00C7  28CA               	goto	u2405
  1694  00C8  084B               	movf	??_Temp_ControlWaterTemp,w
  1695  00C9  0250               	subwf	Temp_ControlWaterTemp@u16_Temp_Avg,w
  1696  00CA                     u2405:
  1697  00CA  1C03               	skipc
  1698  00CB  28CD               	goto	u2401
  1699  00CC  28CE               	goto	u2400
  1700  00CD                     u2401:
  1701  00CD  28D9               	goto	l3272
  1702  00CE                     u2400:
  1703  00CE                     l3266:
  1704                           
  1705                           ;APP_Program.c: 336:         {;APP_Program.c: 337:              Cooler_TurnOn() ;
  1706  00CE  120A  158A  24C7  120A  118A  	fcall	_Cooler_TurnOn
  1707                           
  1708                           ;APP_Program.c: 338:              Heater_TurnOff() ;
  1709  00D3  120A  158A  24AA  120A  118A  	fcall	_Heater_TurnOff
  1710  00D8  28FF               	goto	l136
  1711  00D9                     l3272:
  1712  00D9  0838               	movf	_u8_Temp_Set,w
  1713  00DA  3EFB               	addlw	251
  1714  00DB  00CB               	movwf	??_Temp_ControlWaterTemp
  1715  00DC  30FF               	movlw	255
  1716  00DD  1803               	skipnc
  1717  00DE  3000               	movlw	0
  1718  00DF  00CC               	movwf	??_Temp_ControlWaterTemp+1
  1719  00E0  0851               	movf	Temp_ControlWaterTemp@u16_Temp_Avg+1,w
  1720  00E1  024C               	subwf	??_Temp_ControlWaterTemp+1,w
  1721  00E2  1D03               	skipz
  1722  00E3  28E6               	goto	u2415
  1723  00E4  0850               	movf	Temp_ControlWaterTemp@u16_Temp_Avg,w
  1724  00E5  024B               	subwf	??_Temp_ControlWaterTemp,w
  1725  00E6                     u2415:
  1726  00E6  1C03               	skipc
  1727  00E7  28E9               	goto	u2411
  1728  00E8  28EA               	goto	u2410
  1729  00E9                     u2411:
  1730  00E9  28F5               	goto	l3280
  1731  00EA                     u2410:
  1732  00EA                     l3274:
  1733                           
  1734                           ;APP_Program.c: 342:         {;APP_Program.c: 343:              Heater_TurnOn() ;
  1735  00EA  120A  158A  24D6  120A  118A  	fcall	_Heater_TurnOn
  1736                           
  1737                           ;APP_Program.c: 344:              Cooler_TurnOff() ;
  1738  00EF  120A  158A  249C  120A  118A  	fcall	_Cooler_TurnOff
  1739  00F4  28FF               	goto	l136
  1740  00F5                     l3280:
  1741                           
  1742                           ;APP_Program.c: 349:         {;APP_Program.c: 350:              Cooler_TurnOff() ;
  1743  00F5  120A  158A  249C  120A  118A  	fcall	_Cooler_TurnOff
  1744                           
  1745                           ;APP_Program.c: 351:              Heater_TurnOff() ;
  1746  00FA  120A  158A  24AA  120A  118A  	fcall	_Heater_TurnOff
  1747  00FF                     l136:
  1748  00FF  0008               	return
  1749  0100                     __end_of_Temp_ControlWaterTemp:
  1750                           
  1751                           	psect	text4
  1752  072B                     __ptext4:	
  1753 ;; *************** function ___lwdiv *****************
  1754 ;; Defined at:
  1755 ;;		line 5 in file "C:\Program Files\Microchip\xc8\v2.20\pic\sources\c90\common\lwdiv.c"
  1756 ;; Parameters:    Size  Location     Type
  1757 ;;  divisor         2    5[BANK0 ] unsigned int 
  1758 ;;  dividend        2    7[BANK0 ] unsigned int 
  1759 ;; Auto vars:     Size  Location     Type
  1760 ;;  quotient        2    9[BANK0 ] unsigned int 
  1761 ;;  counter         1   11[BANK0 ] unsigned char 
  1762 ;; Return value:  Size  Location     Type
  1763 ;;                  2    5[BANK0 ] unsigned int 
  1764 ;; Registers used:
  1765 ;;		wreg, status,2, status,0, btemp+1
  1766 ;; Tracked objects:
  1767 ;;		On entry : 0/0
  1768 ;;		On exit  : 0/0
  1769 ;;		Unchanged: 0/0
  1770 ;; Data sizes:     COMMON   BANK0   BANK1   BANK3   BANK2
  1771 ;;      Params:         0       4       0       0       0
  1772 ;;      Locals:         0       3       0       0       0
  1773 ;;      Temps:          0       0       0       0       0
  1774 ;;      Totals:         0       7       0       0       0
  1775 ;;Total ram usage:        7 bytes
  1776 ;; Hardware stack levels used:    1
  1777 ;; Hardware stack levels required when called:    6
  1778 ;; This function calls:
  1779 ;;		Nothing
  1780 ;; This function is called by:
  1781 ;;		_Temp_ControlWaterTemp
  1782 ;; This function uses a non-reentrant model
  1783 ;;
  1784                           
  1785                           
  1786                           ;psect for function ___lwdiv
  1787  072B                     ___lwdiv:
  1788  072B                     l2426:	
  1789                           ;incstack = 0
  1790                           ; Regs used in ___lwdiv: [wreg+status,2+status,0+btemp+1]
  1791                           
  1792  072B  1283               	bcf	3,5	;RP0=0, select bank0
  1793  072C  1303               	bcf	3,6	;RP1=0, select bank0
  1794  072D  01C2               	clrf	___lwdiv@quotient
  1795  072E  01C3               	clrf	___lwdiv@quotient+1
  1796  072F                     l2428:
  1797  072F  083E               	movf	___lwdiv@divisor,w
  1798  0730  043F               	iorwf	___lwdiv@divisor+1,w
  1799  0731  1903               	btfsc	3,2
  1800  0732  2F34               	goto	u1841
  1801  0733  2F35               	goto	u1840
  1802  0734                     u1841:
  1803  0734  2F6C               	goto	l2448
  1804  0735                     u1840:
  1805  0735                     l2430:
  1806  0735  01C4               	clrf	___lwdiv@counter
  1807  0736  0AC4               	incf	___lwdiv@counter,f
  1808  0737  2F43               	goto	l2436
  1809  0738                     l2432:
  1810  0738  3001               	movlw	1
  1811  0739                     u1855:
  1812  0739  1003               	clrc
  1813  073A  0DBE               	rlf	___lwdiv@divisor,f
  1814  073B  0DBF               	rlf	___lwdiv@divisor+1,f
  1815  073C  3EFF               	addlw	-1
  1816  073D  1D03               	skipz
  1817  073E  2F39               	goto	u1855
  1818  073F                     l2434:
  1819  073F  3001               	movlw	1
  1820  0740  00FF               	movwf	btemp+1
  1821  0741  087F               	movf	btemp+1,w
  1822  0742  07C4               	addwf	___lwdiv@counter,f
  1823  0743                     l2436:
  1824  0743  1FBF               	btfss	___lwdiv@divisor+1,7
  1825  0744  2F46               	goto	u1861
  1826  0745  2F47               	goto	u1860
  1827  0746                     u1861:
  1828  0746  2F38               	goto	l2432
  1829  0747                     u1860:
  1830  0747                     l2438:
  1831  0747  3001               	movlw	1
  1832  0748                     u1875:
  1833  0748  1003               	clrc
  1834  0749  0DC2               	rlf	___lwdiv@quotient,f
  1835  074A  0DC3               	rlf	___lwdiv@quotient+1,f
  1836  074B  3EFF               	addlw	-1
  1837  074C  1D03               	skipz
  1838  074D  2F48               	goto	u1875
  1839  074E  083F               	movf	___lwdiv@divisor+1,w
  1840  074F  0241               	subwf	___lwdiv@dividend+1,w
  1841  0750  1D03               	skipz
  1842  0751  2F54               	goto	u1885
  1843  0752  083E               	movf	___lwdiv@divisor,w
  1844  0753  0240               	subwf	___lwdiv@dividend,w
  1845  0754                     u1885:
  1846  0754  1C03               	skipc
  1847  0755  2F57               	goto	u1881
  1848  0756  2F58               	goto	u1880
  1849  0757                     u1881:
  1850  0757  2F5F               	goto	l2444
  1851  0758                     u1880:
  1852  0758                     l2440:
  1853  0758  083E               	movf	___lwdiv@divisor,w
  1854  0759  02C0               	subwf	___lwdiv@dividend,f
  1855  075A  083F               	movf	___lwdiv@divisor+1,w
  1856  075B  1C03               	skipc
  1857  075C  03C1               	decf	___lwdiv@dividend+1,f
  1858  075D  02C1               	subwf	___lwdiv@dividend+1,f
  1859  075E                     l2442:
  1860  075E  1442               	bsf	___lwdiv@quotient,0
  1861  075F                     l2444:
  1862  075F  3001               	movlw	1
  1863  0760                     u1895:
  1864  0760  1003               	clrc
  1865  0761  0CBF               	rrf	___lwdiv@divisor+1,f
  1866  0762  0CBE               	rrf	___lwdiv@divisor,f
  1867  0763  3EFF               	addlw	-1
  1868  0764  1D03               	skipz
  1869  0765  2F60               	goto	u1895
  1870  0766                     l2446:
  1871  0766  3001               	movlw	1
  1872  0767  02C4               	subwf	___lwdiv@counter,f
  1873  0768  1D03               	btfss	3,2
  1874  0769  2F6B               	goto	u1901
  1875  076A  2F6C               	goto	u1900
  1876  076B                     u1901:
  1877  076B  2F47               	goto	l2438
  1878  076C                     u1900:
  1879  076C                     l2448:
  1880  076C  0843               	movf	___lwdiv@quotient+1,w
  1881  076D  00BF               	movwf	?___lwdiv+1
  1882  076E  0842               	movf	___lwdiv@quotient,w
  1883  076F  00BE               	movwf	?___lwdiv
  1884  0770                     l746:
  1885  0770  0008               	return
  1886  0771                     __end_of___lwdiv:
  1887                           
  1888                           	psect	text5
  1889  06E3                     __ptext5:	
  1890 ;; *************** function ___lmul *****************
  1891 ;; Defined at:
  1892 ;;		line 15 in file "C:\Program Files\Microchip\xc8\v2.20\pic\sources\c90\common\Umul32.c"
  1893 ;; Parameters:    Size  Location     Type
  1894 ;;  multiplier      4    5[BANK0 ] unsigned long 
  1895 ;;  multiplicand    4    9[BANK0 ] unsigned long 
  1896 ;; Auto vars:     Size  Location     Type
  1897 ;;  product         4   14[BANK0 ] unsigned long 
  1898 ;; Return value:  Size  Location     Type
  1899 ;;                  4    5[BANK0 ] unsigned long 
  1900 ;; Registers used:
  1901 ;;		wreg, status,2, status,0
  1902 ;; Tracked objects:
  1903 ;;		On entry : 0/0
  1904 ;;		On exit  : 0/0
  1905 ;;		Unchanged: 0/0
  1906 ;; Data sizes:     COMMON   BANK0   BANK1   BANK3   BANK2
  1907 ;;      Params:         0       8       0       0       0
  1908 ;;      Locals:         0       4       0       0       0
  1909 ;;      Temps:          0       1       0       0       0
  1910 ;;      Totals:         0      13       0       0       0
  1911 ;;Total ram usage:       13 bytes
  1912 ;; Hardware stack levels used:    1
  1913 ;; Hardware stack levels required when called:    6
  1914 ;; This function calls:
  1915 ;;		Nothing
  1916 ;; This function is called by:
  1917 ;;		_Temp_ControlWaterTemp
  1918 ;; This function uses a non-reentrant model
  1919 ;;
  1920                           
  1921                           
  1922                           ;psect for function ___lmul
  1923  06E3                     ___lmul:
  1924  06E3                     l3222:	
  1925                           ;incstack = 0
  1926                           ; Regs used in ___lmul: [wreg+status,2+status,0]
  1927                           
  1928  06E3  3000               	movlw	0
  1929  06E4  1283               	bcf	3,5	;RP0=0, select bank0
  1930  06E5  1303               	bcf	3,6	;RP1=0, select bank0
  1931  06E6  00CA               	movwf	___lmul@product+3
  1932  06E7  3000               	movlw	0
  1933  06E8  00C9               	movwf	___lmul@product+2
  1934  06E9  3000               	movlw	0
  1935  06EA  00C8               	movwf	___lmul@product+1
  1936  06EB  3000               	movlw	0
  1937  06EC  00C7               	movwf	___lmul@product
  1938  06ED                     l3224:
  1939  06ED  1C3E               	btfss	___lmul@multiplier,0
  1940  06EE  2EF0               	goto	u2321
  1941  06EF  2EF1               	goto	u2320
  1942  06F0                     u2321:
  1943  06F0  2F08               	goto	l3228
  1944  06F1                     u2320:
  1945  06F1                     l3226:
  1946  06F1  0842               	movf	___lmul@multiplicand,w
  1947  06F2  07C7               	addwf	___lmul@product,f
  1948  06F3  0843               	movf	___lmul@multiplicand+1,w
  1949  06F4  1103               	clrz
  1950  06F5  1803               	skipnc
  1951  06F6  3E01               	addlw	1
  1952  06F7  1903               	skipnz
  1953  06F8  2EFA               	goto	u2331
  1954  06F9  07C8               	addwf	___lmul@product+1,f
  1955  06FA                     u2331:
  1956  06FA  0844               	movf	___lmul@multiplicand+2,w
  1957  06FB  1103               	clrz
  1958  06FC  1803               	skipnc
  1959  06FD  3E01               	addlw	1
  1960  06FE  1903               	skipnz
  1961  06FF  2F01               	goto	u2332
  1962  0700  07C9               	addwf	___lmul@product+2,f
  1963  0701                     u2332:
  1964  0701  0845               	movf	___lmul@multiplicand+3,w
  1965  0702  1103               	clrz
  1966  0703  1803               	skipnc
  1967  0704  3E01               	addlw	1
  1968  0705  1903               	skipnz
  1969  0706  2F08               	goto	u2333
  1970  0707  07CA               	addwf	___lmul@product+3,f
  1971  0708                     u2333:
  1972  0708                     l3228:
  1973  0708  3001               	movlw	1
  1974  0709  00C6               	movwf	??___lmul
  1975  070A                     u2345:
  1976  070A  1003               	clrc
  1977  070B  0DC2               	rlf	___lmul@multiplicand,f
  1978  070C  0DC3               	rlf	___lmul@multiplicand+1,f
  1979  070D  0DC4               	rlf	___lmul@multiplicand+2,f
  1980  070E  0DC5               	rlf	___lmul@multiplicand+3,f
  1981  070F  0BC6               	decfsz	??___lmul,f
  1982  0710  2F0A               	goto	u2345
  1983  0711                     l3230:
  1984  0711  3001               	movlw	1
  1985  0712                     u2355:
  1986  0712  1003               	clrc
  1987  0713  0CC1               	rrf	___lmul@multiplier+3,f
  1988  0714  0CC0               	rrf	___lmul@multiplier+2,f
  1989  0715  0CBF               	rrf	___lmul@multiplier+1,f
  1990  0716  0CBE               	rrf	___lmul@multiplier,f
  1991  0717  3EFF               	addlw	-1
  1992  0718  1D03               	skipz
  1993  0719  2F12               	goto	u2355
  1994  071A  0841               	movf	___lmul@multiplier+3,w
  1995  071B  0440               	iorwf	___lmul@multiplier+2,w
  1996  071C  043F               	iorwf	___lmul@multiplier+1,w
  1997  071D  043E               	iorwf	___lmul@multiplier,w
  1998  071E  1D03               	skipz
  1999  071F  2F21               	goto	u2361
  2000  0720  2F22               	goto	u2360
  2001  0721                     u2361:
  2002  0721  2EED               	goto	l3224
  2003  0722                     u2360:
  2004  0722                     l3232:
  2005  0722  084A               	movf	___lmul@product+3,w
  2006  0723  00C1               	movwf	?___lmul+3
  2007  0724  0849               	movf	___lmul@product+2,w
  2008  0725  00C0               	movwf	?___lmul+2
  2009  0726  0848               	movf	___lmul@product+1,w
  2010  0727  00BF               	movwf	?___lmul+1
  2011  0728  0847               	movf	___lmul@product,w
  2012  0729  00BE               	movwf	?___lmul
  2013  072A                     l488:
  2014  072A  0008               	return
  2015  072B                     __end_of___lmul:
  2016                           
  2017                           	psect	text6
  2018  0CD6                     __ptext6:	
  2019 ;; *************** function _Heater_TurnOn *****************
  2020 ;; Defined at:
  2021 ;;		line 282 in file "APP_Program.c"
  2022 ;; Parameters:    Size  Location     Type
  2023 ;;		None
  2024 ;; Auto vars:     Size  Location     Type
  2025 ;;		None
  2026 ;; Return value:  Size  Location     Type
  2027 ;;                  1    wreg      void 
  2028 ;; Registers used:
  2029 ;;		wreg, fsr0l, fsr0h, status,2, status,0, btemp+1, pclath, cstack
  2030 ;; Tracked objects:
  2031 ;;		On entry : 0/0
  2032 ;;		On exit  : 0/0
  2033 ;;		Unchanged: 0/0
  2034 ;; Data sizes:     COMMON   BANK0   BANK1   BANK3   BANK2
  2035 ;;      Params:         0       0       0       0       0
  2036 ;;      Locals:         0       0       0       0       0
  2037 ;;      Temps:          0       0       0       0       0
  2038 ;;      Totals:         0       0       0       0       0
  2039 ;;Total ram usage:        0 bytes
  2040 ;; Hardware stack levels used:    1
  2041 ;; Hardware stack levels required when called:    7
  2042 ;; This function calls:
  2043 ;;		_DIO_SetPinValue
  2044 ;; This function is called by:
  2045 ;;		_Temp_ControlWaterTemp
  2046 ;; This function uses a non-reentrant model
  2047 ;;
  2048                           
  2049                           
  2050                           ;psect for function _Heater_TurnOn
  2051  0CD6                     _Heater_TurnOn:
  2052  0CD6                     l2388:	
  2053                           ;incstack = 0
  2054 ;; hardware stack exceeded
  2055                           ; Regs used in _Heater_TurnOn: [wreg-fsr0h+status,2+status,0+btemp+1+pclath+cstack]
  2056                           
  2057                           
  2058                           ;APP_Program.c: 284:     DIO_SetPinValue ( 2 , 5 , 1 ) ;
  2059  0CD6  3005               	movlw	5
  2060  0CD7  00FF               	movwf	btemp+1
  2061  0CD8  087F               	movf	btemp+1,w
  2062  0CD9  1283               	bcf	3,5	;RP0=0, select bank0
  2063  0CDA  1303               	bcf	3,6	;RP1=0, select bank0
  2064  0CDB  00BE               	movwf	DIO_SetPinValue@u8PinIdCopy
  2065  0CDC  01BF               	clrf	DIO_SetPinValue@u8PinValCopy
  2066  0CDD  0ABF               	incf	DIO_SetPinValue@u8PinValCopy,f
  2067  0CDE  3002               	movlw	2
  2068  0CDF  120A  118A  2296  120A  158A  	fcall	_DIO_SetPinValue
  2069  0CE4                     l123:
  2070  0CE4  0008               	return
  2071  0CE5                     __end_of_Heater_TurnOn:
  2072                           
  2073                           	psect	text7
  2074  0CAA                     __ptext7:	
  2075 ;; *************** function _Heater_TurnOff *****************
  2076 ;; Defined at:
  2077 ;;		line 289 in file "APP_Program.c"
  2078 ;; Parameters:    Size  Location     Type
  2079 ;;		None
  2080 ;; Auto vars:     Size  Location     Type
  2081 ;;		None
  2082 ;; Return value:  Size  Location     Type
  2083 ;;                  1    wreg      void 
  2084 ;; Registers used:
  2085 ;;		wreg, fsr0l, fsr0h, status,2, status,0, btemp+1, pclath, cstack
  2086 ;; Tracked objects:
  2087 ;;		On entry : 0/0
  2088 ;;		On exit  : 0/0
  2089 ;;		Unchanged: 0/0
  2090 ;; Data sizes:     COMMON   BANK0   BANK1   BANK3   BANK2
  2091 ;;      Params:         0       0       0       0       0
  2092 ;;      Locals:         0       0       0       0       0
  2093 ;;      Temps:          0       0       0       0       0
  2094 ;;      Totals:         0       0       0       0       0
  2095 ;;Total ram usage:        0 bytes
  2096 ;; Hardware stack levels used:    1
  2097 ;; Hardware stack levels required when called:    7
  2098 ;; This function calls:
  2099 ;;		_DIO_SetPinValue
  2100 ;; This function is called by:
  2101 ;;		_Temp_ControlWaterTemp
  2102 ;; This function uses a non-reentrant model
  2103 ;;
  2104                           
  2105                           
  2106                           ;psect for function _Heater_TurnOff
  2107  0CAA                     _Heater_TurnOff:
  2108  0CAA                     l2390:	
  2109                           ;incstack = 0
  2110 ;; hardware stack exceeded
  2111                           ; Regs used in _Heater_TurnOff: [wreg-fsr0h+status,2+status,0+btemp+1+pclath+cstack]
  2112                           
  2113                           
  2114                           ;APP_Program.c: 291:     DIO_SetPinValue ( 2 , 5 , 0 ) ;
  2115  0CAA  3005               	movlw	5
  2116  0CAB  00FF               	movwf	btemp+1
  2117  0CAC  087F               	movf	btemp+1,w
  2118  0CAD  1283               	bcf	3,5	;RP0=0, select bank0
  2119  0CAE  1303               	bcf	3,6	;RP1=0, select bank0
  2120  0CAF  00BE               	movwf	DIO_SetPinValue@u8PinIdCopy
  2121  0CB0  01BF               	clrf	DIO_SetPinValue@u8PinValCopy
  2122  0CB1  3002               	movlw	2
  2123  0CB2  120A  118A  2296  120A  158A  	fcall	_DIO_SetPinValue
  2124  0CB7                     l126:
  2125  0CB7  0008               	return
  2126  0CB8                     __end_of_Heater_TurnOff:
  2127                           
  2128                           	psect	text8
  2129  0CC7                     __ptext8:	
  2130 ;; *************** function _Cooler_TurnOn *****************
  2131 ;; Defined at:
  2132 ;;		line 256 in file "APP_Program.c"
  2133 ;; Parameters:    Size  Location     Type
  2134 ;;		None
  2135 ;; Auto vars:     Size  Location     Type
  2136 ;;		None
  2137 ;; Return value:  Size  Location     Type
  2138 ;;                  1    wreg      void 
  2139 ;; Registers used:
  2140 ;;		wreg, fsr0l, fsr0h, status,2, status,0, btemp+1, pclath, cstack
  2141 ;; Tracked objects:
  2142 ;;		On entry : 0/0
  2143 ;;		On exit  : 0/0
  2144 ;;		Unchanged: 0/0
  2145 ;; Data sizes:     COMMON   BANK0   BANK1   BANK3   BANK2
  2146 ;;      Params:         0       0       0       0       0
  2147 ;;      Locals:         0       0       0       0       0
  2148 ;;      Temps:          0       0       0       0       0
  2149 ;;      Totals:         0       0       0       0       0
  2150 ;;Total ram usage:        0 bytes
  2151 ;; Hardware stack levels used:    1
  2152 ;; Hardware stack levels required when called:    7
  2153 ;; This function calls:
  2154 ;;		_DIO_SetPinValue
  2155 ;; This function is called by:
  2156 ;;		_Temp_ControlWaterTemp
  2157 ;; This function uses a non-reentrant model
  2158 ;;
  2159                           
  2160                           
  2161                           ;psect for function _Cooler_TurnOn
  2162  0CC7                     _Cooler_TurnOn:
  2163  0CC7                     l2384:	
  2164                           ;incstack = 0
  2165 ;; hardware stack exceeded
  2166                           ; Regs used in _Cooler_TurnOn: [wreg-fsr0h+status,2+status,0+btemp+1+pclath+cstack]
  2167                           
  2168                           
  2169                           ;APP_Program.c: 258:     DIO_SetPinValue ( 2 , 2 , 1 ) ;
  2170  0CC7  3002               	movlw	2
  2171  0CC8  00FF               	movwf	btemp+1
  2172  0CC9  087F               	movf	btemp+1,w
  2173  0CCA  1283               	bcf	3,5	;RP0=0, select bank0
  2174  0CCB  1303               	bcf	3,6	;RP1=0, select bank0
  2175  0CCC  00BE               	movwf	DIO_SetPinValue@u8PinIdCopy
  2176  0CCD  01BF               	clrf	DIO_SetPinValue@u8PinValCopy
  2177  0CCE  0ABF               	incf	DIO_SetPinValue@u8PinValCopy,f
  2178  0CCF  3002               	movlw	2
  2179  0CD0  120A  118A  2296  120A  158A  	fcall	_DIO_SetPinValue
  2180  0CD5                     l114:
  2181  0CD5  0008               	return
  2182  0CD6                     __end_of_Cooler_TurnOn:
  2183                           
  2184                           	psect	text9
  2185  0C9C                     __ptext9:	
  2186 ;; *************** function _Cooler_TurnOff *****************
  2187 ;; Defined at:
  2188 ;;		line 263 in file "APP_Program.c"
  2189 ;; Parameters:    Size  Location     Type
  2190 ;;		None
  2191 ;; Auto vars:     Size  Location     Type
  2192 ;;		None
  2193 ;; Return value:  Size  Location     Type
  2194 ;;                  1    wreg      void 
  2195 ;; Registers used:
  2196 ;;		wreg, fsr0l, fsr0h, status,2, status,0, btemp+1, pclath, cstack
  2197 ;; Tracked objects:
  2198 ;;		On entry : 0/0
  2199 ;;		On exit  : 0/0
  2200 ;;		Unchanged: 0/0
  2201 ;; Data sizes:     COMMON   BANK0   BANK1   BANK3   BANK2
  2202 ;;      Params:         0       0       0       0       0
  2203 ;;      Locals:         0       0       0       0       0
  2204 ;;      Temps:          0       0       0       0       0
  2205 ;;      Totals:         0       0       0       0       0
  2206 ;;Total ram usage:        0 bytes
  2207 ;; Hardware stack levels used:    1
  2208 ;; Hardware stack levels required when called:    7
  2209 ;; This function calls:
  2210 ;;		_DIO_SetPinValue
  2211 ;; This function is called by:
  2212 ;;		_Temp_ControlWaterTemp
  2213 ;; This function uses a non-reentrant model
  2214 ;;
  2215                           
  2216                           
  2217                           ;psect for function _Cooler_TurnOff
  2218  0C9C                     _Cooler_TurnOff:
  2219  0C9C                     l2386:	
  2220                           ;incstack = 0
  2221 ;; hardware stack exceeded
  2222                           ; Regs used in _Cooler_TurnOff: [wreg-fsr0h+status,2+status,0+btemp+1+pclath+cstack]
  2223                           
  2224                           
  2225                           ;APP_Program.c: 265:     DIO_SetPinValue ( 2 , 2 , 0 ) ;
  2226  0C9C  3002               	movlw	2
  2227  0C9D  00FF               	movwf	btemp+1
  2228  0C9E  087F               	movf	btemp+1,w
  2229  0C9F  1283               	bcf	3,5	;RP0=0, select bank0
  2230  0CA0  1303               	bcf	3,6	;RP1=0, select bank0
  2231  0CA1  00BE               	movwf	DIO_SetPinValue@u8PinIdCopy
  2232  0CA2  01BF               	clrf	DIO_SetPinValue@u8PinValCopy
  2233  0CA3  3002               	movlw	2
  2234  0CA4  120A  118A  2296  120A  158A  	fcall	_DIO_SetPinValue
  2235  0CA9                     l117:
  2236  0CA9  0008               	return
  2237  0CAA                     __end_of_Cooler_TurnOff:
  2238                           
  2239                           	psect	text10
  2240  0E49                     __ptext10:	
  2241 ;; *************** function _ADC_Read *****************
  2242 ;; Defined at:
  2243 ;;		line 30 in file "ADC_Prog.c"
  2244 ;; Parameters:    Size  Location     Type
  2245 ;;  u8_Channel      1    wreg     unsigned char 
  2246 ;; Auto vars:     Size  Location     Type
  2247 ;;  u8_Channel      1    8[BANK0 ] unsigned char 
  2248 ;; Return value:  Size  Location     Type
  2249 ;;                  2    5[BANK0 ] unsigned short 
  2250 ;; Registers used:
  2251 ;;		wreg, status,2, status,0, btemp+1
  2252 ;; Tracked objects:
  2253 ;;		On entry : 0/0
  2254 ;;		On exit  : 0/0
  2255 ;;		Unchanged: 0/0
  2256 ;; Data sizes:     COMMON   BANK0   BANK1   BANK3   BANK2
  2257 ;;      Params:         0       2       0       0       0
  2258 ;;      Locals:         0       1       0       0       0
  2259 ;;      Temps:          0       1       0       0       0
  2260 ;;      Totals:         0       4       0       0       0
  2261 ;;Total ram usage:        4 bytes
  2262 ;; Hardware stack levels used:    1
  2263 ;; Hardware stack levels required when called:    6
  2264 ;; This function calls:
  2265 ;;		Nothing
  2266 ;; This function is called by:
  2267 ;;		_Temp_ControlWaterTemp
  2268 ;; This function uses a non-reentrant model
  2269 ;;
  2270                           
  2271                           
  2272                           ;psect for function _ADC_Read
  2273  0E49                     _ADC_Read:
  2274                           
  2275                           ;incstack = 0
  2276                           ; Regs used in _ADC_Read: [wreg+status,2+status,0+btemp+1]
  2277                           ;ADC_Read@u8_Channel stored from wreg
  2278  0E49  1283               	bcf	3,5	;RP0=0, select bank0
  2279  0E4A  1303               	bcf	3,6	;RP1=0, select bank0
  2280  0E4B  00C1               	movwf	ADC_Read@u8_Channel
  2281  0E4C                     l2394:
  2282                           
  2283                           ;ADC_Prog.c: 30: u16 ADC_Read (u8 u8_Channel);ADC_Prog.c: 31: {;ADC_Prog.c: 39:     (*((
      +                          volatile u8*)0x1F)) |= (u8_Channel <<3) ;
  2284  0E4C  0841               	movf	ADC_Read@u8_Channel,w
  2285  0E4D  00C0               	movwf	??_ADC_Read
  2286  0E4E  3002               	movlw	2
  2287  0E4F                     u1815:
  2288  0E4F  1003               	clrc
  2289  0E50  0DC0               	rlf	??_ADC_Read,f
  2290  0E51  3EFF               	addlw	-1
  2291  0E52  1D03               	skipz
  2292  0E53  2E4F               	goto	u1815
  2293  0E54  1003               	clrc
  2294  0E55  0D40               	rlf	??_ADC_Read,w
  2295  0E56  00FF               	movwf	btemp+1
  2296  0E57  087F               	movf	btemp+1,w
  2297  0E58  049F               	iorwf	31,f	;volatile
  2298  0E59                     l2396:
  2299                           
  2300                           ;ADC_Prog.c: 41:     _delay((unsigned long)((30)*(8000000/4000000.0))) ;
  2301  0E59  3013               	movlw	19
  2302  0E5A  1283               	bcf	3,5	;RP0=0, select bank0
  2303  0E5B  1303               	bcf	3,6	;RP1=0, select bank0
  2304  0E5C  00C0               	movwf	??_ADC_Read
  2305  0E5D                     u2437:
  2306  0E5D  0BC0               	decfsz	??_ADC_Read,f
  2307  0E5E  2E5D               	goto	u2437
  2308  0E5F                     l2398:
  2309                           
  2310                           ;ADC_Prog.c: 43:     ((*((volatile u8*)0x1F))) |= (1 << (2)) ;
  2311  0E5F  1283               	bcf	3,5	;RP0=0, select bank0
  2312  0E60  1303               	bcf	3,6	;RP1=0, select bank0
  2313  0E61  151F               	bsf	31,2	;volatile
  2314  0E62                     l2400:	
  2315                           ;ADC_Prog.c: 45:     while ( ((((*((volatile u8*)0x1F))) >> (2)) & 0x01)) ;
  2316                           
  2317  0E62  081F               	movf	31,w	;volatile
  2318  0E63  00C0               	movwf	??_ADC_Read
  2319  0E64  3002               	movlw	2
  2320  0E65                     u1825:
  2321  0E65  1003               	clrc
  2322  0E66  0CC0               	rrf	??_ADC_Read,f
  2323  0E67  3EFF               	addlw	-1
  2324  0E68  1D03               	skipz
  2325  0E69  2E65               	goto	u1825
  2326  0E6A  1840               	btfsc	??_ADC_Read,0
  2327  0E6B  2E6D               	goto	u1831
  2328  0E6C  2E6E               	goto	u1830
  2329  0E6D                     u1831:
  2330  0E6D  2E62               	goto	l2400
  2331  0E6E                     u1830:
  2332  0E6E                     l2402:
  2333                           
  2334                           ;ADC_Prog.c: 47:   return (u16)( ((*((volatile u8*)0x1E)) << 8) + (*((volatile u8*)0x9E)
      +                          ) ) ;
  2335  0E6E  081E               	movf	30,w	;volatile
  2336  0E6F  00BF               	movwf	?_ADC_Read+1
  2337  0E70  1683               	bsf	3,5	;RP0=1, select bank1
  2338  0E71  1303               	bcf	3,6	;RP1=0, select bank1
  2339  0E72  081E               	movf	30,w	;volatile
  2340  0E73  1283               	bcf	3,5	;RP0=0, select bank0
  2341  0E74  1303               	bcf	3,6	;RP1=0, select bank0
  2342  0E75  00BE               	movwf	?_ADC_Read
  2343  0E76                     l302:
  2344  0E76  0008               	return
  2345  0E77                     __end_of_ADC_Read:
  2346                           
  2347                           	psect	text11
  2348  0D0B                     __ptext11:	
  2349 ;; *************** function _TempSensor_Init *****************
  2350 ;; Defined at:
  2351 ;;		line 299 in file "APP_Program.c"
  2352 ;; Parameters:    Size  Location     Type
  2353 ;;		None
  2354 ;; Auto vars:     Size  Location     Type
  2355 ;;		None
  2356 ;; Return value:  Size  Location     Type
  2357 ;;                  1    wreg      void 
  2358 ;; Registers used:
  2359 ;;		wreg, fsr0l, fsr0h, status,2, status,0, btemp+1, pclath, cstack
  2360 ;; Tracked objects:
  2361 ;;		On entry : 0/0
  2362 ;;		On exit  : 0/0
  2363 ;;		Unchanged: 0/0
  2364 ;; Data sizes:     COMMON   BANK0   BANK1   BANK3   BANK2
  2365 ;;      Params:         0       0       0       0       0
  2366 ;;      Locals:         0       0       0       0       0
  2367 ;;      Temps:          0       0       0       0       0
  2368 ;;      Totals:         0       0       0       0       0
  2369 ;;Total ram usage:        0 bytes
  2370 ;; Hardware stack levels used:    1
  2371 ;; Hardware stack levels required when called:    7
  2372 ;; This function calls:
  2373 ;;		_ADC_Init
  2374 ;;		_DIO_SetPinDirection
  2375 ;; This function is called by:
  2376 ;;		_main
  2377 ;; This function uses a non-reentrant model
  2378 ;;
  2379                           
  2380                           
  2381                           ;psect for function _TempSensor_Init
  2382  0D0B                     _TempSensor_Init:
  2383  0D0B                     l2566:	
  2384                           ;incstack = 0
  2385                           ; Regs used in _TempSensor_Init: [wreg-fsr0h+status,2+status,0+btemp+1+pclath+cstack]
  2386                           
  2387                           
  2388                           ;APP_Program.c: 301:     DIO_SetPinDirection(0 , 2 , 0 );
  2389  0D0B  3002               	movlw	2
  2390  0D0C  00FF               	movwf	btemp+1
  2391  0D0D  087F               	movf	btemp+1,w
  2392  0D0E  1283               	bcf	3,5	;RP0=0, select bank0
  2393  0D0F  1303               	bcf	3,6	;RP1=0, select bank0
  2394  0D10  00BE               	movwf	DIO_SetPinDirection@u8PinIdCopy
  2395  0D11  01BF               	clrf	DIO_SetPinDirection@u8PinDirCopy
  2396  0D12  3000               	movlw	0
  2397  0D13  120A  118A  2100  120A  158A  	fcall	_DIO_SetPinDirection
  2398  0D18                     l2568:
  2399                           
  2400                           ;APP_Program.c: 302:     ADC_Init() ;
  2401  0D18  120A  158A  248F  120A  158A  	fcall	_ADC_Init
  2402  0D1D                     l129:
  2403  0D1D  0008               	return
  2404  0D1E                     __end_of_TempSensor_Init:
  2405                           
  2406                           	psect	text12
  2407  0C8F                     __ptext12:	
  2408 ;; *************** function _ADC_Init *****************
  2409 ;; Defined at:
  2410 ;;		line 12 in file "ADC_Prog.c"
  2411 ;; Parameters:    Size  Location     Type
  2412 ;;		None
  2413 ;; Auto vars:     Size  Location     Type
  2414 ;;		None
  2415 ;; Return value:  Size  Location     Type
  2416 ;;                  1    wreg      void 
  2417 ;; Registers used:
  2418 ;;		wreg, btemp+1
  2419 ;; Tracked objects:
  2420 ;;		On entry : 0/0
  2421 ;;		On exit  : 0/0
  2422 ;;		Unchanged: 0/0
  2423 ;; Data sizes:     COMMON   BANK0   BANK1   BANK3   BANK2
  2424 ;;      Params:         0       0       0       0       0
  2425 ;;      Locals:         0       0       0       0       0
  2426 ;;      Temps:          0       0       0       0       0
  2427 ;;      Totals:         0       0       0       0       0
  2428 ;;Total ram usage:        0 bytes
  2429 ;; Hardware stack levels used:    1
  2430 ;; Hardware stack levels required when called:    6
  2431 ;; This function calls:
  2432 ;;		Nothing
  2433 ;; This function is called by:
  2434 ;;		_TempSensor_Init
  2435 ;; This function uses a non-reentrant model
  2436 ;;
  2437                           
  2438                           
  2439                           ;psect for function _ADC_Init
  2440  0C8F                     _ADC_Init:
  2441  0C8F                     l2392:	
  2442                           ;incstack = 0
  2443                           ; Regs used in _ADC_Init: [wreg+btemp+1]
  2444                           
  2445                           
  2446                           ;ADC_Prog.c: 18:     (*((volatile u8*)0x1F)) = 0x41 ;
  2447  0C8F  3041               	movlw	65
  2448  0C90  00FF               	movwf	btemp+1
  2449  0C91  087F               	movf	btemp+1,w
  2450  0C92  1283               	bcf	3,5	;RP0=0, select bank0
  2451  0C93  1303               	bcf	3,6	;RP1=0, select bank0
  2452  0C94  009F               	movwf	31	;volatile
  2453                           
  2454                           ;ADC_Prog.c: 24:     (*((volatile u8*)0x9F)) = 0x80 ;
  2455  0C95  3080               	movlw	128
  2456  0C96  00FF               	movwf	btemp+1
  2457  0C97  087F               	movf	btemp+1,w
  2458  0C98  1683               	bsf	3,5	;RP0=1, select bank1
  2459  0C99  1303               	bcf	3,6	;RP1=0, select bank1
  2460  0C9A  009F               	movwf	31	;volatile
  2461  0C9B                     l296:
  2462  0C9B  0008               	return
  2463  0C9C                     __end_of_ADC_Init:
  2464                           
  2465                           	psect	text13
  2466  0F99                     __ptext13:	
  2467 ;; *************** function _SystemVars_Init *****************
  2468 ;; Defined at:
  2469 ;;		line 55 in file "APP_Program.c"
  2470 ;; Parameters:    Size  Location     Type
  2471 ;;		None
  2472 ;; Auto vars:     Size  Location     Type
  2473 ;;		None
  2474 ;; Return value:  Size  Location     Type
  2475 ;;                  1    wreg      void 
  2476 ;; Registers used:
  2477 ;;		wreg, status,2, status,0, btemp+1, pclath, cstack
  2478 ;; Tracked objects:
  2479 ;;		On entry : 0/0
  2480 ;;		On exit  : 0/0
  2481 ;;		Unchanged: 0/0
  2482 ;; Data sizes:     COMMON   BANK0   BANK1   BANK3   BANK2
  2483 ;;      Params:         0       0       0       0       0
  2484 ;;      Locals:         0       0       0       0       0
  2485 ;;      Temps:          0       1       0       0       0
  2486 ;;      Totals:         0       1       0       0       0
  2487 ;;Total ram usage:        1 bytes
  2488 ;; Hardware stack levels used:    1
  2489 ;; Hardware stack levels required when called:    9
  2490 ;; This function calls:
  2491 ;;		_EEPROM_ReadFromEEPROM
  2492 ;;		_EEPROM_WriteToEEPROM
  2493 ;; This function is called by:
  2494 ;;		_main
  2495 ;; This function uses a non-reentrant model
  2496 ;;
  2497                           
  2498                           
  2499                           ;psect for function _SystemVars_Init
  2500  0F99                     _SystemVars_Init:
  2501  0F99                     l2466:	
  2502                           ;incstack = 0
  2503 ;; hardware stack exceeded
  2504                           ; Regs used in _SystemVars_Init: [wreg+status,2+status,0+btemp+1+pclath+cstack]
  2505                           
  2506                           
  2507                           ;APP_Program.c: 57:     if ( (EEPROM_ReadFromEEPROM() < 75 ) && (EEPROM_ReadFromEEPROM()
      +                           >35 ) )
  2508  0F99  120A  158A  2706  120A  158A  	fcall	_EEPROM_ReadFromEEPROM
  2509  0F9E  1283               	bcf	3,5	;RP0=0, select bank0
  2510  0F9F  1303               	bcf	3,6	;RP1=0, select bank0
  2511  0FA0  00C1               	movwf	??_SystemVars_Init
  2512  0FA1  304B               	movlw	75
  2513  0FA2  0241               	subwf	??_SystemVars_Init,w
  2514  0FA3  1803               	skipnc
  2515  0FA4  2FA6               	goto	u1911
  2516  0FA5  2FA7               	goto	u1910
  2517  0FA6                     u1911:
  2518  0FA6  2FB6               	goto	l2472
  2519  0FA7                     u1910:
  2520  0FA7                     l2468:
  2521  0FA7  120A  158A  2706  120A  158A  	fcall	_EEPROM_ReadFromEEPROM
  2522  0FAC  1283               	bcf	3,5	;RP0=0, select bank0
  2523  0FAD  1303               	bcf	3,6	;RP1=0, select bank0
  2524  0FAE  00C1               	movwf	??_SystemVars_Init
  2525  0FAF  3024               	movlw	36
  2526  0FB0  0241               	subwf	??_SystemVars_Init,w
  2527  0FB1  1C03               	skipc
  2528  0FB2  2FB4               	goto	u1921
  2529  0FB3  2FB5               	goto	u1920
  2530  0FB4                     u1921:
  2531  0FB4  2FB6               	goto	l2472
  2532  0FB5                     u1920:
  2533  0FB5  2FBC               	goto	l61
  2534  0FB6                     l2472:
  2535                           
  2536                           ;APP_Program.c: 62:     {;APP_Program.c: 63:         EEPROM_WriteToEEPROM(60) ;
  2537  0FB6  303C               	movlw	60
  2538  0FB7  120A  158A  25A9  120A  158A  	fcall	_EEPROM_WriteToEEPROM
  2539  0FBC                     l61:	
  2540                           ;APP_Program.c: 64:     }
  2541                           
  2542                           
  2543                           ;APP_Program.c: 66:     u8_Temp_Set = EEPROM_ReadFromEEPROM() ;
  2544  0FBC  120A  158A  2706  120A  158A  	fcall	_EEPROM_ReadFromEEPROM
  2545  0FC1  00FF               	movwf	btemp+1
  2546  0FC2  087F               	movf	btemp+1,w
  2547  0FC3  1283               	bcf	3,5	;RP0=0, select bank0
  2548  0FC4  1303               	bcf	3,6	;RP1=0, select bank0
  2549  0FC5  00B8               	movwf	_u8_Temp_Set
  2550  0FC6                     l2474:
  2551                           
  2552                           ;APP_Program.c: 67:      ON_OFF_Status = 0 ;
  2553  0FC6  01B7               	clrf	_ON_OFF_Status
  2554  0FC7                     l2476:
  2555                           
  2556                           ;APP_Program.c: 68:      ON_OFF_Flag = 0 ;
  2557  0FC7  01B6               	clrf	_ON_OFF_Flag
  2558  0FC8                     l2478:
  2559                           
  2560                           ;APP_Program.c: 69:      Set_Temp_Flag = 0 ;
  2561  0FC8  01B5               	clrf	_Set_Temp_Flag
  2562  0FC9                     l2480:
  2563                           
  2564                           ;APP_Program.c: 70:      TempChange_Status = 0 ;
  2565  0FC9  01B4               	clrf	_TempChange_Status
  2566  0FCA                     l62:
  2567  0FCA  0008               	return
  2568  0FCB                     __end_of_SystemVars_Init:
  2569                           
  2570                           	psect	text14
  2571  0F06                     __ptext14:	
  2572 ;; *************** function _EEPROM_ReadFromEEPROM *****************
  2573 ;; Defined at:
  2574 ;;		line 38 in file "EEPROM_Prog.c"
  2575 ;; Parameters:    Size  Location     Type
  2576 ;;		None
  2577 ;; Auto vars:     Size  Location     Type
  2578 ;;  Data            1    7[BANK0 ] unsigned char 
  2579 ;; Return value:  Size  Location     Type
  2580 ;;                  1    wreg      unsigned char 
  2581 ;; Registers used:
  2582 ;;		wreg, status,2, status,0, btemp+1, pclath, cstack
  2583 ;; Tracked objects:
  2584 ;;		On entry : 0/0
  2585 ;;		On exit  : 0/0
  2586 ;;		Unchanged: 0/0
  2587 ;; Data sizes:     COMMON   BANK0   BANK1   BANK3   BANK2
  2588 ;;      Params:         0       0       0       0       0
  2589 ;;      Locals:         0       1       0       0       0
  2590 ;;      Temps:          0       0       0       0       0
  2591 ;;      Totals:         0       1       0       0       0
  2592 ;;Total ram usage:        1 bytes
  2593 ;; Hardware stack levels used:    1
  2594 ;; Hardware stack levels required when called:    8
  2595 ;; This function calls:
  2596 ;;		_I2CBegin
  2597 ;;		_I2C_End
  2598 ;;		_I2C_Read
  2599 ;;		_I2C_RepeatedStart
  2600 ;;		_I2C_Write
  2601 ;; This function is called by:
  2602 ;;		_SystemVars_Init
  2603 ;; This function uses a non-reentrant model
  2604 ;;
  2605                           
  2606                           
  2607                           ;psect for function _EEPROM_ReadFromEEPROM
  2608  0F06                     _EEPROM_ReadFromEEPROM:
  2609  0F06                     l2302:	
  2610                           ;incstack = 0
  2611 ;; hardware stack exceeded
  2612                           ; Regs used in _EEPROM_ReadFromEEPROM: [wreg+status,2+status,0+btemp+1+pclath+cstack]
  2613                           
  2614                           
  2615                           ;EEPROM_Prog.c: 40:      u8 Data ;;EEPROM_Prog.c: 42:     I2CBegin() ;
  2616  0F06  120A  158A  2435  120A  158A  	fcall	_I2CBegin
  2617  0F0B                     l2304:
  2618                           
  2619                           ;EEPROM_Prog.c: 43:     I2C_Write(0xA0);
  2620  0F0B  30A0               	movlw	160
  2621  0F0C  120A  158A  24B8  120A  158A  	fcall	_I2C_Write
  2622  0F11                     l2306:
  2623                           
  2624                           ;EEPROM_Prog.c: 45:     I2C_Write((u8)0x00);
  2625  0F11  3000               	movlw	0
  2626  0F12  120A  158A  24B8  120A  158A  	fcall	_I2C_Write
  2627                           
  2628                           ;EEPROM_Prog.c: 46:     I2C_RepeatedStart();
  2629  0F17  120A  158A  2447  120A  158A  	fcall	_I2C_RepeatedStart
  2630  0F1C                     l2308:
  2631                           
  2632                           ;EEPROM_Prog.c: 48:     I2C_Write((0xA0)+1);
  2633  0F1C  30A1               	movlw	161
  2634  0F1D  120A  158A  24B8  120A  158A  	fcall	_I2C_Write
  2635  0F22                     l2310:
  2636                           
  2637                           ;EEPROM_Prog.c: 50:     Data = I2C_Read(0) ;
  2638  0F22  3000               	movlw	0
  2639  0F23  120A  158A  2736  120A  158A  	fcall	_I2C_Read
  2640  0F28  00FF               	movwf	btemp+1
  2641  0F29  087F               	movf	btemp+1,w
  2642  0F2A  1283               	bcf	3,5	;RP0=0, select bank0
  2643  0F2B  1303               	bcf	3,6	;RP1=0, select bank0
  2644  0F2C  00C0               	movwf	EEPROM_ReadFromEEPROM@Data
  2645                           
  2646                           ;EEPROM_Prog.c: 52:    I2C_End() ;
  2647  0F2D  120A  158A  243E  120A  158A  	fcall	_I2C_End
  2648  0F32                     l2312:
  2649                           
  2650                           ;EEPROM_Prog.c: 54:    return Data ;
  2651  0F32  1283               	bcf	3,5	;RP0=0, select bank0
  2652  0F33  1303               	bcf	3,6	;RP1=0, select bank0
  2653  0F34  0840               	movf	EEPROM_ReadFromEEPROM@Data,w
  2654  0F35                     l263:
  2655  0F35  0008               	return
  2656  0F36                     __end_of_EEPROM_ReadFromEEPROM:
  2657                           
  2658                           	psect	text15
  2659  0C47                     __ptext15:	
  2660 ;; *************** function _I2C_RepeatedStart *****************
  2661 ;; Defined at:
  2662 ;;		line 49 in file "I2C_Prog.c"
  2663 ;; Parameters:    Size  Location     Type
  2664 ;;		None
  2665 ;; Auto vars:     Size  Location     Type
  2666 ;;		None
  2667 ;; Return value:  Size  Location     Type
  2668 ;;                  1    wreg      void 
  2669 ;; Registers used:
  2670 ;;		wreg, status,2, status,0, pclath, cstack
  2671 ;; Tracked objects:
  2672 ;;		On entry : 0/0
  2673 ;;		On exit  : 0/0
  2674 ;;		Unchanged: 0/0
  2675 ;; Data sizes:     COMMON   BANK0   BANK1   BANK3   BANK2
  2676 ;;      Params:         0       0       0       0       0
  2677 ;;      Locals:         0       0       0       0       0
  2678 ;;      Temps:          0       0       0       0       0
  2679 ;;      Totals:         0       0       0       0       0
  2680 ;;Total ram usage:        0 bytes
  2681 ;; Hardware stack levels used:    1
  2682 ;; Hardware stack levels required when called:    7
  2683 ;; This function calls:
  2684 ;;		_I2C_Hold
  2685 ;; This function is called by:
  2686 ;;		_EEPROM_ReadFromEEPROM
  2687 ;; This function uses a non-reentrant model
  2688 ;;
  2689                           
  2690                           
  2691                           ;psect for function _I2C_RepeatedStart
  2692  0C47                     _I2C_RepeatedStart:
  2693  0C47                     l2172:	
  2694                           ;incstack = 0
  2695 ;; hardware stack exceeded
  2696                           ; Regs used in _I2C_RepeatedStart: [wreg+status,2+status,0+pclath+cstack]
  2697                           
  2698                           
  2699                           ;I2C_Prog.c: 51:          I2C_Hold() ;
  2700  0C47  120A  158A  2482  120A  158A  	fcall	_I2C_Hold
  2701  0C4C                     l2174:
  2702                           
  2703                           ;I2C_Prog.c: 53:      ((*((volatile u8*)0x91))) |= (1 << (1)) ;
  2704  0C4C  1683               	bsf	3,5	;RP0=1, select bank1
  2705  0C4D  1303               	bcf	3,6	;RP1=0, select bank1
  2706  0C4E  1491               	bsf	17,1	;volatile
  2707  0C4F                     l280:
  2708  0C4F  0008               	return
  2709  0C50                     __end_of_I2C_RepeatedStart:
  2710                           
  2711                           	psect	text16
  2712  0F36                     __ptext16:	
  2713 ;; *************** function _I2C_Read *****************
  2714 ;; Defined at:
  2715 ;;		line 76 in file "I2C_Prog.c"
  2716 ;; Parameters:    Size  Location     Type
  2717 ;;  ack             1    wreg     unsigned char 
  2718 ;; Auto vars:     Size  Location     Type
  2719 ;;  ack             1    5[BANK0 ] unsigned char 
  2720 ;;  u8_DataRead     1    6[BANK0 ] unsigned char 
  2721 ;; Return value:  Size  Location     Type
  2722 ;;                  1    wreg      unsigned char 
  2723 ;; Registers used:
  2724 ;;		wreg, status,2, status,0, btemp+1, pclath, cstack
  2725 ;; Tracked objects:
  2726 ;;		On entry : 0/0
  2727 ;;		On exit  : 0/0
  2728 ;;		Unchanged: 0/0
  2729 ;; Data sizes:     COMMON   BANK0   BANK1   BANK3   BANK2
  2730 ;;      Params:         0       0       0       0       0
  2731 ;;      Locals:         0       2       0       0       0
  2732 ;;      Temps:          0       0       0       0       0
  2733 ;;      Totals:         0       2       0       0       0
  2734 ;;Total ram usage:        2 bytes
  2735 ;; Hardware stack levels used:    1
  2736 ;; Hardware stack levels required when called:    7
  2737 ;; This function calls:
  2738 ;;		_I2C_Hold
  2739 ;; This function is called by:
  2740 ;;		_EEPROM_ReadFromEEPROM
  2741 ;; This function uses a non-reentrant model
  2742 ;;
  2743                           
  2744                           
  2745                           ;psect for function _I2C_Read
  2746  0F36                     _I2C_Read:
  2747                           
  2748                           ;incstack = 0
  2749 ;; hardware stack exceeded
  2750                           ; Regs used in _I2C_Read: [wreg+status,2+status,0+btemp+1+pclath+cstack]
  2751                           ;I2C_Read@ack stored from wreg
  2752  0F36  1283               	bcf	3,5	;RP0=0, select bank0
  2753  0F37  1303               	bcf	3,6	;RP1=0, select bank0
  2754  0F38  00BE               	movwf	I2C_Read@ack
  2755  0F39                     l2176:
  2756                           
  2757                           ;I2C_Prog.c: 76: u8 I2C_Read (u8 ack);I2C_Prog.c: 77: {;I2C_Prog.c: 78:     u8 u8_DataRe
      +                          ad ;;I2C_Prog.c: 79:     I2C_Hold() ;
  2758  0F39  120A  158A  2482  120A  158A  	fcall	_I2C_Hold
  2759  0F3E                     l2178:
  2760                           
  2761                           ;I2C_Prog.c: 80:     ((*((volatile u8*)0x91))) |= (1 << (3)) ;
  2762  0F3E  1683               	bsf	3,5	;RP0=1, select bank1
  2763  0F3F  1303               	bcf	3,6	;RP1=0, select bank1
  2764  0F40  1591               	bsf	17,3	;volatile
  2765                           
  2766                           ;I2C_Prog.c: 82:     I2C_Hold() ;
  2767  0F41  120A  158A  2482  120A  158A  	fcall	_I2C_Hold
  2768  0F46                     l2180:
  2769                           
  2770                           ;I2C_Prog.c: 83:     u8_DataRead = (*((volatile u8*)0x13)) ;
  2771  0F46  1283               	bcf	3,5	;RP0=0, select bank0
  2772  0F47  1303               	bcf	3,6	;RP1=0, select bank0
  2773  0F48  0813               	movf	19,w	;volatile
  2774  0F49  00FF               	movwf	btemp+1
  2775  0F4A  087F               	movf	btemp+1,w
  2776  0F4B  00BF               	movwf	I2C_Read@u8_DataRead
  2777  0F4C                     l2182:
  2778                           
  2779                           ;I2C_Prog.c: 85:     I2C_Hold() ;
  2780  0F4C  120A  158A  2482  120A  158A  	fcall	_I2C_Hold
  2781  0F51                     l2184:
  2782                           
  2783                           ;I2C_Prog.c: 87:     if (ack)
  2784  0F51  1283               	bcf	3,5	;RP0=0, select bank0
  2785  0F52  1303               	bcf	3,6	;RP1=0, select bank0
  2786  0F53  083E               	movf	I2C_Read@ack,w
  2787  0F54  1903               	btfsc	3,2
  2788  0F55  2F57               	goto	u1491
  2789  0F56  2F58               	goto	u1490
  2790  0F57                     u1491:
  2791  0F57  2F5C               	goto	l2188
  2792  0F58                     u1490:
  2793  0F58                     l2186:
  2794                           
  2795                           ;I2C_Prog.c: 88:     {;I2C_Prog.c: 89:         ((*((volatile u8*)0x91))) |= (1 << (5));
  2796  0F58  1683               	bsf	3,5	;RP0=1, select bank1
  2797  0F59  1303               	bcf	3,6	;RP1=0, select bank1
  2798  0F5A  1691               	bsf	17,5	;volatile
  2799                           
  2800                           ;I2C_Prog.c: 90:     }
  2801  0F5B  2F62               	goto	l2190
  2802  0F5C                     l2188:
  2803                           
  2804                           ;I2C_Prog.c: 92:     {;I2C_Prog.c: 93:         ((*((volatile u8*)0x91))) &= ~(1 << (5));
  2805  0F5C  30DF               	movlw	223
  2806  0F5D  00FF               	movwf	btemp+1
  2807  0F5E  087F               	movf	btemp+1,w
  2808  0F5F  1683               	bsf	3,5	;RP0=1, select bank1
  2809  0F60  1303               	bcf	3,6	;RP1=0, select bank1
  2810  0F61  0591               	andwf	17,f	;volatile
  2811  0F62                     l2190:
  2812                           
  2813                           ;I2C_Prog.c: 97:     ((*((volatile u8*)0x91))) |= (1 << (4)) ;
  2814  0F62  1611               	bsf	17,4	;volatile
  2815  0F63                     l2192:
  2816                           
  2817                           ;I2C_Prog.c: 99:     return u8_DataRead ;
  2818  0F63  1283               	bcf	3,5	;RP0=0, select bank0
  2819  0F64  1303               	bcf	3,6	;RP1=0, select bank0
  2820  0F65  083F               	movf	I2C_Read@u8_DataRead,w
  2821  0F66                     l291:
  2822  0F66  0008               	return
  2823  0F67                     __end_of_I2C_Read:
  2824                           
  2825                           	psect	text17
  2826  0651                     __ptext17:	
  2827 ;; *************** function _SetTemp_Mode *****************
  2828 ;; Defined at:
  2829 ;;		line 129 in file "APP_Program.c"
  2830 ;; Parameters:    Size  Location     Type
  2831 ;;		None
  2832 ;; Auto vars:     Size  Location     Type
  2833 ;;  count           1   22[BANK0 ] unsigned char 
  2834 ;;  stability       1   21[BANK0 ] unsigned char 
  2835 ;; Return value:  Size  Location     Type
  2836 ;;                  1    wreg      void 
  2837 ;; Registers used:
  2838 ;;		wreg, fsr0l, fsr0h, status,2, status,0, btemp+1, pclath, cstack
  2839 ;; Tracked objects:
  2840 ;;		On entry : 0/0
  2841 ;;		On exit  : 0/0
  2842 ;;		Unchanged: 0/0
  2843 ;; Data sizes:     COMMON   BANK0   BANK1   BANK3   BANK2
  2844 ;;      Params:         0       0       0       0       0
  2845 ;;      Locals:         0       2       0       0       0
  2846 ;;      Temps:          0       3       0       0       0
  2847 ;;      Totals:         0       5       0       0       0
  2848 ;;Total ram usage:        5 bytes
  2849 ;; Hardware stack levels used:    1
  2850 ;; Hardware stack levels required when called:    9
  2851 ;; This function calls:
  2852 ;;		_EEPROM_WriteToEEPROM
  2853 ;;		_vid_7_Segment_DeInit
  2854 ;;		_vid_7_Segment_Display_2Digits
  2855 ;; This function is called by:
  2856 ;;		_main
  2857 ;; This function uses a non-reentrant model
  2858 ;;
  2859                           
  2860                           
  2861                           ;psect for function _SetTemp_Mode
  2862  0651                     _SetTemp_Mode:
  2863  0651                     l2494:	
  2864                           ;incstack = 0
  2865 ;; hardware stack exceeded
  2866                           ; Regs used in _SetTemp_Mode: [wreg-fsr0h+status,2+status,0+btemp+1+pclath+cstack]
  2867                           
  2868                           
  2869                           ;APP_Program.c: 132:     u8 stability = 0 ;
  2870  0651  1283               	bcf	3,5	;RP0=0, select bank0
  2871  0652  1303               	bcf	3,6	;RP1=0, select bank0
  2872  0653  01CE               	clrf	SetTemp_Mode@stability
  2873  0654                     l2496:
  2874                           
  2875                           ;APP_Program.c: 135:      if (Set_Temp_Flag == 1)
  2876  0654  0335               	decf	_Set_Temp_Flag,w
  2877  0655  1D03               	btfss	3,2
  2878  0656  2E58               	goto	u1931
  2879  0657  2E59               	goto	u1930
  2880  0658                     u1931:
  2881  0658  2E9A               	goto	l85
  2882  0659                     u1930:
  2883  0659                     l2498:
  2884                           
  2885                           ;APP_Program.c: 136:      {;APP_Program.c: 138:         for (count=0;count<5;count++)
  2886  0659  01CF               	clrf	SetTemp_Mode@count
  2887  065A                     l2504:
  2888                           
  2889                           ;APP_Program.c: 139:         {;APP_Program.c: 140:             for (stability = 0 ;stabi
      +                          lity <250 ; stability ++ )
  2890  065A  01CE               	clrf	SetTemp_Mode@stability
  2891  065B                     l2510:
  2892                           
  2893                           ;APP_Program.c: 141:             { vid_7_Segment_Display_2Digits(u8_Temp_Set) ;}
  2894  065B  0838               	movf	_u8_Temp_Set,w
  2895  065C  120A  118A  2490  120A  118A  	fcall	_vid_7_Segment_Display_2Digits
  2896  0661                     l2512:
  2897  0661  3001               	movlw	1
  2898  0662  00FF               	movwf	btemp+1
  2899  0663  087F               	movf	btemp+1,w
  2900  0664  1283               	bcf	3,5	;RP0=0, select bank0
  2901  0665  1303               	bcf	3,6	;RP1=0, select bank0
  2902  0666  07CE               	addwf	SetTemp_Mode@stability,f
  2903  0667                     l2514:
  2904  0667  30FA               	movlw	250
  2905  0668  024E               	subwf	SetTemp_Mode@stability,w
  2906  0669  1C03               	skipc
  2907  066A  2E6C               	goto	u1941
  2908  066B  2E6D               	goto	u1940
  2909  066C                     u1941:
  2910  066C  2E5B               	goto	l2510
  2911  066D                     u1940:
  2912  066D                     l2516:
  2913                           
  2914                           ;APP_Program.c: 143:             vid_7_Segment_DeInit() ;
  2915  066D  120A  158A  2539  120A  118A  	fcall	_vid_7_Segment_DeInit
  2916  0672                     l2518:
  2917                           
  2918                           ;APP_Program.c: 144:             _delay((unsigned long)((500)*(8000000/4000.0))) ;
  2919  0672  3006               	movlw	6
  2920  0673  1283               	bcf	3,5	;RP0=0, select bank0
  2921  0674  1303               	bcf	3,6	;RP1=0, select bank0
  2922  0675  00CD               	movwf	??_SetTemp_Mode+2
  2923  0676  3013               	movlw	19
  2924  0677  00CC               	movwf	??_SetTemp_Mode+1
  2925  0678  30AD               	movlw	173
  2926  0679  00CB               	movwf	??_SetTemp_Mode
  2927  067A                     u2447:
  2928  067A  0BCB               	decfsz	??_SetTemp_Mode,f
  2929  067B  2E7A               	goto	u2447
  2930  067C  0BCC               	decfsz	??_SetTemp_Mode+1,f
  2931  067D  2E7A               	goto	u2447
  2932  067E  0BCD               	decfsz	??_SetTemp_Mode+2,f
  2933  067F  2E7A               	goto	u2447
  2934  0680                     l2520:
  2935                           
  2936                           ;APP_Program.c: 146:             if (TempChange_Status == 1)
  2937  0680  1283               	bcf	3,5	;RP0=0, select bank0
  2938  0681  1303               	bcf	3,6	;RP1=0, select bank0
  2939  0682  0334               	decf	_TempChange_Status,w
  2940  0683  1D03               	btfss	3,2
  2941  0684  2E86               	goto	u1951
  2942  0685  2E87               	goto	u1950
  2943  0686                     u1951:
  2944  0686  2E89               	goto	l2524
  2945  0687                     u1950:
  2946  0687                     l2522:
  2947                           
  2948                           ;APP_Program.c: 147:             {;APP_Program.c: 148:                 count = 0 ;
  2949  0687  01CF               	clrf	SetTemp_Mode@count
  2950                           
  2951                           ;APP_Program.c: 149:                 TempChange_Status = 0 ;
  2952  0688  01B4               	clrf	_TempChange_Status
  2953  0689                     l2524:
  2954                           
  2955                           ;APP_Program.c: 151:         }
  2956  0689  3001               	movlw	1
  2957  068A  00FF               	movwf	btemp+1
  2958  068B  087F               	movf	btemp+1,w
  2959  068C  07CF               	addwf	SetTemp_Mode@count,f
  2960  068D                     l2526:
  2961  068D  3005               	movlw	5
  2962  068E  024F               	subwf	SetTemp_Mode@count,w
  2963  068F  1C03               	skipc
  2964  0690  2E92               	goto	u1961
  2965  0691  2E93               	goto	u1960
  2966  0692                     u1961:
  2967  0692  2E5A               	goto	l2504
  2968  0693                     u1960:
  2969  0693                     l2528:
  2970                           
  2971                           ;APP_Program.c: 152:         Set_Temp_Flag = 0 ;
  2972  0693  01B5               	clrf	_Set_Temp_Flag
  2973  0694                     l2530:
  2974                           
  2975                           ;APP_Program.c: 154:         EEPROM_WriteToEEPROM(u8_Temp_Set) ;
  2976  0694  0838               	movf	_u8_Temp_Set,w
  2977  0695  120A  158A  25A9  120A  118A  	fcall	_EEPROM_WriteToEEPROM
  2978  069A                     l85:	
  2979                           ;APP_Program.c: 155:     }
  2980                           
  2981  069A  0008               	return
  2982  069B                     __end_of_SetTemp_Mode:
  2983                           
  2984                           	psect	text18
  2985  0DA9                     __ptext18:	
  2986 ;; *************** function _EEPROM_WriteToEEPROM *****************
  2987 ;; Defined at:
  2988 ;;		line 26 in file "EEPROM_Prog.c"
  2989 ;; Parameters:    Size  Location     Type
  2990 ;;  u8_Data         1    wreg     unsigned char 
  2991 ;; Auto vars:     Size  Location     Type
  2992 ;;  u8_Data         1    6[BANK0 ] unsigned char 
  2993 ;; Return value:  Size  Location     Type
  2994 ;;                  1    wreg      void 
  2995 ;; Registers used:
  2996 ;;		wreg, status,2, status,0, btemp+1, pclath, cstack
  2997 ;; Tracked objects:
  2998 ;;		On entry : 0/0
  2999 ;;		On exit  : 0/0
  3000 ;;		Unchanged: 0/0
  3001 ;; Data sizes:     COMMON   BANK0   BANK1   BANK3   BANK2
  3002 ;;      Params:         0       0       0       0       0
  3003 ;;      Locals:         0       1       0       0       0
  3004 ;;      Temps:          0       0       0       0       0
  3005 ;;      Totals:         0       1       0       0       0
  3006 ;;Total ram usage:        1 bytes
  3007 ;; Hardware stack levels used:    1
  3008 ;; Hardware stack levels required when called:    8
  3009 ;; This function calls:
  3010 ;;		_I2CBegin
  3011 ;;		_I2C_End
  3012 ;;		_I2C_Write
  3013 ;; This function is called by:
  3014 ;;		_SystemVars_Init
  3015 ;;		_SetTemp_Mode
  3016 ;; This function uses a non-reentrant model
  3017 ;;
  3018                           
  3019                           
  3020                           ;psect for function _EEPROM_WriteToEEPROM
  3021  0DA9                     _EEPROM_WriteToEEPROM:
  3022                           
  3023                           ;incstack = 0
  3024 ;; hardware stack exceeded
  3025                           ; Regs used in _EEPROM_WriteToEEPROM: [wreg+status,2+status,0+btemp+1+pclath+cstack]
  3026                           ;EEPROM_WriteToEEPROM@u8_Data stored from wreg
  3027  0DA9  1283               	bcf	3,5	;RP0=0, select bank0
  3028  0DAA  1303               	bcf	3,6	;RP1=0, select bank0
  3029  0DAB  00BF               	movwf	EEPROM_WriteToEEPROM@u8_Data
  3030  0DAC                     l2316:
  3031                           
  3032                           ;EEPROM_Prog.c: 26: void EEPROM_WriteToEEPROM (u8 u8_Data);EEPROM_Prog.c: 27: {;EEPROM_P
      +                          rog.c: 28:     I2CBegin() ;
  3033  0DAC  120A  158A  2435  120A  158A  	fcall	_I2CBegin
  3034  0DB1                     l2318:
  3035                           
  3036                           ;EEPROM_Prog.c: 30:     I2C_Write(0xA0) ;
  3037  0DB1  30A0               	movlw	160
  3038  0DB2  120A  158A  24B8  120A  158A  	fcall	_I2C_Write
  3039  0DB7                     l2320:
  3040                           
  3041                           ;EEPROM_Prog.c: 31:     I2C_Write(0x00);
  3042  0DB7  3000               	movlw	0
  3043  0DB8  120A  158A  24B8  120A  158A  	fcall	_I2C_Write
  3044  0DBD                     l2322:
  3045                           
  3046                           ;EEPROM_Prog.c: 32:     I2C_Write(u8_Data);
  3047  0DBD  1283               	bcf	3,5	;RP0=0, select bank0
  3048  0DBE  1303               	bcf	3,6	;RP1=0, select bank0
  3049  0DBF  083F               	movf	EEPROM_WriteToEEPROM@u8_Data,w
  3050  0DC0  120A  158A  24B8  120A  158A  	fcall	_I2C_Write
  3051  0DC5                     l2324:
  3052                           
  3053                           ;EEPROM_Prog.c: 33:     I2C_End() ;
  3054  0DC5  120A  158A  243E  120A  158A  	fcall	_I2C_End
  3055  0DCA                     l260:
  3056  0DCA  0008               	return
  3057  0DCB                     __end_of_EEPROM_WriteToEEPROM:
  3058                           
  3059                           	psect	text19
  3060  0CB8                     __ptext19:	
  3061 ;; *************** function _I2C_Write *****************
  3062 ;; Defined at:
  3063 ;;		line 67 in file "I2C_Prog.c"
  3064 ;; Parameters:    Size  Location     Type
  3065 ;;  u8_Data         1    wreg     unsigned char 
  3066 ;; Auto vars:     Size  Location     Type
  3067 ;;  u8_Data         1    5[BANK0 ] unsigned char 
  3068 ;; Return value:  Size  Location     Type
  3069 ;;                  1    wreg      void 
  3070 ;; Registers used:
  3071 ;;		wreg, status,2, status,0, btemp+1, pclath, cstack
  3072 ;; Tracked objects:
  3073 ;;		On entry : 0/0
  3074 ;;		On exit  : 0/0
  3075 ;;		Unchanged: 0/0
  3076 ;; Data sizes:     COMMON   BANK0   BANK1   BANK3   BANK2
  3077 ;;      Params:         0       0       0       0       0
  3078 ;;      Locals:         0       1       0       0       0
  3079 ;;      Temps:          0       0       0       0       0
  3080 ;;      Totals:         0       1       0       0       0
  3081 ;;Total ram usage:        1 bytes
  3082 ;; Hardware stack levels used:    1
  3083 ;; Hardware stack levels required when called:    7
  3084 ;; This function calls:
  3085 ;;		_I2C_Hold
  3086 ;; This function is called by:
  3087 ;;		_EEPROM_WriteToEEPROM
  3088 ;;		_EEPROM_ReadFromEEPROM
  3089 ;; This function uses a non-reentrant model
  3090 ;;
  3091                           
  3092                           
  3093                           ;psect for function _I2C_Write
  3094  0CB8                     _I2C_Write:
  3095                           
  3096                           ;incstack = 0
  3097 ;; hardware stack exceeded
  3098                           ; Regs used in _I2C_Write: [wreg+status,2+status,0+btemp+1+pclath+cstack]
  3099                           ;I2C_Write@u8_Data stored from wreg
  3100  0CB8  1283               	bcf	3,5	;RP0=0, select bank0
  3101  0CB9  1303               	bcf	3,6	;RP1=0, select bank0
  3102  0CBA  00BE               	movwf	I2C_Write@u8_Data
  3103  0CBB                     l2164:
  3104                           
  3105                           ;I2C_Prog.c: 67: void I2C_Write (u8 u8_Data );I2C_Prog.c: 68: {;I2C_Prog.c: 69:     I2C_
      +                          Hold();
  3106  0CBB  120A  158A  2482  120A  158A  	fcall	_I2C_Hold
  3107  0CC0                     l2166:
  3108                           
  3109                           ;I2C_Prog.c: 70:     (*((volatile u8*)0x13)) = u8_Data ;
  3110  0CC0  1283               	bcf	3,5	;RP0=0, select bank0
  3111  0CC1  1303               	bcf	3,6	;RP1=0, select bank0
  3112  0CC2  083E               	movf	I2C_Write@u8_Data,w
  3113  0CC3  00FF               	movwf	btemp+1
  3114  0CC4  087F               	movf	btemp+1,w
  3115  0CC5  0093               	movwf	19	;volatile
  3116  0CC6                     l286:
  3117  0CC6  0008               	return
  3118  0CC7                     __end_of_I2C_Write:
  3119                           
  3120                           	psect	text20
  3121  0C3E                     __ptext20:	
  3122 ;; *************** function _I2C_End *****************
  3123 ;; Defined at:
  3124 ;;		line 57 in file "I2C_Prog.c"
  3125 ;; Parameters:    Size  Location     Type
  3126 ;;		None
  3127 ;; Auto vars:     Size  Location     Type
  3128 ;;		None
  3129 ;; Return value:  Size  Location     Type
  3130 ;;                  1    wreg      void 
  3131 ;; Registers used:
  3132 ;;		wreg, status,2, status,0, pclath, cstack
  3133 ;; Tracked objects:
  3134 ;;		On entry : 0/0
  3135 ;;		On exit  : 0/0
  3136 ;;		Unchanged: 0/0
  3137 ;; Data sizes:     COMMON   BANK0   BANK1   BANK3   BANK2
  3138 ;;      Params:         0       0       0       0       0
  3139 ;;      Locals:         0       0       0       0       0
  3140 ;;      Temps:          0       0       0       0       0
  3141 ;;      Totals:         0       0       0       0       0
  3142 ;;Total ram usage:        0 bytes
  3143 ;; Hardware stack levels used:    1
  3144 ;; Hardware stack levels required when called:    7
  3145 ;; This function calls:
  3146 ;;		_I2C_Hold
  3147 ;; This function is called by:
  3148 ;;		_EEPROM_WriteToEEPROM
  3149 ;;		_EEPROM_ReadFromEEPROM
  3150 ;; This function uses a non-reentrant model
  3151 ;;
  3152                           
  3153                           
  3154                           ;psect for function _I2C_End
  3155  0C3E                     _I2C_End:
  3156  0C3E                     l2168:	
  3157                           ;incstack = 0
  3158 ;; hardware stack exceeded
  3159                           ; Regs used in _I2C_End: [wreg+status,2+status,0+pclath+cstack]
  3160                           
  3161                           
  3162                           ;I2C_Prog.c: 59:    I2C_Hold() ;
  3163  0C3E  120A  158A  2482  120A  158A  	fcall	_I2C_Hold
  3164  0C43                     l2170:
  3165                           
  3166                           ;I2C_Prog.c: 60:    ((*((volatile u8*)0x91))) |= (1 << (2)) ;
  3167  0C43  1683               	bsf	3,5	;RP0=1, select bank1
  3168  0C44  1303               	bcf	3,6	;RP1=0, select bank1
  3169  0C45  1511               	bsf	17,2	;volatile
  3170  0C46                     l283:
  3171  0C46  0008               	return
  3172  0C47                     __end_of_I2C_End:
  3173                           
  3174                           	psect	text21
  3175  0C35                     __ptext21:	
  3176 ;; *************** function _I2CBegin *****************
  3177 ;; Defined at:
  3178 ;;		line 42 in file "I2C_Prog.c"
  3179 ;; Parameters:    Size  Location     Type
  3180 ;;		None
  3181 ;; Auto vars:     Size  Location     Type
  3182 ;;		None
  3183 ;; Return value:  Size  Location     Type
  3184 ;;                  1    wreg      void 
  3185 ;; Registers used:
  3186 ;;		wreg, status,2, status,0, pclath, cstack
  3187 ;; Tracked objects:
  3188 ;;		On entry : 0/0
  3189 ;;		On exit  : 0/0
  3190 ;;		Unchanged: 0/0
  3191 ;; Data sizes:     COMMON   BANK0   BANK1   BANK3   BANK2
  3192 ;;      Params:         0       0       0       0       0
  3193 ;;      Locals:         0       0       0       0       0
  3194 ;;      Temps:          0       0       0       0       0
  3195 ;;      Totals:         0       0       0       0       0
  3196 ;;Total ram usage:        0 bytes
  3197 ;; Hardware stack levels used:    1
  3198 ;; Hardware stack levels required when called:    7
  3199 ;; This function calls:
  3200 ;;		_I2C_Hold
  3201 ;; This function is called by:
  3202 ;;		_EEPROM_WriteToEEPROM
  3203 ;;		_EEPROM_ReadFromEEPROM
  3204 ;; This function uses a non-reentrant model
  3205 ;;
  3206                           
  3207                           
  3208                           ;psect for function _I2CBegin
  3209  0C35                     _I2CBegin:
  3210  0C35                     l2160:	
  3211                           ;incstack = 0
  3212 ;; hardware stack exceeded
  3213                           ; Regs used in _I2CBegin: [wreg+status,2+status,0+pclath+cstack]
  3214                           
  3215                           
  3216                           ;I2C_Prog.c: 44:      I2C_Hold() ;
  3217  0C35  120A  158A  2482  120A  158A  	fcall	_I2C_Hold
  3218  0C3A                     l2162:
  3219                           
  3220                           ;I2C_Prog.c: 45:     ((*((volatile u8*)0x91))) |= (1 << (0)) ;
  3221  0C3A  1683               	bsf	3,5	;RP0=1, select bank1
  3222  0C3B  1303               	bcf	3,6	;RP1=0, select bank1
  3223  0C3C  1411               	bsf	17,0	;volatile
  3224  0C3D                     l277:
  3225  0C3D  0008               	return
  3226  0C3E                     __end_of_I2CBegin:
  3227                           
  3228                           	psect	text22
  3229  0C82                     __ptext22:	
  3230 ;; *************** function _I2C_Hold *****************
  3231 ;; Defined at:
  3232 ;;		line 34 in file "I2C_Prog.c"
  3233 ;; Parameters:    Size  Location     Type
  3234 ;;		None
  3235 ;; Auto vars:     Size  Location     Type
  3236 ;;		None
  3237 ;; Return value:  Size  Location     Type
  3238 ;;                  1    wreg      void 
  3239 ;; Registers used:
  3240 ;;		wreg, status,2
  3241 ;; Tracked objects:
  3242 ;;		On entry : 0/0
  3243 ;;		On exit  : 0/0
  3244 ;;		Unchanged: 0/0
  3245 ;; Data sizes:     COMMON   BANK0   BANK1   BANK3   BANK2
  3246 ;;      Params:         0       0       0       0       0
  3247 ;;      Locals:         0       0       0       0       0
  3248 ;;      Temps:          0       0       0       0       0
  3249 ;;      Totals:         0       0       0       0       0
  3250 ;;Total ram usage:        0 bytes
  3251 ;; Hardware stack levels used:    1
  3252 ;; Hardware stack levels required when called:    6
  3253 ;; This function calls:
  3254 ;;		Nothing
  3255 ;; This function is called by:
  3256 ;;		_I2CBegin
  3257 ;;		_I2C_RepeatedStart
  3258 ;;		_I2C_End
  3259 ;;		_I2C_Write
  3260 ;;		_I2C_Read
  3261 ;; This function uses a non-reentrant model
  3262 ;;
  3263                           
  3264                           
  3265                           ;psect for function _I2C_Hold
  3266  0C82                     _I2C_Hold:
  3267  0C82                     l2070:	
  3268                           ;incstack = 0
  3269 ;; hardware stack exceeded
  3270                           ; Regs used in _I2C_Hold: [wreg+status,2]
  3271                           
  3272  0C82                     l271:	
  3273                           ;I2C_Prog.c: 37:     while ( ((*((volatile u8*)0x94)) & 0x04) || ((*((volatile u8*)0x91)
      +                          ) & 0x1F)) ;
  3274                           
  3275  0C82  1683               	bsf	3,5	;RP0=1, select bank1
  3276  0C83  1303               	bcf	3,6	;RP1=0, select bank1
  3277  0C84  1914               	btfsc	20,2	;volatile
  3278  0C85  2C87               	goto	u1281
  3279  0C86  2C88               	goto	u1280
  3280  0C87                     u1281:
  3281  0C87  2C82               	goto	l271
  3282  0C88                     u1280:
  3283  0C88                     l2072:
  3284  0C88  0811               	movf	17,w	;volatile
  3285  0C89  391F               	andlw	31
  3286  0C8A  1D03               	btfss	3,2
  3287  0C8B  2C8D               	goto	u1291
  3288  0C8C  2C8E               	goto	u1290
  3289  0C8D                     u1291:
  3290  0C8D  2C82               	goto	l271
  3291  0C8E                     u1290:
  3292  0C8E                     l274:
  3293  0C8E  0008               	return
  3294  0C8F                     __end_of_I2C_Hold:
  3295                           
  3296                           	psect	text23
  3297  0CF8                     __ptext23:	
  3298 ;; *************** function _SetCallBacks *****************
  3299 ;; Defined at:
  3300 ;;		line 45 in file "APP_Program.c"
  3301 ;; Parameters:    Size  Location     Type
  3302 ;;		None
  3303 ;; Auto vars:     Size  Location     Type
  3304 ;;		None
  3305 ;; Return value:  Size  Location     Type
  3306 ;;                  1    wreg      void 
  3307 ;; Registers used:
  3308 ;;		wreg, status,2, status,0, btemp+1, pclath, cstack
  3309 ;; Tracked objects:
  3310 ;;		On entry : 0/0
  3311 ;;		On exit  : 0/0
  3312 ;;		Unchanged: 0/0
  3313 ;; Data sizes:     COMMON   BANK0   BANK1   BANK3   BANK2
  3314 ;;      Params:         0       0       0       0       0
  3315 ;;      Locals:         0       0       0       0       0
  3316 ;;      Temps:          0       0       0       0       0
  3317 ;;      Totals:         0       0       0       0       0
  3318 ;;Total ram usage:        0 bytes
  3319 ;; Hardware stack levels used:    1
  3320 ;; Hardware stack levels required when called:    7
  3321 ;; This function calls:
  3322 ;;		_RB0_SetCallBack
  3323 ;;		_RB4_SetCallBack
  3324 ;;		_RB5_SetCallBack
  3325 ;; This function is called by:
  3326 ;;		_main
  3327 ;; This function uses a non-reentrant model
  3328 ;;
  3329                           
  3330                           
  3331                           ;psect for function _SetCallBacks
  3332  0CF8                     _SetCallBacks:
  3333  0CF8                     l2464:	
  3334                           ;incstack = 0
  3335                           ; Regs used in _SetCallBacks: [wreg+status,2+status,0+btemp+1+pclath+cstack]
  3336                           
  3337                           
  3338                           ;APP_Program.c: 47:     RB0_SetCallBack (&RB0_Handler) ;
  3339  0CF8  3001               	movlw	(low (fp__RB0_Handler-i1fpbase))& (0+255)
  3340  0CF9  120A  158A  2415  120A  158A  	fcall	_RB0_SetCallBack
  3341                           
  3342                           ;APP_Program.c: 48:     RB4_SetCallBack (&RB4_Handler) ;
  3343  0CFE  3004               	movlw	(low (fp__RB4_Handler-i1fpbase))& (0+255)
  3344  0CFF  120A  158A  241D  120A  158A  	fcall	_RB4_SetCallBack
  3345                           
  3346                           ;APP_Program.c: 49:     RB5_SetCallBack (&RB5_Handler) ;
  3347  0D04  3007               	movlw	(low (fp__RB5_Handler-i1fpbase))& (0+255)
  3348  0D05  120A  158A  2425  120A  158A  	fcall	_RB5_SetCallBack
  3349  0D0A                     l57:
  3350  0D0A  0008               	return
  3351  0D0B                     __end_of_SetCallBacks:
  3352                           
  3353                           	psect	text24
  3354  0C25                     __ptext24:	
  3355 ;; *************** function _RB5_SetCallBack *****************
  3356 ;; Defined at:
  3357 ;;		line 49 in file "EXT_INT_Prog.c"
  3358 ;; Parameters:    Size  Location     Type
  3359 ;;  pFun            1    wreg     PTR FTN()void 
  3360 ;;		 -> RB5_Handler(1), 
  3361 ;; Auto vars:     Size  Location     Type
  3362 ;;  pFun            1    5[BANK0 ] PTR FTN()void 
  3363 ;;		 -> RB5_Handler(1), 
  3364 ;; Return value:  Size  Location     Type
  3365 ;;                  1    wreg      void 
  3366 ;; Registers used:
  3367 ;;		wreg, btemp+1
  3368 ;; Tracked objects:
  3369 ;;		On entry : 0/0
  3370 ;;		On exit  : 0/0
  3371 ;;		Unchanged: 0/0
  3372 ;; Data sizes:     COMMON   BANK0   BANK1   BANK3   BANK2
  3373 ;;      Params:         0       0       0       0       0
  3374 ;;      Locals:         0       1       0       0       0
  3375 ;;      Temps:          0       0       0       0       0
  3376 ;;      Totals:         0       1       0       0       0
  3377 ;;Total ram usage:        1 bytes
  3378 ;; Hardware stack levels used:    1
  3379 ;; Hardware stack levels required when called:    6
  3380 ;; This function calls:
  3381 ;;		Nothing
  3382 ;; This function is called by:
  3383 ;;		_SetCallBacks
  3384 ;; This function uses a non-reentrant model
  3385 ;;
  3386                           
  3387                           
  3388                           ;psect for function _RB5_SetCallBack
  3389  0C25                     _RB5_SetCallBack:
  3390                           
  3391                           ;incstack = 0
  3392                           ; Regs used in _RB5_SetCallBack: [wreg+btemp+1]
  3393                           ;RB5_SetCallBack@pFun stored from wreg
  3394  0C25  1283               	bcf	3,5	;RP0=0, select bank0
  3395  0C26  1303               	bcf	3,6	;RP1=0, select bank0
  3396  0C27  00BE               	movwf	RB5_SetCallBack@pFun
  3397  0C28                     l2300:
  3398                           
  3399                           ;EXT_INT_Prog.c: 49: void RB5_SetCallBack (void (*pFun) (void));EXT_INT_Prog.c: 50: {;EX
      +                          T_INT_Prog.c: 51:     GptrToFun_RB5 = pFun ;
  3400  0C28  083E               	movf	RB5_SetCallBack@pFun,w
  3401  0C29  00FF               	movwf	btemp+1
  3402  0C2A  087F               	movf	btemp+1,w
  3403  0C2B  00AF               	movwf	_GptrToFun_RB5
  3404  0C2C                     l231:
  3405  0C2C  0008               	return
  3406  0C2D                     __end_of_RB5_SetCallBack:
  3407                           
  3408                           	psect	text25
  3409  0C1D                     __ptext25:	
  3410 ;; *************** function _RB4_SetCallBack *****************
  3411 ;; Defined at:
  3412 ;;		line 43 in file "EXT_INT_Prog.c"
  3413 ;; Parameters:    Size  Location     Type
  3414 ;;  pFun            1    wreg     PTR FTN()void 
  3415 ;;		 -> RB4_Handler(1), 
  3416 ;; Auto vars:     Size  Location     Type
  3417 ;;  pFun            1    5[BANK0 ] PTR FTN()void 
  3418 ;;		 -> RB4_Handler(1), 
  3419 ;; Return value:  Size  Location     Type
  3420 ;;                  1    wreg      void 
  3421 ;; Registers used:
  3422 ;;		wreg, btemp+1
  3423 ;; Tracked objects:
  3424 ;;		On entry : 0/0
  3425 ;;		On exit  : 0/0
  3426 ;;		Unchanged: 0/0
  3427 ;; Data sizes:     COMMON   BANK0   BANK1   BANK3   BANK2
  3428 ;;      Params:         0       0       0       0       0
  3429 ;;      Locals:         0       1       0       0       0
  3430 ;;      Temps:          0       0       0       0       0
  3431 ;;      Totals:         0       1       0       0       0
  3432 ;;Total ram usage:        1 bytes
  3433 ;; Hardware stack levels used:    1
  3434 ;; Hardware stack levels required when called:    6
  3435 ;; This function calls:
  3436 ;;		Nothing
  3437 ;; This function is called by:
  3438 ;;		_SetCallBacks
  3439 ;; This function uses a non-reentrant model
  3440 ;;
  3441                           
  3442                           
  3443                           ;psect for function _RB4_SetCallBack
  3444  0C1D                     _RB4_SetCallBack:
  3445                           
  3446                           ;incstack = 0
  3447                           ; Regs used in _RB4_SetCallBack: [wreg+btemp+1]
  3448                           ;RB4_SetCallBack@pFun stored from wreg
  3449  0C1D  1283               	bcf	3,5	;RP0=0, select bank0
  3450  0C1E  1303               	bcf	3,6	;RP1=0, select bank0
  3451  0C1F  00BE               	movwf	RB4_SetCallBack@pFun
  3452  0C20                     l2298:
  3453                           
  3454                           ;EXT_INT_Prog.c: 43: void RB4_SetCallBack (void (*pFun) (void));EXT_INT_Prog.c: 44: {;EX
      +                          T_INT_Prog.c: 45:     GptrToFun_RB4 = pFun ;
  3455  0C20  083E               	movf	RB4_SetCallBack@pFun,w
  3456  0C21  00FF               	movwf	btemp+1
  3457  0C22  087F               	movf	btemp+1,w
  3458  0C23  00B0               	movwf	_GptrToFun_RB4
  3459  0C24                     l228:
  3460  0C24  0008               	return
  3461  0C25                     __end_of_RB4_SetCallBack:
  3462                           
  3463                           	psect	text26
  3464  0C15                     __ptext26:	
  3465 ;; *************** function _RB0_SetCallBack *****************
  3466 ;; Defined at:
  3467 ;;		line 37 in file "EXT_INT_Prog.c"
  3468 ;; Parameters:    Size  Location     Type
  3469 ;;  pFun            1    wreg     PTR FTN()void 
  3470 ;;		 -> RB0_Handler(1), 
  3471 ;; Auto vars:     Size  Location     Type
  3472 ;;  pFun            1    5[BANK0 ] PTR FTN()void 
  3473 ;;		 -> RB0_Handler(1), 
  3474 ;; Return value:  Size  Location     Type
  3475 ;;                  1    wreg      void 
  3476 ;; Registers used:
  3477 ;;		wreg, btemp+1
  3478 ;; Tracked objects:
  3479 ;;		On entry : 0/0
  3480 ;;		On exit  : 0/0
  3481 ;;		Unchanged: 0/0
  3482 ;; Data sizes:     COMMON   BANK0   BANK1   BANK3   BANK2
  3483 ;;      Params:         0       0       0       0       0
  3484 ;;      Locals:         0       1       0       0       0
  3485 ;;      Temps:          0       0       0       0       0
  3486 ;;      Totals:         0       1       0       0       0
  3487 ;;Total ram usage:        1 bytes
  3488 ;; Hardware stack levels used:    1
  3489 ;; Hardware stack levels required when called:    6
  3490 ;; This function calls:
  3491 ;;		Nothing
  3492 ;; This function is called by:
  3493 ;;		_SetCallBacks
  3494 ;; This function uses a non-reentrant model
  3495 ;;
  3496                           
  3497                           
  3498                           ;psect for function _RB0_SetCallBack
  3499  0C15                     _RB0_SetCallBack:
  3500                           
  3501                           ;incstack = 0
  3502                           ; Regs used in _RB0_SetCallBack: [wreg+btemp+1]
  3503                           ;RB0_SetCallBack@pFun stored from wreg
  3504  0C15  1283               	bcf	3,5	;RP0=0, select bank0
  3505  0C16  1303               	bcf	3,6	;RP1=0, select bank0
  3506  0C17  00BE               	movwf	RB0_SetCallBack@pFun
  3507  0C18                     l2296:
  3508                           
  3509                           ;EXT_INT_Prog.c: 37: void RB0_SetCallBack (void (*pFun) (void));EXT_INT_Prog.c: 38: {;EX
      +                          T_INT_Prog.c: 39:     GptrToFun_RB0 = pFun ;
  3510  0C18  083E               	movf	RB0_SetCallBack@pFun,w
  3511  0C19  00FF               	movwf	btemp+1
  3512  0C1A  087F               	movf	btemp+1,w
  3513  0C1B  00B1               	movwf	_GptrToFun_RB0
  3514  0C1C                     l225:
  3515  0C1C  0008               	return
  3516  0C1D                     __end_of_RB0_SetCallBack:
  3517                           
  3518                           	psect	text27
  3519  0C5C                     __ptext27:	
  3520 ;; *************** function _ON_Mode *****************
  3521 ;; Defined at:
  3522 ;;		line 108 in file "APP_Program.c"
  3523 ;; Parameters:    Size  Location     Type
  3524 ;;		None
  3525 ;; Auto vars:     Size  Location     Type
  3526 ;;		None
  3527 ;; Return value:  Size  Location     Type
  3528 ;;                  1    wreg      void 
  3529 ;; Registers used:
  3530 ;;		wreg, fsr0l, fsr0h, status,2, status,0, btemp+1, pclath, cstack
  3531 ;; Tracked objects:
  3532 ;;		On entry : 0/0
  3533 ;;		On exit  : 0/0
  3534 ;;		Unchanged: 0/0
  3535 ;; Data sizes:     COMMON   BANK0   BANK1   BANK3   BANK2
  3536 ;;      Params:         0       0       0       0       0
  3537 ;;      Locals:         0       0       0       0       0
  3538 ;;      Temps:          0       0       0       0       0
  3539 ;;      Totals:         0       0       0       0       0
  3540 ;;Total ram usage:        0 bytes
  3541 ;; Hardware stack levels used:    1
  3542 ;; Hardware stack levels required when called:    9
  3543 ;; This function calls:
  3544 ;;		_vid_7_Segment_Display_2Digits
  3545 ;; This function is called by:
  3546 ;;		_main
  3547 ;;		_System_Power
  3548 ;; This function uses a non-reentrant model
  3549 ;;
  3550                           
  3551                           
  3552                           ;psect for function _ON_Mode
  3553  0C5C                     _ON_Mode:
  3554  0C5C                     l2482:	
  3555                           ;incstack = 0
  3556 ;; hardware stack exceeded
  3557                           ; Regs used in _ON_Mode: [wreg-fsr0h+status,2+status,0+btemp+1+pclath+cstack]
  3558                           
  3559                           
  3560                           ;APP_Program.c: 110:     ON_OFF_Status = 1 ;
  3561  0C5C  1283               	bcf	3,5	;RP0=0, select bank0
  3562  0C5D  1303               	bcf	3,6	;RP1=0, select bank0
  3563  0C5E  01B7               	clrf	_ON_OFF_Status
  3564  0C5F  0AB7               	incf	_ON_OFF_Status,f
  3565  0C60                     l2484:
  3566                           
  3567                           ;APP_Program.c: 112:     vid_7_Segment_Display_2Digits(u8_Water_Temp) ;
  3568  0C60  0833               	movf	_u8_Water_Temp,w
  3569  0C61  120A  118A  2490  120A  158A  	fcall	_vid_7_Segment_Display_2Digits
  3570  0C66                     l2486:
  3571                           
  3572                           ;APP_Program.c: 113:    ((*((volatile u8*)0x0B))) |= (1 << (3)) ;
  3573  0C66  158B               	bsf	11,3	;volatile
  3574  0C67                     l72:
  3575  0C67  0008               	return
  3576  0C68                     __end_of_ON_Mode:
  3577                           
  3578                           	psect	text28
  3579  0490                     __ptext28:	
  3580 ;; *************** function _vid_7_Segment_Display_2Digits *****************
  3581 ;; Defined at:
  3582 ;;		line 75 in file "7_Segment_prog.c"
  3583 ;; Parameters:    Size  Location     Type
  3584 ;;  u8_Num          1    wreg     unsigned char 
  3585 ;; Auto vars:     Size  Location     Type
  3586 ;;  u8_Num          1   17[BANK0 ] unsigned char 
  3587 ;;  Tens            1   16[BANK0 ] unsigned char 
  3588 ;;  Ones            1   15[BANK0 ] unsigned char 
  3589 ;;  Stability       1    0        unsigned char 
  3590 ;; Return value:  Size  Location     Type
  3591 ;;                  1    wreg      void 
  3592 ;; Registers used:
  3593 ;;		wreg, fsr0l, fsr0h, status,2, status,0, btemp+1, pclath, cstack
  3594 ;; Tracked objects:
  3595 ;;		On entry : 0/0
  3596 ;;		On exit  : 0/0
  3597 ;;		Unchanged: 0/0
  3598 ;; Data sizes:     COMMON   BANK0   BANK1   BANK3   BANK2
  3599 ;;      Params:         0       0       0       0       0
  3600 ;;      Locals:         0       3       0       0       0
  3601 ;;      Temps:          0       2       0       0       0
  3602 ;;      Totals:         0       5       0       0       0
  3603 ;;Total ram usage:        5 bytes
  3604 ;; Hardware stack levels used:    1
  3605 ;; Hardware stack levels required when called:    8
  3606 ;; This function calls:
  3607 ;;		_DIO_SetPinValue
  3608 ;;		___awdiv
  3609 ;;		___awmod
  3610 ;;		_vid_Left_7_Segment_DisplayNumber
  3611 ;;		_vid_Right_7_Segment_DisplayNumber
  3612 ;; This function is called by:
  3613 ;;		_ON_Mode
  3614 ;;		_SetTemp_Mode
  3615 ;; This function uses a non-reentrant model
  3616 ;;
  3617                           
  3618                           
  3619                           ;psect for function _vid_7_Segment_Display_2Digits
  3620  0490                     _vid_7_Segment_Display_2Digits:
  3621                           
  3622                           ;incstack = 0
  3623 ;; hardware stack exceeded
  3624                           ; Regs used in _vid_7_Segment_Display_2Digits: [wreg-fsr0h+status,2+status,0+btemp+1+pcl
      +                          ath+cstack]
  3625                           ;vid_7_Segment_Display_2Digits@u8_Num stored from wreg
  3626  0490  1283               	bcf	3,5	;RP0=0, select bank0
  3627  0491  1303               	bcf	3,6	;RP1=0, select bank0
  3628  0492  00CA               	movwf	vid_7_Segment_Display_2Digits@u8_Num
  3629  0493                     l2326:
  3630  0493  300A               	movlw	10
  3631  0494  00BE               	movwf	___awmod@divisor
  3632  0495  3000               	movlw	0
  3633  0496  00BF               	movwf	___awmod@divisor+1
  3634  0497  084A               	movf	vid_7_Segment_Display_2Digits@u8_Num,w
  3635  0498  00C6               	movwf	??_vid_7_Segment_Display_2Digits
  3636  0499  01C7               	clrf	??_vid_7_Segment_Display_2Digits+1
  3637  049A  0846               	movf	??_vid_7_Segment_Display_2Digits,w
  3638  049B  00C0               	movwf	___awmod@dividend
  3639  049C  0847               	movf	??_vid_7_Segment_Display_2Digits+1,w
  3640  049D  00C1               	movwf	___awmod@dividend+1
  3641  049E  120A  118A  24EF  120A  118A  	fcall	___awmod
  3642  04A3  1283               	bcf	3,5	;RP0=0, select bank0
  3643  04A4  1303               	bcf	3,6	;RP1=0, select bank0
  3644  04A5  083E               	movf	?___awmod,w
  3645  04A6  00FF               	movwf	btemp+1
  3646  04A7  087F               	movf	btemp+1,w
  3647  04A8  00C8               	movwf	vid_7_Segment_Display_2Digits@Ones
  3648  04A9  300A               	movlw	10
  3649  04AA  00BE               	movwf	___awdiv@divisor
  3650  04AB  3000               	movlw	0
  3651  04AC  00BF               	movwf	___awdiv@divisor+1
  3652  04AD  084A               	movf	vid_7_Segment_Display_2Digits@u8_Num,w
  3653  04AE  00C6               	movwf	??_vid_7_Segment_Display_2Digits
  3654  04AF  01C7               	clrf	??_vid_7_Segment_Display_2Digits+1
  3655  04B0  0846               	movf	??_vid_7_Segment_Display_2Digits,w
  3656  04B1  00C0               	movwf	___awdiv@dividend
  3657  04B2  0847               	movf	??_vid_7_Segment_Display_2Digits+1,w
  3658  04B3  00C1               	movwf	___awdiv@dividend+1
  3659  04B4  120A  118A  23C0  120A  118A  	fcall	___awdiv
  3660  04B9  1283               	bcf	3,5	;RP0=0, select bank0
  3661  04BA  1303               	bcf	3,6	;RP1=0, select bank0
  3662  04BB  083E               	movf	?___awdiv,w
  3663  04BC  00FF               	movwf	btemp+1
  3664  04BD  087F               	movf	btemp+1,w
  3665  04BE  00C9               	movwf	vid_7_Segment_Display_2Digits@Tens
  3666  04BF                     l2328:
  3667  04BF  0848               	movf	vid_7_Segment_Display_2Digits@Ones,w
  3668  04C0  120A  158A  26D6  120A  118A  	fcall	_vid_Right_7_Segment_DisplayNumber
  3669  04C5                     l2330:
  3670  04C5  3003               	movlw	3
  3671  04C6  1283               	bcf	3,5	;RP0=0, select bank0
  3672  04C7  1303               	bcf	3,6	;RP1=0, select bank0
  3673  04C8  00C7               	movwf	??_vid_7_Segment_Display_2Digits+1
  3674  04C9  3097               	movlw	151
  3675  04CA  00C6               	movwf	??_vid_7_Segment_Display_2Digits
  3676  04CB                     u2457:
  3677  04CB  0BC6               	decfsz	??_vid_7_Segment_Display_2Digits,f
  3678  04CC  2CCB               	goto	u2457
  3679  04CD  0BC7               	decfsz	??_vid_7_Segment_Display_2Digits+1,f
  3680  04CE  2CCB               	goto	u2457
  3681  04CF                     l2332:
  3682  04CF  1283               	bcf	3,5	;RP0=0, select bank0
  3683  04D0  1303               	bcf	3,6	;RP1=0, select bank0
  3684  04D1  0849               	movf	vid_7_Segment_Display_2Digits@Tens,w
  3685  04D2  120A  158A  26A6  120A  118A  	fcall	_vid_Left_7_Segment_DisplayNumber
  3686  04D7                     l2334:
  3687  04D7  3003               	movlw	3
  3688  04D8  1283               	bcf	3,5	;RP0=0, select bank0
  3689  04D9  1303               	bcf	3,6	;RP1=0, select bank0
  3690  04DA  00C7               	movwf	??_vid_7_Segment_Display_2Digits+1
  3691  04DB  3097               	movlw	151
  3692  04DC  00C6               	movwf	??_vid_7_Segment_Display_2Digits
  3693  04DD                     u2467:
  3694  04DD  0BC6               	decfsz	??_vid_7_Segment_Display_2Digits,f
  3695  04DE  2CDD               	goto	u2467
  3696  04DF  0BC7               	decfsz	??_vid_7_Segment_Display_2Digits+1,f
  3697  04E0  2CDD               	goto	u2467
  3698  04E1                     l2336:
  3699  04E1  3004               	movlw	4
  3700  04E2  00FF               	movwf	btemp+1
  3701  04E3  087F               	movf	btemp+1,w
  3702  04E4  1283               	bcf	3,5	;RP0=0, select bank0
  3703  04E5  1303               	bcf	3,6	;RP1=0, select bank0
  3704  04E6  00BE               	movwf	DIO_SetPinValue@u8PinIdCopy
  3705  04E7  01BF               	clrf	DIO_SetPinValue@u8PinValCopy
  3706  04E8  3000               	movlw	0
  3707  04E9  120A  118A  2296  120A  118A  	fcall	_DIO_SetPinValue
  3708  04EE                     l388:
  3709  04EE  0008               	return
  3710  04EF                     __end_of_vid_7_Segment_Display_2Digits:
  3711                           
  3712                           	psect	text29
  3713  0ED6                     __ptext29:	
  3714 ;; *************** function _vid_Right_7_Segment_DisplayNumber *****************
  3715 ;; Defined at:
  3716 ;;		line 65 in file "7_Segment_prog.c"
  3717 ;; Parameters:    Size  Location     Type
  3718 ;;  u8_Number       1    wreg     unsigned char 
  3719 ;; Auto vars:     Size  Location     Type
  3720 ;;  u8_Number       1   10[BANK0 ] unsigned char 
  3721 ;; Return value:  Size  Location     Type
  3722 ;;                  1    wreg      void 
  3723 ;; Registers used:
  3724 ;;		wreg, fsr0l, fsr0h, status,2, status,0, btemp+1, pclath, cstack
  3725 ;; Tracked objects:
  3726 ;;		On entry : 0/0
  3727 ;;		On exit  : 0/0
  3728 ;;		Unchanged: 0/0
  3729 ;; Data sizes:     COMMON   BANK0   BANK1   BANK3   BANK2
  3730 ;;      Params:         0       0       0       0       0
  3731 ;;      Locals:         0       1       0       0       0
  3732 ;;      Temps:          0       0       0       0       0
  3733 ;;      Totals:         0       1       0       0       0
  3734 ;;Total ram usage:        1 bytes
  3735 ;; Hardware stack levels used:    1
  3736 ;; Hardware stack levels required when called:    7
  3737 ;; This function calls:
  3738 ;;		_DIO_SetPinValue
  3739 ;;		_DIO_SetPortValue
  3740 ;; This function is called by:
  3741 ;;		_vid_7_Segment_Display_2Digits
  3742 ;; This function uses a non-reentrant model
  3743 ;;
  3744                           
  3745                           
  3746                           ;psect for function _vid_Right_7_Segment_DisplayNumber
  3747  0ED6                     _vid_Right_7_Segment_DisplayNumber:
  3748                           
  3749                           ;incstack = 0
  3750 ;; hardware stack exceeded
  3751                           ; Regs used in _vid_Right_7_Segment_DisplayNumber: [wreg-fsr0h+status,2+status,0+btemp+1
      +                          +pclath+cstack]
  3752                           ;vid_Right_7_Segment_DisplayNumber@u8_Number stored from wreg
  3753  0ED6  1283               	bcf	3,5	;RP0=0, select bank0
  3754  0ED7  1303               	bcf	3,6	;RP1=0, select bank0
  3755  0ED8  00C3               	movwf	vid_Right_7_Segment_DisplayNumber@u8_Number
  3756  0ED9                     l2198:
  3757  0ED9  3004               	movlw	4
  3758  0EDA  00FF               	movwf	btemp+1
  3759  0EDB  087F               	movf	btemp+1,w
  3760  0EDC  00BE               	movwf	DIO_SetPinValue@u8PinIdCopy
  3761  0EDD  01BF               	clrf	DIO_SetPinValue@u8PinValCopy
  3762  0EDE  3000               	movlw	0
  3763  0EDF  120A  118A  2296  120A  158A  	fcall	_DIO_SetPinValue
  3764  0EE4  3005               	movlw	5
  3765  0EE5  00FF               	movwf	btemp+1
  3766  0EE6  087F               	movf	btemp+1,w
  3767  0EE7  1283               	bcf	3,5	;RP0=0, select bank0
  3768  0EE8  1303               	bcf	3,6	;RP1=0, select bank0
  3769  0EE9  00BE               	movwf	DIO_SetPinValue@u8PinIdCopy
  3770  0EEA  01BF               	clrf	DIO_SetPinValue@u8PinValCopy
  3771  0EEB  0ABF               	incf	DIO_SetPinValue@u8PinValCopy,f
  3772  0EEC  3000               	movlw	0
  3773  0EED  120A  118A  2296  120A  158A  	fcall	_DIO_SetPinValue
  3774  0EF2  1283               	bcf	3,5	;RP0=0, select bank0
  3775  0EF3  1303               	bcf	3,6	;RP1=0, select bank0
  3776  0EF4  0843               	movf	vid_Right_7_Segment_DisplayNumber@u8_Number,w
  3777  0EF5  3E01               	addlw	low ((_u8_Right_7Segment-__stringbase)| (0+32768))
  3778  0EF6  0084               	movwf	4
  3779  0EF7  120A  158A  2000  120A  158A  	fcall	stringdir
  3780  0EFC  00FF               	movwf	btemp+1
  3781  0EFD  087F               	movf	btemp+1,w
  3782  0EFE  00BE               	movwf	DIO_SetPortValue@u8PortVal
  3783  0EFF  3003               	movlw	3
  3784  0F00  120A  158A  2677  120A  158A  	fcall	_DIO_SetPortValue
  3785  0F05                     l385:
  3786  0F05  0008               	return
  3787  0F06                     __end_of_vid_Right_7_Segment_DisplayNumber:
  3788                           
  3789                           	psect	text30
  3790  0EA6                     __ptext30:	
  3791 ;; *************** function _vid_Left_7_Segment_DisplayNumber *****************
  3792 ;; Defined at:
  3793 ;;		line 53 in file "7_Segment_prog.c"
  3794 ;; Parameters:    Size  Location     Type
  3795 ;;  u8_Number       1    wreg     unsigned char 
  3796 ;; Auto vars:     Size  Location     Type
  3797 ;;  u8_Number       1   10[BANK0 ] unsigned char 
  3798 ;; Return value:  Size  Location     Type
  3799 ;;                  1    wreg      void 
  3800 ;; Registers used:
  3801 ;;		wreg, fsr0l, fsr0h, status,2, status,0, btemp+1, pclath, cstack
  3802 ;; Tracked objects:
  3803 ;;		On entry : 0/0
  3804 ;;		On exit  : 0/0
  3805 ;;		Unchanged: 0/0
  3806 ;; Data sizes:     COMMON   BANK0   BANK1   BANK3   BANK2
  3807 ;;      Params:         0       0       0       0       0
  3808 ;;      Locals:         0       1       0       0       0
  3809 ;;      Temps:          0       0       0       0       0
  3810 ;;      Totals:         0       1       0       0       0
  3811 ;;Total ram usage:        1 bytes
  3812 ;; Hardware stack levels used:    1
  3813 ;; Hardware stack levels required when called:    7
  3814 ;; This function calls:
  3815 ;;		_DIO_SetPinValue
  3816 ;;		_DIO_SetPortValue
  3817 ;; This function is called by:
  3818 ;;		_vid_7_Segment_Display_2Digits
  3819 ;; This function uses a non-reentrant model
  3820 ;;
  3821                           
  3822                           
  3823                           ;psect for function _vid_Left_7_Segment_DisplayNumber
  3824  0EA6                     _vid_Left_7_Segment_DisplayNumber:
  3825                           
  3826                           ;incstack = 0
  3827 ;; hardware stack exceeded
  3828                           ; Regs used in _vid_Left_7_Segment_DisplayNumber: [wreg-fsr0h+status,2+status,0+btemp+1+
      +                          pclath+cstack]
  3829                           ;vid_Left_7_Segment_DisplayNumber@u8_Number stored from wreg
  3830  0EA6  1283               	bcf	3,5	;RP0=0, select bank0
  3831  0EA7  1303               	bcf	3,6	;RP1=0, select bank0
  3832  0EA8  00C3               	movwf	vid_Left_7_Segment_DisplayNumber@u8_Number
  3833  0EA9                     l2196:
  3834  0EA9  3005               	movlw	5
  3835  0EAA  00FF               	movwf	btemp+1
  3836  0EAB  087F               	movf	btemp+1,w
  3837  0EAC  00BE               	movwf	DIO_SetPinValue@u8PinIdCopy
  3838  0EAD  01BF               	clrf	DIO_SetPinValue@u8PinValCopy
  3839  0EAE  3000               	movlw	0
  3840  0EAF  120A  118A  2296  120A  158A  	fcall	_DIO_SetPinValue
  3841  0EB4  3004               	movlw	4
  3842  0EB5  00FF               	movwf	btemp+1
  3843  0EB6  087F               	movf	btemp+1,w
  3844  0EB7  1283               	bcf	3,5	;RP0=0, select bank0
  3845  0EB8  1303               	bcf	3,6	;RP1=0, select bank0
  3846  0EB9  00BE               	movwf	DIO_SetPinValue@u8PinIdCopy
  3847  0EBA  01BF               	clrf	DIO_SetPinValue@u8PinValCopy
  3848  0EBB  0ABF               	incf	DIO_SetPinValue@u8PinValCopy,f
  3849  0EBC  3000               	movlw	0
  3850  0EBD  120A  118A  2296  120A  158A  	fcall	_DIO_SetPinValue
  3851  0EC2  1283               	bcf	3,5	;RP0=0, select bank0
  3852  0EC3  1303               	bcf	3,6	;RP1=0, select bank0
  3853  0EC4  0843               	movf	vid_Left_7_Segment_DisplayNumber@u8_Number,w
  3854  0EC5  3E0B               	addlw	low ((_u8_Left_7Segment-__stringbase)| (0+32768))
  3855  0EC6  0084               	movwf	4
  3856  0EC7  120A  158A  2000  120A  158A  	fcall	stringdir
  3857  0ECC  00FF               	movwf	btemp+1
  3858  0ECD  087F               	movf	btemp+1,w
  3859  0ECE  00BE               	movwf	DIO_SetPortValue@u8PortVal
  3860  0ECF  3003               	movlw	3
  3861  0ED0  120A  158A  2677  120A  158A  	fcall	_DIO_SetPortValue
  3862  0ED5                     l382:
  3863  0ED5  0008               	return
  3864  0ED6                     __end_of_vid_Left_7_Segment_DisplayNumber:
  3865                           
  3866                           	psect	text31
  3867  0E77                     __ptext31:	
  3868 ;; *************** function _DIO_SetPortValue *****************
  3869 ;; Defined at:
  3870 ;;		line 148 in file "DIO_Prog.c"
  3871 ;; Parameters:    Size  Location     Type
  3872 ;;  u8PortId        1    wreg     unsigned char 
  3873 ;;  u8PortVal       1    5[BANK0 ] unsigned char 
  3874 ;; Auto vars:     Size  Location     Type
  3875 ;;  u8PortId        1    8[BANK0 ] unsigned char 
  3876 ;; Return value:  Size  Location     Type
  3877 ;;                  1    wreg      void 
  3878 ;; Registers used:
  3879 ;;		wreg, fsr0l, fsr0h, status,2, status,0, btemp+1
  3880 ;; Tracked objects:
  3881 ;;		On entry : 0/0
  3882 ;;		On exit  : 0/0
  3883 ;;		Unchanged: 0/0
  3884 ;; Data sizes:     COMMON   BANK0   BANK1   BANK3   BANK2
  3885 ;;      Params:         0       1       0       0       0
  3886 ;;      Locals:         0       1       0       0       0
  3887 ;;      Temps:          0       2       0       0       0
  3888 ;;      Totals:         0       4       0       0       0
  3889 ;;Total ram usage:        4 bytes
  3890 ;; Hardware stack levels used:    1
  3891 ;; Hardware stack levels required when called:    6
  3892 ;; This function calls:
  3893 ;;		Nothing
  3894 ;; This function is called by:
  3895 ;;		_vid_Left_7_Segment_DisplayNumber
  3896 ;;		_vid_Right_7_Segment_DisplayNumber
  3897 ;; This function uses a non-reentrant model
  3898 ;;
  3899                           
  3900                           
  3901                           ;psect for function _DIO_SetPortValue
  3902  0E77                     _DIO_SetPortValue:
  3903                           
  3904                           ;incstack = 0
  3905 ;; hardware stack exceeded
  3906                           ; Regs used in _DIO_SetPortValue: [wreg-fsr0h+status,2+status,0+btemp+1]
  3907                           ;DIO_SetPortValue@u8PortId stored from wreg
  3908  0E77  1283               	bcf	3,5	;RP0=0, select bank0
  3909  0E78  1303               	bcf	3,6	;RP1=0, select bank0
  3910  0E79  00C1               	movwf	DIO_SetPortValue@u8PortId
  3911  0E7A                     l2050:
  3912                           
  3913                           ;DIO_Prog.c: 148: void DIO_SetPortValue (u8 u8PortId, u8 u8PortVal);DIO_Prog.c: 149: {;D
      +                          IO_Prog.c: 151:  switch (u8PortId)
  3914  0E7A  2E8F               	goto	l2062
  3915  0E7B                     l2052:
  3916  0E7B  083E               	movf	DIO_SetPortValue@u8PortVal,w
  3917  0E7C  00FF               	movwf	btemp+1
  3918  0E7D  087F               	movf	btemp+1,w
  3919  0E7E  0085               	movwf	5	;volatile
  3920  0E7F  2EA5               	goto	l212
  3921  0E80                     l2054:
  3922  0E80  083E               	movf	DIO_SetPortValue@u8PortVal,w
  3923  0E81  00FF               	movwf	btemp+1
  3924  0E82  087F               	movf	btemp+1,w
  3925  0E83  0086               	movwf	6	;volatile
  3926  0E84  2EA5               	goto	l212
  3927  0E85                     l2056:
  3928  0E85  083E               	movf	DIO_SetPortValue@u8PortVal,w
  3929  0E86  00FF               	movwf	btemp+1
  3930  0E87  087F               	movf	btemp+1,w
  3931  0E88  0087               	movwf	7	;volatile
  3932  0E89  2EA5               	goto	l212
  3933  0E8A                     l2058:
  3934  0E8A  083E               	movf	DIO_SetPortValue@u8PortVal,w
  3935  0E8B  00FF               	movwf	btemp+1
  3936  0E8C  087F               	movf	btemp+1,w
  3937  0E8D  0088               	movwf	8	;volatile
  3938  0E8E  2EA5               	goto	l212
  3939  0E8F                     l2062:
  3940  0E8F  0841               	movf	DIO_SetPortValue@u8PortId,w
  3941  0E90  00BF               	movwf	??_DIO_SetPortValue
  3942  0E91  01C0               	clrf	??_DIO_SetPortValue+1
  3943                           
  3944                           ; Switch on 2 bytes has been partitioned into a top level switch of size 1, and 1 sub-sw
      +                          itches
  3945                           ; Switch size 1, requested type "simple"
  3946                           ; Number of cases is 1, Range of values is 0 to 0
  3947                           ; switch strategies available:
  3948                           ; Name         Instructions Cycles
  3949                           ; simple_byte            4     3 (average)
  3950                           ; direct_byte           11     8 (fixed)
  3951                           ; jumptable            260     6 (fixed)
  3952                           ;	Chosen strategy is simple_byte
  3953  0E92  0840               	movf	??_DIO_SetPortValue+1,w
  3954  0E93  3A00               	xorlw	0	; case 0
  3955  0E94  1903               	skipnz
  3956  0E95  2E97               	goto	l3516
  3957  0E96  2EA5               	goto	l212
  3958  0E97                     l3516:
  3959                           
  3960                           ; Switch size 1, requested type "simple"
  3961                           ; Number of cases is 4, Range of values is 0 to 3
  3962                           ; switch strategies available:
  3963                           ; Name         Instructions Cycles
  3964                           ; simple_byte           13     7 (average)
  3965                           ; direct_byte           20     8 (fixed)
  3966                           ; jumptable            260     6 (fixed)
  3967                           ;	Chosen strategy is simple_byte
  3968  0E97  083F               	movf	??_DIO_SetPortValue,w
  3969  0E98  3A00               	xorlw	0	; case 0
  3970  0E99  1903               	skipnz
  3971  0E9A  2E7B               	goto	l2052
  3972  0E9B  3A01               	xorlw	1	; case 1
  3973  0E9C  1903               	skipnz
  3974  0E9D  2E80               	goto	l2054
  3975  0E9E  3A03               	xorlw	3	; case 2
  3976  0E9F  1903               	skipnz
  3977  0EA0  2E85               	goto	l2056
  3978  0EA1  3A01               	xorlw	1	; case 3
  3979  0EA2  1903               	skipnz
  3980  0EA3  2E8A               	goto	l2058
  3981  0EA4  2EA5               	goto	l212
  3982  0EA5                     l212:
  3983  0EA5  0008               	return
  3984  0EA6                     __end_of_DIO_SetPortValue:
  3985                           
  3986                           	psect	text32
  3987  04EF                     __ptext32:	
  3988 ;; *************** function ___awmod *****************
  3989 ;; Defined at:
  3990 ;;		line 5 in file "C:\Program Files\Microchip\xc8\v2.20\pic\sources\c90\common\awmod.c"
  3991 ;; Parameters:    Size  Location     Type
  3992 ;;  divisor         2    5[BANK0 ] int 
  3993 ;;  dividend        2    7[BANK0 ] int 
  3994 ;; Auto vars:     Size  Location     Type
  3995 ;;  sign            1   10[BANK0 ] unsigned char 
  3996 ;;  counter         1    9[BANK0 ] unsigned char 
  3997 ;; Return value:  Size  Location     Type
  3998 ;;                  2    5[BANK0 ] int 
  3999 ;; Registers used:
  4000 ;;		wreg, status,2, status,0, btemp+1
  4001 ;; Tracked objects:
  4002 ;;		On entry : 0/0
  4003 ;;		On exit  : 0/0
  4004 ;;		Unchanged: 0/0
  4005 ;; Data sizes:     COMMON   BANK0   BANK1   BANK3   BANK2
  4006 ;;      Params:         0       4       0       0       0
  4007 ;;      Locals:         0       2       0       0       0
  4008 ;;      Temps:          0       0       0       0       0
  4009 ;;      Totals:         0       6       0       0       0
  4010 ;;Total ram usage:        6 bytes
  4011 ;; Hardware stack levels used:    1
  4012 ;; Hardware stack levels required when called:    6
  4013 ;; This function calls:
  4014 ;;		Nothing
  4015 ;; This function is called by:
  4016 ;;		_vid_7_Segment_Display_2Digits
  4017 ;; This function uses a non-reentrant model
  4018 ;;
  4019                           
  4020                           
  4021                           ;psect for function ___awmod
  4022  04EF                     ___awmod:
  4023  04EF                     l2244:	
  4024                           ;incstack = 0
  4025 ;; hardware stack exceeded
  4026                           ; Regs used in ___awmod: [wreg+status,2+status,0+btemp+1]
  4027                           
  4028  04EF  1283               	bcf	3,5	;RP0=0, select bank0
  4029  04F0  1303               	bcf	3,6	;RP1=0, select bank0
  4030  04F1  01C3               	clrf	___awmod@sign
  4031  04F2                     l2246:
  4032  04F2  1FC1               	btfss	___awmod@dividend+1,7
  4033  04F3  2CF5               	goto	u1601
  4034  04F4  2CF6               	goto	u1600
  4035  04F5                     u1601:
  4036  04F5  2CFD               	goto	l2252
  4037  04F6                     u1600:
  4038  04F6                     l2248:
  4039  04F6  09C0               	comf	___awmod@dividend,f
  4040  04F7  09C1               	comf	___awmod@dividend+1,f
  4041  04F8  0AC0               	incf	___awmod@dividend,f
  4042  04F9  1903               	skipnz
  4043  04FA  0AC1               	incf	___awmod@dividend+1,f
  4044  04FB                     l2250:
  4045  04FB  01C3               	clrf	___awmod@sign
  4046  04FC  0AC3               	incf	___awmod@sign,f
  4047  04FD                     l2252:
  4048  04FD  1FBF               	btfss	___awmod@divisor+1,7
  4049  04FE  2D00               	goto	u1611
  4050  04FF  2D01               	goto	u1610
  4051  0500                     u1611:
  4052  0500  2D06               	goto	l2256
  4053  0501                     u1610:
  4054  0501                     l2254:
  4055  0501  09BE               	comf	___awmod@divisor,f
  4056  0502  09BF               	comf	___awmod@divisor+1,f
  4057  0503  0ABE               	incf	___awmod@divisor,f
  4058  0504  1903               	skipnz
  4059  0505  0ABF               	incf	___awmod@divisor+1,f
  4060  0506                     l2256:
  4061  0506  083E               	movf	___awmod@divisor,w
  4062  0507  043F               	iorwf	___awmod@divisor+1,w
  4063  0508  1903               	btfsc	3,2
  4064  0509  2D0B               	goto	u1621
  4065  050A  2D0C               	goto	u1620
  4066  050B                     u1621:
  4067  050B  2D3B               	goto	l2274
  4068  050C                     u1620:
  4069  050C                     l2258:
  4070  050C  01C2               	clrf	___awmod@counter
  4071  050D  0AC2               	incf	___awmod@counter,f
  4072  050E  2D1A               	goto	l2264
  4073  050F                     l2260:
  4074  050F  3001               	movlw	1
  4075  0510                     u1635:
  4076  0510  1003               	clrc
  4077  0511  0DBE               	rlf	___awmod@divisor,f
  4078  0512  0DBF               	rlf	___awmod@divisor+1,f
  4079  0513  3EFF               	addlw	-1
  4080  0514  1D03               	skipz
  4081  0515  2D10               	goto	u1635
  4082  0516                     l2262:
  4083  0516  3001               	movlw	1
  4084  0517  00FF               	movwf	btemp+1
  4085  0518  087F               	movf	btemp+1,w
  4086  0519  07C2               	addwf	___awmod@counter,f
  4087  051A                     l2264:
  4088  051A  1FBF               	btfss	___awmod@divisor+1,7
  4089  051B  2D1D               	goto	u1641
  4090  051C  2D1E               	goto	u1640
  4091  051D                     u1641:
  4092  051D  2D0F               	goto	l2260
  4093  051E                     u1640:
  4094  051E                     l2266:
  4095  051E  083F               	movf	___awmod@divisor+1,w
  4096  051F  0241               	subwf	___awmod@dividend+1,w
  4097  0520  1D03               	skipz
  4098  0521  2D24               	goto	u1655
  4099  0522  083E               	movf	___awmod@divisor,w
  4100  0523  0240               	subwf	___awmod@dividend,w
  4101  0524                     u1655:
  4102  0524  1C03               	skipc
  4103  0525  2D27               	goto	u1651
  4104  0526  2D28               	goto	u1650
  4105  0527                     u1651:
  4106  0527  2D2E               	goto	l2270
  4107  0528                     u1650:
  4108  0528                     l2268:
  4109  0528  083E               	movf	___awmod@divisor,w
  4110  0529  02C0               	subwf	___awmod@dividend,f
  4111  052A  083F               	movf	___awmod@divisor+1,w
  4112  052B  1C03               	skipc
  4113  052C  03C1               	decf	___awmod@dividend+1,f
  4114  052D  02C1               	subwf	___awmod@dividend+1,f
  4115  052E                     l2270:
  4116  052E  3001               	movlw	1
  4117  052F                     u1665:
  4118  052F  1003               	clrc
  4119  0530  0CBF               	rrf	___awmod@divisor+1,f
  4120  0531  0CBE               	rrf	___awmod@divisor,f
  4121  0532  3EFF               	addlw	-1
  4122  0533  1D03               	skipz
  4123  0534  2D2F               	goto	u1665
  4124  0535                     l2272:
  4125  0535  3001               	movlw	1
  4126  0536  02C2               	subwf	___awmod@counter,f
  4127  0537  1D03               	btfss	3,2
  4128  0538  2D3A               	goto	u1671
  4129  0539  2D3B               	goto	u1670
  4130  053A                     u1671:
  4131  053A  2D1E               	goto	l2266
  4132  053B                     u1670:
  4133  053B                     l2274:
  4134  053B  0843               	movf	___awmod@sign,w
  4135  053C  1903               	btfsc	3,2
  4136  053D  2D3F               	goto	u1681
  4137  053E  2D40               	goto	u1680
  4138  053F                     u1681:
  4139  053F  2D45               	goto	l2278
  4140  0540                     u1680:
  4141  0540                     l2276:
  4142  0540  09C0               	comf	___awmod@dividend,f
  4143  0541  09C1               	comf	___awmod@dividend+1,f
  4144  0542  0AC0               	incf	___awmod@dividend,f
  4145  0543  1903               	skipnz
  4146  0544  0AC1               	incf	___awmod@dividend+1,f
  4147  0545                     l2278:
  4148  0545  0841               	movf	___awmod@dividend+1,w
  4149  0546  00BF               	movwf	?___awmod+1
  4150  0547  0840               	movf	___awmod@dividend,w
  4151  0548  00BE               	movwf	?___awmod
  4152  0549                     l640:
  4153  0549  0008               	return
  4154  054A                     __end_of___awmod:
  4155                           
  4156                           	psect	text33
  4157  03C0                     __ptext33:	
  4158 ;; *************** function ___awdiv *****************
  4159 ;; Defined at:
  4160 ;;		line 5 in file "C:\Program Files\Microchip\xc8\v2.20\pic\sources\c90\common\awdiv.c"
  4161 ;; Parameters:    Size  Location     Type
  4162 ;;  divisor         2    5[BANK0 ] int 
  4163 ;;  dividend        2    7[BANK0 ] int 
  4164 ;; Auto vars:     Size  Location     Type
  4165 ;;  quotient        2   11[BANK0 ] int 
  4166 ;;  sign            1   10[BANK0 ] unsigned char 
  4167 ;;  counter         1    9[BANK0 ] unsigned char 
  4168 ;; Return value:  Size  Location     Type
  4169 ;;                  2    5[BANK0 ] int 
  4170 ;; Registers used:
  4171 ;;		wreg, status,2, status,0, btemp+1
  4172 ;; Tracked objects:
  4173 ;;		On entry : 0/0
  4174 ;;		On exit  : 0/0
  4175 ;;		Unchanged: 0/0
  4176 ;; Data sizes:     COMMON   BANK0   BANK1   BANK3   BANK2
  4177 ;;      Params:         0       4       0       0       0
  4178 ;;      Locals:         0       4       0       0       0
  4179 ;;      Temps:          0       0       0       0       0
  4180 ;;      Totals:         0       8       0       0       0
  4181 ;;Total ram usage:        8 bytes
  4182 ;; Hardware stack levels used:    1
  4183 ;; Hardware stack levels required when called:    6
  4184 ;; This function calls:
  4185 ;;		Nothing
  4186 ;; This function is called by:
  4187 ;;		_vid_7_Segment_Display_2Digits
  4188 ;; This function uses a non-reentrant model
  4189 ;;
  4190                           
  4191                           
  4192                           ;psect for function ___awdiv
  4193  03C0                     ___awdiv:
  4194  03C0                     l2200:	
  4195                           ;incstack = 0
  4196 ;; hardware stack exceeded
  4197                           ; Regs used in ___awdiv: [wreg+status,2+status,0+btemp+1]
  4198                           
  4199  03C0  1283               	bcf	3,5	;RP0=0, select bank0
  4200  03C1  1303               	bcf	3,6	;RP1=0, select bank0
  4201  03C2  01C3               	clrf	___awdiv@sign
  4202  03C3                     l2202:
  4203  03C3  1FBF               	btfss	___awdiv@divisor+1,7
  4204  03C4  2BC6               	goto	u1501
  4205  03C5  2BC7               	goto	u1500
  4206  03C6                     u1501:
  4207  03C6  2BCE               	goto	l2208
  4208  03C7                     u1500:
  4209  03C7                     l2204:
  4210  03C7  09BE               	comf	___awdiv@divisor,f
  4211  03C8  09BF               	comf	___awdiv@divisor+1,f
  4212  03C9  0ABE               	incf	___awdiv@divisor,f
  4213  03CA  1903               	skipnz
  4214  03CB  0ABF               	incf	___awdiv@divisor+1,f
  4215  03CC                     l2206:
  4216  03CC  01C3               	clrf	___awdiv@sign
  4217  03CD  0AC3               	incf	___awdiv@sign,f
  4218  03CE                     l2208:
  4219  03CE  1FC1               	btfss	___awdiv@dividend+1,7
  4220  03CF  2BD1               	goto	u1511
  4221  03D0  2BD2               	goto	u1510
  4222  03D1                     u1511:
  4223  03D1  2BDB               	goto	l2214
  4224  03D2                     u1510:
  4225  03D2                     l2210:
  4226  03D2  09C0               	comf	___awdiv@dividend,f
  4227  03D3  09C1               	comf	___awdiv@dividend+1,f
  4228  03D4  0AC0               	incf	___awdiv@dividend,f
  4229  03D5  1903               	skipnz
  4230  03D6  0AC1               	incf	___awdiv@dividend+1,f
  4231  03D7                     l2212:
  4232  03D7  3001               	movlw	1
  4233  03D8  00FF               	movwf	btemp+1
  4234  03D9  087F               	movf	btemp+1,w
  4235  03DA  06C3               	xorwf	___awdiv@sign,f
  4236  03DB                     l2214:
  4237  03DB  01C4               	clrf	___awdiv@quotient
  4238  03DC  01C5               	clrf	___awdiv@quotient+1
  4239  03DD                     l2216:
  4240  03DD  083E               	movf	___awdiv@divisor,w
  4241  03DE  043F               	iorwf	___awdiv@divisor+1,w
  4242  03DF  1903               	btfsc	3,2
  4243  03E0  2BE2               	goto	u1521
  4244  03E1  2BE3               	goto	u1520
  4245  03E2                     u1521:
  4246  03E2  2C1A               	goto	l2236
  4247  03E3                     u1520:
  4248  03E3                     l2218:
  4249  03E3  01C2               	clrf	___awdiv@counter
  4250  03E4  0AC2               	incf	___awdiv@counter,f
  4251  03E5  2BF1               	goto	l2224
  4252  03E6                     l2220:
  4253  03E6  3001               	movlw	1
  4254  03E7                     u1535:
  4255  03E7  1003               	clrc
  4256  03E8  0DBE               	rlf	___awdiv@divisor,f
  4257  03E9  0DBF               	rlf	___awdiv@divisor+1,f
  4258  03EA  3EFF               	addlw	-1
  4259  03EB  1D03               	skipz
  4260  03EC  2BE7               	goto	u1535
  4261  03ED                     l2222:
  4262  03ED  3001               	movlw	1
  4263  03EE  00FF               	movwf	btemp+1
  4264  03EF  087F               	movf	btemp+1,w
  4265  03F0  07C2               	addwf	___awdiv@counter,f
  4266  03F1                     l2224:
  4267  03F1  1FBF               	btfss	___awdiv@divisor+1,7
  4268  03F2  2BF4               	goto	u1541
  4269  03F3  2BF5               	goto	u1540
  4270  03F4                     u1541:
  4271  03F4  2BE6               	goto	l2220
  4272  03F5                     u1540:
  4273  03F5                     l2226:
  4274  03F5  3001               	movlw	1
  4275  03F6                     u1555:
  4276  03F6  1003               	clrc
  4277  03F7  0DC4               	rlf	___awdiv@quotient,f
  4278  03F8  0DC5               	rlf	___awdiv@quotient+1,f
  4279  03F9  3EFF               	addlw	-1
  4280  03FA  1D03               	skipz
  4281  03FB  2BF6               	goto	u1555
  4282  03FC  083F               	movf	___awdiv@divisor+1,w
  4283  03FD  0241               	subwf	___awdiv@dividend+1,w
  4284  03FE  1D03               	skipz
  4285  03FF  2C02               	goto	u1565
  4286  0400  083E               	movf	___awdiv@divisor,w
  4287  0401  0240               	subwf	___awdiv@dividend,w
  4288  0402                     u1565:
  4289  0402  1C03               	skipc
  4290  0403  2C05               	goto	u1561
  4291  0404  2C06               	goto	u1560
  4292  0405                     u1561:
  4293  0405  2C0D               	goto	l2232
  4294  0406                     u1560:
  4295  0406                     l2228:
  4296  0406  083E               	movf	___awdiv@divisor,w
  4297  0407  02C0               	subwf	___awdiv@dividend,f
  4298  0408  083F               	movf	___awdiv@divisor+1,w
  4299  0409  1C03               	skipc
  4300  040A  03C1               	decf	___awdiv@dividend+1,f
  4301  040B  02C1               	subwf	___awdiv@dividend+1,f
  4302  040C                     l2230:
  4303  040C  1444               	bsf	___awdiv@quotient,0
  4304  040D                     l2232:
  4305  040D  3001               	movlw	1
  4306  040E                     u1575:
  4307  040E  1003               	clrc
  4308  040F  0CBF               	rrf	___awdiv@divisor+1,f
  4309  0410  0CBE               	rrf	___awdiv@divisor,f
  4310  0411  3EFF               	addlw	-1
  4311  0412  1D03               	skipz
  4312  0413  2C0E               	goto	u1575
  4313  0414                     l2234:
  4314  0414  3001               	movlw	1
  4315  0415  02C2               	subwf	___awdiv@counter,f
  4316  0416  1D03               	btfss	3,2
  4317  0417  2C19               	goto	u1581
  4318  0418  2C1A               	goto	u1580
  4319  0419                     u1581:
  4320  0419  2BF5               	goto	l2226
  4321  041A                     u1580:
  4322  041A                     l2236:
  4323  041A  0843               	movf	___awdiv@sign,w
  4324  041B  1903               	btfsc	3,2
  4325  041C  2C1E               	goto	u1591
  4326  041D  2C1F               	goto	u1590
  4327  041E                     u1591:
  4328  041E  2C24               	goto	l2240
  4329  041F                     u1590:
  4330  041F                     l2238:
  4331  041F  09C4               	comf	___awdiv@quotient,f
  4332  0420  09C5               	comf	___awdiv@quotient+1,f
  4333  0421  0AC4               	incf	___awdiv@quotient,f
  4334  0422  1903               	skipnz
  4335  0423  0AC5               	incf	___awdiv@quotient+1,f
  4336  0424                     l2240:
  4337  0424  0845               	movf	___awdiv@quotient+1,w
  4338  0425  00BF               	movwf	?___awdiv+1
  4339  0426  0844               	movf	___awdiv@quotient,w
  4340  0427  00BE               	movwf	?___awdiv
  4341  0428                     l627:
  4342  0428  0008               	return
  4343  0429                     __end_of___awdiv:
  4344                           
  4345                           	psect	text34
  4346  0C75                     __ptext34:	
  4347 ;; *************** function _OFF_Mode *****************
  4348 ;; Defined at:
  4349 ;;		line 119 in file "APP_Program.c"
  4350 ;; Parameters:    Size  Location     Type
  4351 ;;		None
  4352 ;; Auto vars:     Size  Location     Type
  4353 ;;		None
  4354 ;; Return value:  Size  Location     Type
  4355 ;;                  1    wreg      void 
  4356 ;; Registers used:
  4357 ;;		wreg, fsr0l, fsr0h, status,2, status,0, btemp+1, pclath, cstack
  4358 ;; Tracked objects:
  4359 ;;		On entry : 0/0
  4360 ;;		On exit  : 0/0
  4361 ;;		Unchanged: 0/0
  4362 ;; Data sizes:     COMMON   BANK0   BANK1   BANK3   BANK2
  4363 ;;      Params:         0       0       0       0       0
  4364 ;;      Locals:         0       0       0       0       0
  4365 ;;      Temps:          0       0       0       0       0
  4366 ;;      Totals:         0       0       0       0       0
  4367 ;;Total ram usage:        0 bytes
  4368 ;; Hardware stack levels used:    1
  4369 ;; Hardware stack levels required when called:    8
  4370 ;; This function calls:
  4371 ;;		_vid_7_Segment_DeInit
  4372 ;; This function is called by:
  4373 ;;		_main
  4374 ;;		_System_Power
  4375 ;; This function uses a non-reentrant model
  4376 ;;
  4377                           
  4378                           
  4379                           ;psect for function _OFF_Mode
  4380  0C75                     _OFF_Mode:
  4381  0C75                     l2488:	
  4382                           ;incstack = 0
  4383 ;; hardware stack exceeded
  4384                           ; Regs used in _OFF_Mode: [wreg-fsr0h+status,2+status,0+btemp+1+pclath+cstack]
  4385                           
  4386                           
  4387                           ;APP_Program.c: 121:     ON_OFF_Status = 0 ;
  4388  0C75  1283               	bcf	3,5	;RP0=0, select bank0
  4389  0C76  1303               	bcf	3,6	;RP1=0, select bank0
  4390  0C77  01B7               	clrf	_ON_OFF_Status
  4391  0C78                     l2490:
  4392                           
  4393                           ;APP_Program.c: 122:     vid_7_Segment_DeInit () ;
  4394  0C78  120A  158A  2539  120A  158A  	fcall	_vid_7_Segment_DeInit
  4395  0C7D                     l2492:
  4396                           
  4397                           ;APP_Program.c: 123:        ((*((volatile u8*)0x0B))) &= ~(1 << (3)) ;
  4398  0C7D  30F7               	movlw	247
  4399  0C7E  00FF               	movwf	btemp+1
  4400  0C7F  087F               	movf	btemp+1,w
  4401  0C80  058B               	andwf	11,f	;volatile
  4402  0C81                     l75:
  4403  0C81  0008               	return
  4404  0C82                     __end_of_OFF_Mode:
  4405                           
  4406                           	psect	text35
  4407  0D39                     __ptext35:	
  4408 ;; *************** function _vid_7_Segment_DeInit *****************
  4409 ;; Defined at:
  4410 ;;		line 45 in file "7_Segment_prog.c"
  4411 ;; Parameters:    Size  Location     Type
  4412 ;;		None
  4413 ;; Auto vars:     Size  Location     Type
  4414 ;;		None
  4415 ;; Return value:  Size  Location     Type
  4416 ;;                  1    wreg      void 
  4417 ;; Registers used:
  4418 ;;		wreg, fsr0l, fsr0h, status,2, status,0, btemp+1, pclath, cstack
  4419 ;; Tracked objects:
  4420 ;;		On entry : 0/0
  4421 ;;		On exit  : 0/0
  4422 ;;		Unchanged: 0/0
  4423 ;; Data sizes:     COMMON   BANK0   BANK1   BANK3   BANK2
  4424 ;;      Params:         0       0       0       0       0
  4425 ;;      Locals:         0       0       0       0       0
  4426 ;;      Temps:          0       0       0       0       0
  4427 ;;      Totals:         0       0       0       0       0
  4428 ;;Total ram usage:        0 bytes
  4429 ;; Hardware stack levels used:    1
  4430 ;; Hardware stack levels required when called:    7
  4431 ;; This function calls:
  4432 ;;		_DIO_SetPinValue
  4433 ;; This function is called by:
  4434 ;;		_OFF_Mode
  4435 ;;		_SetTemp_Mode
  4436 ;; This function uses a non-reentrant model
  4437 ;;
  4438                           
  4439                           
  4440                           ;psect for function _vid_7_Segment_DeInit
  4441  0D39                     _vid_7_Segment_DeInit:
  4442  0D39                     l2338:	
  4443                           ;incstack = 0
  4444 ;; hardware stack exceeded
  4445                           ; Regs used in _vid_7_Segment_DeInit: [wreg-fsr0h+status,2+status,0+btemp+1+pclath+cstac
      +                          k]
  4446                           
  4447  0D39  3004               	movlw	4
  4448  0D3A  00FF               	movwf	btemp+1
  4449  0D3B  087F               	movf	btemp+1,w
  4450  0D3C  1283               	bcf	3,5	;RP0=0, select bank0
  4451  0D3D  1303               	bcf	3,6	;RP1=0, select bank0
  4452  0D3E  00BE               	movwf	DIO_SetPinValue@u8PinIdCopy
  4453  0D3F  01BF               	clrf	DIO_SetPinValue@u8PinValCopy
  4454  0D40  3000               	movlw	0
  4455  0D41  120A  118A  2296  120A  158A  	fcall	_DIO_SetPinValue
  4456  0D46  3005               	movlw	5
  4457  0D47  00FF               	movwf	btemp+1
  4458  0D48  087F               	movf	btemp+1,w
  4459  0D49  1283               	bcf	3,5	;RP0=0, select bank0
  4460  0D4A  1303               	bcf	3,6	;RP1=0, select bank0
  4461  0D4B  00BE               	movwf	DIO_SetPinValue@u8PinIdCopy
  4462  0D4C  01BF               	clrf	DIO_SetPinValue@u8PinValCopy
  4463  0D4D  3000               	movlw	0
  4464  0D4E  120A  118A  2296  120A  158A  	fcall	_DIO_SetPinValue
  4465  0D53                     l379:
  4466  0D53  0008               	return
  4467  0D54                     __end_of_vid_7_Segment_DeInit:
  4468                           
  4469                           	psect	text36
  4470  0E1F                     __ptext36:	
  4471 ;; *************** function _I2C_Init *****************
  4472 ;; Defined at:
  4473 ;;		line 16 in file "I2C_Prog.c"
  4474 ;; Parameters:    Size  Location     Type
  4475 ;;		None
  4476 ;; Auto vars:     Size  Location     Type
  4477 ;;		None
  4478 ;; Return value:  Size  Location     Type
  4479 ;;                  1    wreg      void 
  4480 ;; Registers used:
  4481 ;;		wreg, fsr0l, fsr0h, status,2, status,0, btemp+1, pclath, cstack
  4482 ;; Tracked objects:
  4483 ;;		On entry : 0/0
  4484 ;;		On exit  : 0/0
  4485 ;;		Unchanged: 0/0
  4486 ;; Data sizes:     COMMON   BANK0   BANK1   BANK3   BANK2
  4487 ;;      Params:         0       0       0       0       0
  4488 ;;      Locals:         0       0       0       0       0
  4489 ;;      Temps:          0       0       0       0       0
  4490 ;;      Totals:         0       0       0       0       0
  4491 ;;Total ram usage:        0 bytes
  4492 ;; Hardware stack levels used:    1
  4493 ;; Hardware stack levels required when called:    7
  4494 ;; This function calls:
  4495 ;;		_DIO_SetPinDirection
  4496 ;; This function is called by:
  4497 ;;		_main
  4498 ;; This function uses a non-reentrant model
  4499 ;;
  4500                           
  4501                           
  4502                           ;psect for function _I2C_Init
  4503  0E1F                     _I2C_Init:
  4504  0E1F                     l2658:	
  4505                           ;incstack = 0
  4506                           ; Regs used in _I2C_Init: [wreg-fsr0h+status,2+status,0+btemp+1+pclath+cstack]
  4507                           
  4508                           
  4509                           ;I2C_Prog.c: 19:     (*((volatile u8*)0x93)) = (20000000/(4*1000000)) - 1;
  4510  0E1F  3004               	movlw	4
  4511  0E20  00FF               	movwf	btemp+1
  4512  0E21  087F               	movf	btemp+1,w
  4513  0E22  1683               	bsf	3,5	;RP0=1, select bank1
  4514  0E23  1303               	bcf	3,6	;RP1=0, select bank1
  4515  0E24  0093               	movwf	19	;volatile
  4516                           
  4517                           ;I2C_Prog.c: 21:     (*((volatile u8*)0x14)) = 0b00101000 ;
  4518  0E25  3028               	movlw	40
  4519  0E26  00FF               	movwf	btemp+1
  4520  0E27  087F               	movf	btemp+1,w
  4521  0E28  1283               	bcf	3,5	;RP0=0, select bank0
  4522  0E29  1303               	bcf	3,6	;RP1=0, select bank0
  4523  0E2A  0094               	movwf	20	;volatile
  4524  0E2B                     l2660:
  4525                           
  4526                           ;I2C_Prog.c: 25:     (*((volatile u8*)0x94)) = 0x00 ;
  4527  0E2B  1683               	bsf	3,5	;RP0=1, select bank1
  4528  0E2C  1303               	bcf	3,6	;RP1=0, select bank1
  4529  0E2D  0194               	clrf	20	;volatile
  4530  0E2E                     l2662:
  4531                           
  4532                           ;I2C_Prog.c: 27:     DIO_SetPinDirection(2 , 3 , 0) ;
  4533  0E2E  3003               	movlw	3
  4534  0E2F  00FF               	movwf	btemp+1
  4535  0E30  087F               	movf	btemp+1,w
  4536  0E31  1283               	bcf	3,5	;RP0=0, select bank0
  4537  0E32  1303               	bcf	3,6	;RP1=0, select bank0
  4538  0E33  00BE               	movwf	DIO_SetPinDirection@u8PinIdCopy
  4539  0E34  01BF               	clrf	DIO_SetPinDirection@u8PinDirCopy
  4540  0E35  3002               	movlw	2
  4541  0E36  120A  118A  2100  120A  158A  	fcall	_DIO_SetPinDirection
  4542  0E3B                     l2664:
  4543                           
  4544                           ;I2C_Prog.c: 28:     DIO_SetPinDirection(2 , 4 , 0) ;
  4545  0E3B  3004               	movlw	4
  4546  0E3C  00FF               	movwf	btemp+1
  4547  0E3D  087F               	movf	btemp+1,w
  4548  0E3E  1283               	bcf	3,5	;RP0=0, select bank0
  4549  0E3F  1303               	bcf	3,6	;RP1=0, select bank0
  4550  0E40  00BE               	movwf	DIO_SetPinDirection@u8PinIdCopy
  4551  0E41  01BF               	clrf	DIO_SetPinDirection@u8PinDirCopy
  4552  0E42  3002               	movlw	2
  4553  0E43  120A  118A  2100  120A  158A  	fcall	_DIO_SetPinDirection
  4554  0E48                     l268:
  4555  0E48  0008               	return
  4556  0E49                     __end_of_I2C_Init:
  4557                           
  4558                           	psect	text37
  4559  0D70                     __ptext37:	
  4560 ;; *************** function _Heater_Init *****************
  4561 ;; Defined at:
  4562 ;;		line 274 in file "APP_Program.c"
  4563 ;; Parameters:    Size  Location     Type
  4564 ;;		None
  4565 ;; Auto vars:     Size  Location     Type
  4566 ;;		None
  4567 ;; Return value:  Size  Location     Type
  4568 ;;                  1    wreg      void 
  4569 ;; Registers used:
  4570 ;;		wreg, fsr0l, fsr0h, status,2, status,0, btemp+1, pclath, cstack
  4571 ;; Tracked objects:
  4572 ;;		On entry : 0/0
  4573 ;;		On exit  : 0/0
  4574 ;;		Unchanged: 0/0
  4575 ;; Data sizes:     COMMON   BANK0   BANK1   BANK3   BANK2
  4576 ;;      Params:         0       0       0       0       0
  4577 ;;      Locals:         0       0       0       0       0
  4578 ;;      Temps:          0       0       0       0       0
  4579 ;;      Totals:         0       0       0       0       0
  4580 ;;Total ram usage:        0 bytes
  4581 ;; Hardware stack levels used:    1
  4582 ;; Hardware stack levels required when called:    7
  4583 ;; This function calls:
  4584 ;;		_DIO_SetPinDirection
  4585 ;;		_DIO_SetPinValue
  4586 ;; This function is called by:
  4587 ;;		_main
  4588 ;; This function uses a non-reentrant model
  4589 ;;
  4590                           
  4591                           
  4592                           ;psect for function _Heater_Init
  4593  0D70                     _Heater_Init:
  4594  0D70                     l2564:	
  4595                           ;incstack = 0
  4596                           ; Regs used in _Heater_Init: [wreg-fsr0h+status,2+status,0+btemp+1+pclath+cstack]
  4597                           
  4598                           
  4599                           ;APP_Program.c: 276:     DIO_SetPinDirection ( 2 , 5 , 1 ) ;
  4600  0D70  3005               	movlw	5
  4601  0D71  00FF               	movwf	btemp+1
  4602  0D72  087F               	movf	btemp+1,w
  4603  0D73  1283               	bcf	3,5	;RP0=0, select bank0
  4604  0D74  1303               	bcf	3,6	;RP1=0, select bank0
  4605  0D75  00BE               	movwf	DIO_SetPinDirection@u8PinIdCopy
  4606  0D76  01BF               	clrf	DIO_SetPinDirection@u8PinDirCopy
  4607  0D77  0ABF               	incf	DIO_SetPinDirection@u8PinDirCopy,f
  4608  0D78  3002               	movlw	2
  4609  0D79  120A  118A  2100  120A  158A  	fcall	_DIO_SetPinDirection
  4610                           
  4611                           ;APP_Program.c: 277:     DIO_SetPinValue ( 2 , 5 , 0 ) ;
  4612  0D7E  3005               	movlw	5
  4613  0D7F  00FF               	movwf	btemp+1
  4614  0D80  087F               	movf	btemp+1,w
  4615  0D81  1283               	bcf	3,5	;RP0=0, select bank0
  4616  0D82  1303               	bcf	3,6	;RP1=0, select bank0
  4617  0D83  00BE               	movwf	DIO_SetPinValue@u8PinIdCopy
  4618  0D84  01BF               	clrf	DIO_SetPinValue@u8PinValCopy
  4619  0D85  3002               	movlw	2
  4620  0D86  120A  118A  2296  120A  158A  	fcall	_DIO_SetPinValue
  4621  0D8B                     l120:
  4622  0D8B  0008               	return
  4623  0D8C                     __end_of_Heater_Init:
  4624                           
  4625                           	psect	text38
  4626  0F67                     __ptext38:	
  4627 ;; *************** function _EXT_INT_Init *****************
  4628 ;; Defined at:
  4629 ;;		line 66 in file "EXT_INT_Prog.c"
  4630 ;; Parameters:    Size  Location     Type
  4631 ;;		None
  4632 ;; Auto vars:     Size  Location     Type
  4633 ;;		None
  4634 ;; Return value:  Size  Location     Type
  4635 ;;                  1    wreg      void 
  4636 ;; Registers used:
  4637 ;;		wreg, fsr0l, fsr0h, status,2, status,0, btemp+1, pclath, cstack
  4638 ;; Tracked objects:
  4639 ;;		On entry : 0/0
  4640 ;;		On exit  : 0/0
  4641 ;;		Unchanged: 0/0
  4642 ;; Data sizes:     COMMON   BANK0   BANK1   BANK3   BANK2
  4643 ;;      Params:         0       0       0       0       0
  4644 ;;      Locals:         0       0       0       0       0
  4645 ;;      Temps:          0       0       0       0       0
  4646 ;;      Totals:         0       0       0       0       0
  4647 ;;Total ram usage:        0 bytes
  4648 ;; Hardware stack levels used:    1
  4649 ;; Hardware stack levels required when called:    7
  4650 ;; This function calls:
  4651 ;;		_DIO_SetPinDirection
  4652 ;; This function is called by:
  4653 ;;		_main
  4654 ;; This function uses a non-reentrant model
  4655 ;;
  4656                           
  4657                           
  4658                           ;psect for function _EXT_INT_Init
  4659  0F67                     _EXT_INT_Init:
  4660  0F67                     l2646:	
  4661                           ;incstack = 0
  4662                           ; Regs used in _EXT_INT_Init: [wreg-fsr0h+status,2+status,0+btemp+1+pclath+cstack]
  4663                           
  4664                           
  4665                           ;EXT_INT_Prog.c: 68:     DIO_SetPinDirection ( 1 , 0 , 0 ) ;
  4666  0F67  1283               	bcf	3,5	;RP0=0, select bank0
  4667  0F68  1303               	bcf	3,6	;RP1=0, select bank0
  4668  0F69  01BE               	clrf	DIO_SetPinDirection@u8PinIdCopy
  4669  0F6A  01BF               	clrf	DIO_SetPinDirection@u8PinDirCopy
  4670  0F6B  3001               	movlw	1
  4671  0F6C  120A  118A  2100  120A  158A  	fcall	_DIO_SetPinDirection
  4672                           
  4673                           ;EXT_INT_Prog.c: 69:     DIO_SetPinDirection ( 1 , 4 , 0 ) ;
  4674  0F71  3004               	movlw	4
  4675  0F72  00FF               	movwf	btemp+1
  4676  0F73  087F               	movf	btemp+1,w
  4677  0F74  1283               	bcf	3,5	;RP0=0, select bank0
  4678  0F75  1303               	bcf	3,6	;RP1=0, select bank0
  4679  0F76  00BE               	movwf	DIO_SetPinDirection@u8PinIdCopy
  4680  0F77  01BF               	clrf	DIO_SetPinDirection@u8PinDirCopy
  4681  0F78  3001               	movlw	1
  4682  0F79  120A  118A  2100  120A  158A  	fcall	_DIO_SetPinDirection
  4683                           
  4684                           ;EXT_INT_Prog.c: 70:     DIO_SetPinDirection ( 1 , 5 , 0 ) ;
  4685  0F7E  3005               	movlw	5
  4686  0F7F  00FF               	movwf	btemp+1
  4687  0F80  087F               	movf	btemp+1,w
  4688  0F81  1283               	bcf	3,5	;RP0=0, select bank0
  4689  0F82  1303               	bcf	3,6	;RP1=0, select bank0
  4690  0F83  00BE               	movwf	DIO_SetPinDirection@u8PinIdCopy
  4691  0F84  01BF               	clrf	DIO_SetPinDirection@u8PinDirCopy
  4692  0F85  3001               	movlw	1
  4693  0F86  120A  118A  2100  120A  158A  	fcall	_DIO_SetPinDirection
  4694  0F8B                     l2648:
  4695                           
  4696                           ;EXT_INT_Prog.c: 72:     ((*((volatile u8*)0x81))) &= ~(1 << (7)) ;
  4697  0F8B  307F               	movlw	127
  4698  0F8C  00FF               	movwf	btemp+1
  4699  0F8D  087F               	movf	btemp+1,w
  4700  0F8E  1683               	bsf	3,5	;RP0=1, select bank1
  4701  0F8F  1303               	bcf	3,6	;RP1=0, select bank1
  4702  0F90  0581               	andwf	1,f	;volatile
  4703  0F91                     l2650:
  4704                           
  4705                           ;EXT_INT_Prog.c: 74:     ((*((volatile u8*)0x81))) &= ~(1 << (6)) ;
  4706  0F91  30BF               	movlw	191
  4707  0F92  00FF               	movwf	btemp+1
  4708  0F93  087F               	movf	btemp+1,w
  4709  0F94  0581               	andwf	1,f	;volatile
  4710  0F95                     l2652:
  4711                           
  4712                           ;EXT_INT_Prog.c: 75:     ((*((volatile u8*)0x0B))) |= (1 << (4)) ;
  4713  0F95  160B               	bsf	11,4	;volatile
  4714  0F96                     l2654:
  4715                           
  4716                           ;EXT_INT_Prog.c: 76:     ((*((volatile u8*)0x0B))) |= (1 << (3)) ;
  4717  0F96  158B               	bsf	11,3	;volatile
  4718  0F97                     l2656:
  4719                           
  4720                           ;EXT_INT_Prog.c: 77:     ((*((volatile u8*)0x0B))) |= (1 << (7)) ;
  4721  0F97  178B               	bsf	11,7	;volatile
  4722  0F98                     l234:
  4723  0F98  0008               	return
  4724  0F99                     __end_of_EXT_INT_Init:
  4725                           
  4726                           	psect	text39
  4727  0D54                     __ptext39:	
  4728 ;; *************** function _Cooler_Init *****************
  4729 ;; Defined at:
  4730 ;;		line 248 in file "APP_Program.c"
  4731 ;; Parameters:    Size  Location     Type
  4732 ;;		None
  4733 ;; Auto vars:     Size  Location     Type
  4734 ;;		None
  4735 ;; Return value:  Size  Location     Type
  4736 ;;                  1    wreg      void 
  4737 ;; Registers used:
  4738 ;;		wreg, fsr0l, fsr0h, status,2, status,0, btemp+1, pclath, cstack
  4739 ;; Tracked objects:
  4740 ;;		On entry : 0/0
  4741 ;;		On exit  : 0/0
  4742 ;;		Unchanged: 0/0
  4743 ;; Data sizes:     COMMON   BANK0   BANK1   BANK3   BANK2
  4744 ;;      Params:         0       0       0       0       0
  4745 ;;      Locals:         0       0       0       0       0
  4746 ;;      Temps:          0       0       0       0       0
  4747 ;;      Totals:         0       0       0       0       0
  4748 ;;Total ram usage:        0 bytes
  4749 ;; Hardware stack levels used:    1
  4750 ;; Hardware stack levels required when called:    7
  4751 ;; This function calls:
  4752 ;;		_DIO_SetPinDirection
  4753 ;;		_DIO_SetPinValue
  4754 ;; This function is called by:
  4755 ;;		_main
  4756 ;; This function uses a non-reentrant model
  4757 ;;
  4758                           
  4759                           
  4760                           ;psect for function _Cooler_Init
  4761  0D54                     _Cooler_Init:
  4762  0D54                     l2562:	
  4763                           ;incstack = 0
  4764                           ; Regs used in _Cooler_Init: [wreg-fsr0h+status,2+status,0+btemp+1+pclath+cstack]
  4765                           
  4766                           
  4767                           ;APP_Program.c: 250:     DIO_SetPinDirection ( 2 , 2 , 1 ) ;
  4768  0D54  3002               	movlw	2
  4769  0D55  00FF               	movwf	btemp+1
  4770  0D56  087F               	movf	btemp+1,w
  4771  0D57  1283               	bcf	3,5	;RP0=0, select bank0
  4772  0D58  1303               	bcf	3,6	;RP1=0, select bank0
  4773  0D59  00BE               	movwf	DIO_SetPinDirection@u8PinIdCopy
  4774  0D5A  01BF               	clrf	DIO_SetPinDirection@u8PinDirCopy
  4775  0D5B  0ABF               	incf	DIO_SetPinDirection@u8PinDirCopy,f
  4776  0D5C  3002               	movlw	2
  4777  0D5D  120A  118A  2100  120A  158A  	fcall	_DIO_SetPinDirection
  4778                           
  4779                           ;APP_Program.c: 251:     DIO_SetPinValue ( 2 , 2 , 0 ) ;
  4780  0D62  3002               	movlw	2
  4781  0D63  00FF               	movwf	btemp+1
  4782  0D64  087F               	movf	btemp+1,w
  4783  0D65  1283               	bcf	3,5	;RP0=0, select bank0
  4784  0D66  1303               	bcf	3,6	;RP1=0, select bank0
  4785  0D67  00BE               	movwf	DIO_SetPinValue@u8PinIdCopy
  4786  0D68  01BF               	clrf	DIO_SetPinValue@u8PinValCopy
  4787  0D69  3002               	movlw	2
  4788  0D6A  120A  118A  2296  120A  158A  	fcall	_DIO_SetPinValue
  4789  0D6F                     l111:
  4790  0D6F  0008               	return
  4791  0D70                     __end_of_Cooler_Init:
  4792                           
  4793                           	psect	text40
  4794  0296                     __ptext40:	
  4795 ;; *************** function _DIO_SetPinValue *****************
  4796 ;; Defined at:
  4797 ;;		line 61 in file "DIO_Prog.c"
  4798 ;; Parameters:    Size  Location     Type
  4799 ;;  u8PortIdCopy    1    wreg     unsigned char 
  4800 ;;  u8PinIdCopy     1    5[BANK0 ] unsigned char 
  4801 ;;  u8PinValCopy    1    6[BANK0 ] unsigned char 
  4802 ;; Auto vars:     Size  Location     Type
  4803 ;;  u8PortIdCopy    1    9[BANK0 ] unsigned char 
  4804 ;; Return value:  Size  Location     Type
  4805 ;;                  1    wreg      void 
  4806 ;; Registers used:
  4807 ;;		wreg, fsr0l, fsr0h, status,2, status,0, btemp+1
  4808 ;; Tracked objects:
  4809 ;;		On entry : 0/0
  4810 ;;		On exit  : 0/0
  4811 ;;		Unchanged: 0/0
  4812 ;; Data sizes:     COMMON   BANK0   BANK1   BANK3   BANK2
  4813 ;;      Params:         0       2       0       0       0
  4814 ;;      Locals:         0       1       0       0       0
  4815 ;;      Temps:          0       2       0       0       0
  4816 ;;      Totals:         0       5       0       0       0
  4817 ;;Total ram usage:        5 bytes
  4818 ;; Hardware stack levels used:    1
  4819 ;; Hardware stack levels required when called:    6
  4820 ;; This function calls:
  4821 ;;		Nothing
  4822 ;; This function is called by:
  4823 ;;		_Cooler_Init
  4824 ;;		_Cooler_TurnOn
  4825 ;;		_Cooler_TurnOff
  4826 ;;		_Heater_Init
  4827 ;;		_Heater_TurnOn
  4828 ;;		_Heater_TurnOff
  4829 ;;		_vid_7_Segment_Init
  4830 ;;		_vid_7_Segment_DeInit
  4831 ;;		_vid_Left_7_Segment_DisplayNumber
  4832 ;;		_vid_Right_7_Segment_DisplayNumber
  4833 ;;		_vid_7_Segment_Display_2Digits
  4834 ;; This function uses a non-reentrant model
  4835 ;;
  4836                           
  4837                           
  4838                           ;psect for function _DIO_SetPinValue
  4839  0296                     _DIO_SetPinValue:
  4840                           
  4841                           ;incstack = 0
  4842                           ; Regs used in _DIO_SetPinValue: [wreg-fsr0h+status,2+status,0+btemp+1]
  4843                           ;DIO_SetPinValue@u8PortIdCopy stored from wreg
  4844  0296  1283               	bcf	3,5	;RP0=0, select bank0
  4845  0297  1303               	bcf	3,6	;RP1=0, select bank0
  4846  0298  00C2               	movwf	DIO_SetPinValue@u8PortIdCopy
  4847  0299                     l2006:
  4848                           
  4849                           ;DIO_Prog.c: 61: void DIO_SetPinValue(u8 u8PortIdCopy , u8 u8PinIdCopy, u8 u8PinValCopy)
      +                          ;DIO_Prog.c: 62: {;DIO_Prog.c: 64:  if ((u8PortIdCopy <= 3) && (u8PinIdCopy <= 7))
  4850  0299  3004               	movlw	4
  4851  029A  0242               	subwf	DIO_SetPinValue@u8PortIdCopy,w
  4852  029B  1803               	skipnc
  4853  029C  2A9E               	goto	u1161
  4854  029D  2A9F               	goto	u1160
  4855  029E                     u1161:
  4856  029E  2B51               	goto	l181
  4857  029F                     u1160:
  4858  029F                     l2008:
  4859  029F  3008               	movlw	8
  4860  02A0  023E               	subwf	DIO_SetPinValue@u8PinIdCopy,w
  4861  02A1  1803               	skipnc
  4862  02A2  2AA4               	goto	u1171
  4863  02A3  2AA5               	goto	u1170
  4864  02A4                     u1171:
  4865  02A4  2B51               	goto	l181
  4866  02A5                     u1170:
  4867  02A5                     l2010:
  4868                           
  4869                           ;DIO_Prog.c: 65:  {;DIO_Prog.c: 66:   if (u8PinValCopy == 1)
  4870  02A5  033F               	decf	DIO_SetPinValue@u8PinValCopy,w
  4871  02A6  1D03               	btfss	3,2
  4872  02A7  2AA9               	goto	u1181
  4873  02A8  2AAA               	goto	u1180
  4874  02A9                     u1181:
  4875  02A9  2AF9               	goto	l2026
  4876  02AA                     u1180:
  4877  02AA  2AE3               	goto	l2024
  4878  02AB                     l2014:
  4879  02AB  3001               	movlw	1
  4880  02AC  00C0               	movwf	??_DIO_SetPinValue
  4881  02AD  0A3E               	incf	DIO_SetPinValue@u8PinIdCopy,w
  4882  02AE  2AB1               	goto	u1194
  4883  02AF                     u1195:
  4884  02AF  1003               	clrc
  4885  02B0  0DC0               	rlf	??_DIO_SetPinValue,f
  4886  02B1                     u1194:
  4887  02B1  3EFF               	addlw	-1
  4888  02B2  1D03               	skipz
  4889  02B3  2AAF               	goto	u1195
  4890  02B4  0840               	movf	??_DIO_SetPinValue,w
  4891  02B5  00FF               	movwf	btemp+1
  4892  02B6  087F               	movf	btemp+1,w
  4893  02B7  0485               	iorwf	5,f	;volatile
  4894  02B8  2B51               	goto	l181
  4895  02B9                     l2016:
  4896  02B9  3001               	movlw	1
  4897  02BA  00C0               	movwf	??_DIO_SetPinValue
  4898  02BB  0A3E               	incf	DIO_SetPinValue@u8PinIdCopy,w
  4899  02BC  2ABF               	goto	u1204
  4900  02BD                     u1205:
  4901  02BD  1003               	clrc
  4902  02BE  0DC0               	rlf	??_DIO_SetPinValue,f
  4903  02BF                     u1204:
  4904  02BF  3EFF               	addlw	-1
  4905  02C0  1D03               	skipz
  4906  02C1  2ABD               	goto	u1205
  4907  02C2  0840               	movf	??_DIO_SetPinValue,w
  4908  02C3  00FF               	movwf	btemp+1
  4909  02C4  087F               	movf	btemp+1,w
  4910  02C5  0486               	iorwf	6,f	;volatile
  4911  02C6  2B51               	goto	l181
  4912  02C7                     l2018:
  4913  02C7  3001               	movlw	1
  4914  02C8  00C0               	movwf	??_DIO_SetPinValue
  4915  02C9  0A3E               	incf	DIO_SetPinValue@u8PinIdCopy,w
  4916  02CA  2ACD               	goto	u1214
  4917  02CB                     u1215:
  4918  02CB  1003               	clrc
  4919  02CC  0DC0               	rlf	??_DIO_SetPinValue,f
  4920  02CD                     u1214:
  4921  02CD  3EFF               	addlw	-1
  4922  02CE  1D03               	skipz
  4923  02CF  2ACB               	goto	u1215
  4924  02D0  0840               	movf	??_DIO_SetPinValue,w
  4925  02D1  00FF               	movwf	btemp+1
  4926  02D2  087F               	movf	btemp+1,w
  4927  02D3  0487               	iorwf	7,f	;volatile
  4928  02D4  2B51               	goto	l181
  4929  02D5                     l2020:
  4930  02D5  3001               	movlw	1
  4931  02D6  00C0               	movwf	??_DIO_SetPinValue
  4932  02D7  0A3E               	incf	DIO_SetPinValue@u8PinIdCopy,w
  4933  02D8  2ADB               	goto	u1224
  4934  02D9                     u1225:
  4935  02D9  1003               	clrc
  4936  02DA  0DC0               	rlf	??_DIO_SetPinValue,f
  4937  02DB                     u1224:
  4938  02DB  3EFF               	addlw	-1
  4939  02DC  1D03               	skipz
  4940  02DD  2AD9               	goto	u1225
  4941  02DE  0840               	movf	??_DIO_SetPinValue,w
  4942  02DF  00FF               	movwf	btemp+1
  4943  02E0  087F               	movf	btemp+1,w
  4944  02E1  0488               	iorwf	8,f	;volatile
  4945  02E2  2B51               	goto	l181
  4946  02E3                     l2024:
  4947  02E3  0842               	movf	DIO_SetPinValue@u8PortIdCopy,w
  4948  02E4  00C0               	movwf	??_DIO_SetPinValue
  4949  02E5  01C1               	clrf	??_DIO_SetPinValue+1
  4950                           
  4951                           ; Switch on 2 bytes has been partitioned into a top level switch of size 1, and 1 sub-sw
      +                          itches
  4952                           ; Switch size 1, requested type "simple"
  4953                           ; Number of cases is 1, Range of values is 0 to 0
  4954                           ; switch strategies available:
  4955                           ; Name         Instructions Cycles
  4956                           ; simple_byte            4     3 (average)
  4957                           ; direct_byte           11     8 (fixed)
  4958                           ; jumptable            260     6 (fixed)
  4959                           ;	Chosen strategy is simple_byte
  4960  02E6  0841               	movf	??_DIO_SetPinValue+1,w
  4961  02E7  3A00               	xorlw	0	; case 0
  4962  02E8  1903               	skipnz
  4963  02E9  2AEB               	goto	l3518
  4964  02EA  2B51               	goto	l181
  4965  02EB                     l3518:
  4966                           
  4967                           ; Switch size 1, requested type "simple"
  4968                           ; Number of cases is 4, Range of values is 0 to 3
  4969                           ; switch strategies available:
  4970                           ; Name         Instructions Cycles
  4971                           ; simple_byte           13     7 (average)
  4972                           ; direct_byte           20     8 (fixed)
  4973                           ; jumptable            260     6 (fixed)
  4974                           ;	Chosen strategy is simple_byte
  4975  02EB  0840               	movf	??_DIO_SetPinValue,w
  4976  02EC  3A00               	xorlw	0	; case 0
  4977  02ED  1903               	skipnz
  4978  02EE  2AAB               	goto	l2014
  4979  02EF  3A01               	xorlw	1	; case 1
  4980  02F0  1903               	skipnz
  4981  02F1  2AB9               	goto	l2016
  4982  02F2  3A03               	xorlw	3	; case 2
  4983  02F3  1903               	skipnz
  4984  02F4  2AC7               	goto	l2018
  4985  02F5  3A01               	xorlw	1	; case 3
  4986  02F6  1903               	skipnz
  4987  02F7  2AD5               	goto	l2020
  4988  02F8  2B51               	goto	l181
  4989  02F9                     l2026:
  4990  02F9  083F               	movf	DIO_SetPinValue@u8PinValCopy,w
  4991  02FA  1D03               	btfss	3,2
  4992  02FB  2AFD               	goto	u1231
  4993  02FC  2AFE               	goto	u1230
  4994  02FD                     u1231:
  4995  02FD  2B51               	goto	l171
  4996  02FE                     u1230:
  4997  02FE  2B3B               	goto	l2040
  4998  02FF                     l2030:
  4999  02FF  3001               	movlw	1
  5000  0300  00C0               	movwf	??_DIO_SetPinValue
  5001  0301  0A3E               	incf	DIO_SetPinValue@u8PinIdCopy,w
  5002  0302  2B05               	goto	u1244
  5003  0303                     u1245:
  5004  0303  1003               	clrc
  5005  0304  0DC0               	rlf	??_DIO_SetPinValue,f
  5006  0305                     u1244:
  5007  0305  3EFF               	addlw	-1
  5008  0306  1D03               	skipz
  5009  0307  2B03               	goto	u1245
  5010  0308  0840               	movf	??_DIO_SetPinValue,w
  5011  0309  3AFF               	xorlw	255
  5012  030A  00FF               	movwf	btemp+1
  5013  030B  087F               	movf	btemp+1,w
  5014  030C  0585               	andwf	5,f	;volatile
  5015  030D  2B51               	goto	l181
  5016  030E                     l2032:
  5017  030E  3001               	movlw	1
  5018  030F  00C0               	movwf	??_DIO_SetPinValue
  5019  0310  0A3E               	incf	DIO_SetPinValue@u8PinIdCopy,w
  5020  0311  2B14               	goto	u1254
  5021  0312                     u1255:
  5022  0312  1003               	clrc
  5023  0313  0DC0               	rlf	??_DIO_SetPinValue,f
  5024  0314                     u1254:
  5025  0314  3EFF               	addlw	-1
  5026  0315  1D03               	skipz
  5027  0316  2B12               	goto	u1255
  5028  0317  0840               	movf	??_DIO_SetPinValue,w
  5029  0318  3AFF               	xorlw	255
  5030  0319  00FF               	movwf	btemp+1
  5031  031A  087F               	movf	btemp+1,w
  5032  031B  0586               	andwf	6,f	;volatile
  5033  031C  2B51               	goto	l181
  5034  031D                     l2034:
  5035  031D  3001               	movlw	1
  5036  031E  00C0               	movwf	??_DIO_SetPinValue
  5037  031F  0A3E               	incf	DIO_SetPinValue@u8PinIdCopy,w
  5038  0320  2B23               	goto	u1264
  5039  0321                     u1265:
  5040  0321  1003               	clrc
  5041  0322  0DC0               	rlf	??_DIO_SetPinValue,f
  5042  0323                     u1264:
  5043  0323  3EFF               	addlw	-1
  5044  0324  1D03               	skipz
  5045  0325  2B21               	goto	u1265
  5046  0326  0840               	movf	??_DIO_SetPinValue,w
  5047  0327  3AFF               	xorlw	255
  5048  0328  00FF               	movwf	btemp+1
  5049  0329  087F               	movf	btemp+1,w
  5050  032A  0587               	andwf	7,f	;volatile
  5051  032B  2B51               	goto	l181
  5052  032C                     l2036:
  5053  032C  3001               	movlw	1
  5054  032D  00C0               	movwf	??_DIO_SetPinValue
  5055  032E  0A3E               	incf	DIO_SetPinValue@u8PinIdCopy,w
  5056  032F  2B32               	goto	u1274
  5057  0330                     u1275:
  5058  0330  1003               	clrc
  5059  0331  0DC0               	rlf	??_DIO_SetPinValue,f
  5060  0332                     u1274:
  5061  0332  3EFF               	addlw	-1
  5062  0333  1D03               	skipz
  5063  0334  2B30               	goto	u1275
  5064  0335  0840               	movf	??_DIO_SetPinValue,w
  5065  0336  3AFF               	xorlw	255
  5066  0337  00FF               	movwf	btemp+1
  5067  0338  087F               	movf	btemp+1,w
  5068  0339  0588               	andwf	8,f	;volatile
  5069  033A  2B51               	goto	l181
  5070  033B                     l2040:
  5071  033B  0842               	movf	DIO_SetPinValue@u8PortIdCopy,w
  5072  033C  00C0               	movwf	??_DIO_SetPinValue
  5073  033D  01C1               	clrf	??_DIO_SetPinValue+1
  5074                           
  5075                           ; Switch on 2 bytes has been partitioned into a top level switch of size 1, and 1 sub-sw
      +                          itches
  5076                           ; Switch size 1, requested type "simple"
  5077                           ; Number of cases is 1, Range of values is 0 to 0
  5078                           ; switch strategies available:
  5079                           ; Name         Instructions Cycles
  5080                           ; simple_byte            4     3 (average)
  5081                           ; direct_byte           11     8 (fixed)
  5082                           ; jumptable            260     6 (fixed)
  5083                           ;	Chosen strategy is simple_byte
  5084  033E  0841               	movf	??_DIO_SetPinValue+1,w
  5085  033F  3A00               	xorlw	0	; case 0
  5086  0340  1903               	skipnz
  5087  0341  2B43               	goto	l3520
  5088  0342  2B51               	goto	l171
  5089  0343                     l3520:
  5090                           
  5091                           ; Switch size 1, requested type "simple"
  5092                           ; Number of cases is 4, Range of values is 0 to 3
  5093                           ; switch strategies available:
  5094                           ; Name         Instructions Cycles
  5095                           ; simple_byte           13     7 (average)
  5096                           ; direct_byte           20     8 (fixed)
  5097                           ; jumptable            260     6 (fixed)
  5098                           ;	Chosen strategy is simple_byte
  5099  0343  0840               	movf	??_DIO_SetPinValue,w
  5100  0344  3A00               	xorlw	0	; case 0
  5101  0345  1903               	skipnz
  5102  0346  2AFF               	goto	l2030
  5103  0347  3A01               	xorlw	1	; case 1
  5104  0348  1903               	skipnz
  5105  0349  2B0E               	goto	l2032
  5106  034A  3A03               	xorlw	3	; case 2
  5107  034B  1903               	skipnz
  5108  034C  2B1D               	goto	l2034
  5109  034D  3A01               	xorlw	1	; case 3
  5110  034E  1903               	skipnz
  5111  034F  2B2C               	goto	l2036
  5112  0350  2B51               	goto	l171
  5113  0351                     l171:
  5114  0351                     l181:	
  5115                           ;DIO_Prog.c: 95:  }
  5116                           
  5117  0351  0008               	return
  5118  0352                     __end_of_DIO_SetPinValue:
  5119                           
  5120                           	psect	text41
  5121  0100                     __ptext41:	
  5122 ;; *************** function _DIO_SetPinDirection *****************
  5123 ;; Defined at:
  5124 ;;		line 17 in file "DIO_Prog.c"
  5125 ;; Parameters:    Size  Location     Type
  5126 ;;  u8PortIdCopy    1    wreg     unsigned char 
  5127 ;;  u8PinIdCopy     1    5[BANK0 ] unsigned char 
  5128 ;;  u8PinDirCopy    1    6[BANK0 ] unsigned char 
  5129 ;; Auto vars:     Size  Location     Type
  5130 ;;  u8PortIdCopy    1    9[BANK0 ] unsigned char 
  5131 ;; Return value:  Size  Location     Type
  5132 ;;                  1    wreg      void 
  5133 ;; Registers used:
  5134 ;;		wreg, fsr0l, fsr0h, status,2, status,0, btemp+1
  5135 ;; Tracked objects:
  5136 ;;		On entry : 0/0
  5137 ;;		On exit  : 0/0
  5138 ;;		Unchanged: 0/0
  5139 ;; Data sizes:     COMMON   BANK0   BANK1   BANK3   BANK2
  5140 ;;      Params:         0       2       0       0       0
  5141 ;;      Locals:         0       1       0       0       0
  5142 ;;      Temps:          0       2       0       0       0
  5143 ;;      Totals:         0       5       0       0       0
  5144 ;;Total ram usage:        5 bytes
  5145 ;; Hardware stack levels used:    1
  5146 ;; Hardware stack levels required when called:    6
  5147 ;; This function calls:
  5148 ;;		Nothing
  5149 ;; This function is called by:
  5150 ;;		_Cooler_Init
  5151 ;;		_Heater_Init
  5152 ;;		_TempSensor_Init
  5153 ;;		_EXT_INT_Init
  5154 ;;		_I2C_Init
  5155 ;;		_vid_7_Segment_Init
  5156 ;; This function uses a non-reentrant model
  5157 ;;
  5158                           
  5159                           
  5160                           ;psect for function _DIO_SetPinDirection
  5161  0100                     _DIO_SetPinDirection:
  5162                           
  5163                           ;incstack = 0
  5164                           ; Regs used in _DIO_SetPinDirection: [wreg-fsr0h+status,2+status,0+btemp+1]
  5165                           ;DIO_SetPinDirection@u8PortIdCopy stored from wreg
  5166  0100  1283               	bcf	3,5	;RP0=0, select bank0
  5167  0101  1303               	bcf	3,6	;RP1=0, select bank0
  5168  0102  00C2               	movwf	DIO_SetPinDirection@u8PortIdCopy
  5169  0103                     l2340:
  5170                           
  5171                           ;DIO_Prog.c: 17: void DIO_SetPinDirection (u8 u8PortIdCopy, u8 u8PinIdCopy, u8 u8PinDirC
      +                          opy);DIO_Prog.c: 18: {;DIO_Prog.c: 20:  if ((u8PortIdCopy <= 3) && (u8PinIdCopy <= 7))
  5172  0103  3004               	movlw	4
  5173  0104  0242               	subwf	DIO_SetPinDirection@u8PortIdCopy,w
  5174  0105  1803               	skipnc
  5175  0106  2908               	goto	u1691
  5176  0107  2909               	goto	u1690
  5177  0108                     u1691:
  5178  0108  29CB               	goto	l160
  5179  0109                     u1690:
  5180  0109                     l2342:
  5181  0109  3008               	movlw	8
  5182  010A  023E               	subwf	DIO_SetPinDirection@u8PinIdCopy,w
  5183  010B  1803               	skipnc
  5184  010C  290E               	goto	u1701
  5185  010D  290F               	goto	u1700
  5186  010E                     u1701:
  5187  010E  29CB               	goto	l160
  5188  010F                     u1700:
  5189  010F                     l2344:
  5190                           
  5191                           ;DIO_Prog.c: 21:  {;DIO_Prog.c: 22:   if ( u8PinDirCopy == 1 )
  5192  010F  033F               	decf	DIO_SetPinDirection@u8PinDirCopy,w
  5193  0110  1D03               	btfss	3,2
  5194  0111  2913               	goto	u1711
  5195  0112  2914               	goto	u1710
  5196  0113                     u1711:
  5197  0113  296F               	goto	l2360
  5198  0114                     u1710:
  5199  0114  2959               	goto	l2358
  5200  0115                     l2348:
  5201  0115  3001               	movlw	1
  5202  0116  00C0               	movwf	??_DIO_SetPinDirection
  5203  0117  0A3E               	incf	DIO_SetPinDirection@u8PinIdCopy,w
  5204  0118  291B               	goto	u1724
  5205  0119                     u1725:
  5206  0119  1003               	clrc
  5207  011A  0DC0               	rlf	??_DIO_SetPinDirection,f
  5208  011B                     u1724:
  5209  011B  3EFF               	addlw	-1
  5210  011C  1D03               	skipz
  5211  011D  2919               	goto	u1725
  5212  011E  0840               	movf	??_DIO_SetPinDirection,w
  5213  011F  3AFF               	xorlw	255
  5214  0120  00FF               	movwf	btemp+1
  5215  0121  087F               	movf	btemp+1,w
  5216  0122  1683               	bsf	3,5	;RP0=1, select bank1
  5217  0123  1303               	bcf	3,6	;RP1=0, select bank1
  5218  0124  0585               	andwf	5,f	;volatile
  5219  0125  29CB               	goto	l160
  5220  0126                     l2350:
  5221  0126  3001               	movlw	1
  5222  0127  00C0               	movwf	??_DIO_SetPinDirection
  5223  0128  0A3E               	incf	DIO_SetPinDirection@u8PinIdCopy,w
  5224  0129  292C               	goto	u1734
  5225  012A                     u1735:
  5226  012A  1003               	clrc
  5227  012B  0DC0               	rlf	??_DIO_SetPinDirection,f
  5228  012C                     u1734:
  5229  012C  3EFF               	addlw	-1
  5230  012D  1D03               	skipz
  5231  012E  292A               	goto	u1735
  5232  012F  0840               	movf	??_DIO_SetPinDirection,w
  5233  0130  3AFF               	xorlw	255
  5234  0131  00FF               	movwf	btemp+1
  5235  0132  087F               	movf	btemp+1,w
  5236  0133  1683               	bsf	3,5	;RP0=1, select bank1
  5237  0134  1303               	bcf	3,6	;RP1=0, select bank1
  5238  0135  0586               	andwf	6,f	;volatile
  5239  0136  29CB               	goto	l160
  5240  0137                     l2352:
  5241  0137  3001               	movlw	1
  5242  0138  00C0               	movwf	??_DIO_SetPinDirection
  5243  0139  0A3E               	incf	DIO_SetPinDirection@u8PinIdCopy,w
  5244  013A  293D               	goto	u1744
  5245  013B                     u1745:
  5246  013B  1003               	clrc
  5247  013C  0DC0               	rlf	??_DIO_SetPinDirection,f
  5248  013D                     u1744:
  5249  013D  3EFF               	addlw	-1
  5250  013E  1D03               	skipz
  5251  013F  293B               	goto	u1745
  5252  0140  0840               	movf	??_DIO_SetPinDirection,w
  5253  0141  3AFF               	xorlw	255
  5254  0142  00FF               	movwf	btemp+1
  5255  0143  087F               	movf	btemp+1,w
  5256  0144  1683               	bsf	3,5	;RP0=1, select bank1
  5257  0145  1303               	bcf	3,6	;RP1=0, select bank1
  5258  0146  0587               	andwf	7,f	;volatile
  5259  0147  29CB               	goto	l160
  5260  0148                     l2354:
  5261  0148  3001               	movlw	1
  5262  0149  00C0               	movwf	??_DIO_SetPinDirection
  5263  014A  0A3E               	incf	DIO_SetPinDirection@u8PinIdCopy,w
  5264  014B  294E               	goto	u1754
  5265  014C                     u1755:
  5266  014C  1003               	clrc
  5267  014D  0DC0               	rlf	??_DIO_SetPinDirection,f
  5268  014E                     u1754:
  5269  014E  3EFF               	addlw	-1
  5270  014F  1D03               	skipz
  5271  0150  294C               	goto	u1755
  5272  0151  0840               	movf	??_DIO_SetPinDirection,w
  5273  0152  3AFF               	xorlw	255
  5274  0153  00FF               	movwf	btemp+1
  5275  0154  087F               	movf	btemp+1,w
  5276  0155  1683               	bsf	3,5	;RP0=1, select bank1
  5277  0156  1303               	bcf	3,6	;RP1=0, select bank1
  5278  0157  0588               	andwf	8,f	;volatile
  5279  0158  29CB               	goto	l160
  5280  0159                     l2358:
  5281  0159  0842               	movf	DIO_SetPinDirection@u8PortIdCopy,w
  5282  015A  00C0               	movwf	??_DIO_SetPinDirection
  5283  015B  01C1               	clrf	??_DIO_SetPinDirection+1
  5284                           
  5285                           ; Switch on 2 bytes has been partitioned into a top level switch of size 1, and 1 sub-sw
      +                          itches
  5286                           ; Switch size 1, requested type "simple"
  5287                           ; Number of cases is 1, Range of values is 0 to 0
  5288                           ; switch strategies available:
  5289                           ; Name         Instructions Cycles
  5290                           ; simple_byte            4     3 (average)
  5291                           ; direct_byte           11     8 (fixed)
  5292                           ; jumptable            260     6 (fixed)
  5293                           ;	Chosen strategy is simple_byte
  5294  015C  0841               	movf	??_DIO_SetPinDirection+1,w
  5295  015D  3A00               	xorlw	0	; case 0
  5296  015E  1903               	skipnz
  5297  015F  2961               	goto	l3522
  5298  0160  29CB               	goto	l160
  5299  0161                     l3522:
  5300                           
  5301                           ; Switch size 1, requested type "simple"
  5302                           ; Number of cases is 4, Range of values is 0 to 3
  5303                           ; switch strategies available:
  5304                           ; Name         Instructions Cycles
  5305                           ; simple_byte           13     7 (average)
  5306                           ; direct_byte           20     8 (fixed)
  5307                           ; jumptable            260     6 (fixed)
  5308                           ;	Chosen strategy is simple_byte
  5309  0161  0840               	movf	??_DIO_SetPinDirection,w
  5310  0162  3A00               	xorlw	0	; case 0
  5311  0163  1903               	skipnz
  5312  0164  2915               	goto	l2348
  5313  0165  3A01               	xorlw	1	; case 1
  5314  0166  1903               	skipnz
  5315  0167  2926               	goto	l2350
  5316  0168  3A03               	xorlw	3	; case 2
  5317  0169  1903               	skipnz
  5318  016A  2937               	goto	l2352
  5319  016B  3A01               	xorlw	1	; case 3
  5320  016C  1903               	skipnz
  5321  016D  2948               	goto	l2354
  5322  016E  29CB               	goto	l160
  5323  016F                     l2360:
  5324  016F  083F               	movf	DIO_SetPinDirection@u8PinDirCopy,w
  5325  0170  1D03               	btfss	3,2
  5326  0171  2973               	goto	u1761
  5327  0172  2974               	goto	u1760
  5328  0173                     u1761:
  5329  0173  29CB               	goto	l150
  5330  0174                     u1760:
  5331  0174  29B5               	goto	l2374
  5332  0175                     l2364:
  5333  0175  3001               	movlw	1
  5334  0176  00C0               	movwf	??_DIO_SetPinDirection
  5335  0177  0A3E               	incf	DIO_SetPinDirection@u8PinIdCopy,w
  5336  0178  297B               	goto	u1774
  5337  0179                     u1775:
  5338  0179  1003               	clrc
  5339  017A  0DC0               	rlf	??_DIO_SetPinDirection,f
  5340  017B                     u1774:
  5341  017B  3EFF               	addlw	-1
  5342  017C  1D03               	skipz
  5343  017D  2979               	goto	u1775
  5344  017E  0840               	movf	??_DIO_SetPinDirection,w
  5345  017F  00FF               	movwf	btemp+1
  5346  0180  087F               	movf	btemp+1,w
  5347  0181  1683               	bsf	3,5	;RP0=1, select bank1
  5348  0182  1303               	bcf	3,6	;RP1=0, select bank1
  5349  0183  0485               	iorwf	5,f	;volatile
  5350  0184  29CB               	goto	l160
  5351  0185                     l2366:
  5352  0185  3001               	movlw	1
  5353  0186  00C0               	movwf	??_DIO_SetPinDirection
  5354  0187  0A3E               	incf	DIO_SetPinDirection@u8PinIdCopy,w
  5355  0188  298B               	goto	u1784
  5356  0189                     u1785:
  5357  0189  1003               	clrc
  5358  018A  0DC0               	rlf	??_DIO_SetPinDirection,f
  5359  018B                     u1784:
  5360  018B  3EFF               	addlw	-1
  5361  018C  1D03               	skipz
  5362  018D  2989               	goto	u1785
  5363  018E  0840               	movf	??_DIO_SetPinDirection,w
  5364  018F  00FF               	movwf	btemp+1
  5365  0190  087F               	movf	btemp+1,w
  5366  0191  1683               	bsf	3,5	;RP0=1, select bank1
  5367  0192  1303               	bcf	3,6	;RP1=0, select bank1
  5368  0193  0486               	iorwf	6,f	;volatile
  5369  0194  29CB               	goto	l160
  5370  0195                     l2368:
  5371  0195  3001               	movlw	1
  5372  0196  00C0               	movwf	??_DIO_SetPinDirection
  5373  0197  0A3E               	incf	DIO_SetPinDirection@u8PinIdCopy,w
  5374  0198  299B               	goto	u1794
  5375  0199                     u1795:
  5376  0199  1003               	clrc
  5377  019A  0DC0               	rlf	??_DIO_SetPinDirection,f
  5378  019B                     u1794:
  5379  019B  3EFF               	addlw	-1
  5380  019C  1D03               	skipz
  5381  019D  2999               	goto	u1795
  5382  019E  0840               	movf	??_DIO_SetPinDirection,w
  5383  019F  00FF               	movwf	btemp+1
  5384  01A0  087F               	movf	btemp+1,w
  5385  01A1  1683               	bsf	3,5	;RP0=1, select bank1
  5386  01A2  1303               	bcf	3,6	;RP1=0, select bank1
  5387  01A3  0487               	iorwf	7,f	;volatile
  5388  01A4  29CB               	goto	l160
  5389  01A5                     l2370:
  5390  01A5  3001               	movlw	1
  5391  01A6  00C0               	movwf	??_DIO_SetPinDirection
  5392  01A7  0A3E               	incf	DIO_SetPinDirection@u8PinIdCopy,w
  5393  01A8  29AB               	goto	u1804
  5394  01A9                     u1805:
  5395  01A9  1003               	clrc
  5396  01AA  0DC0               	rlf	??_DIO_SetPinDirection,f
  5397  01AB                     u1804:
  5398  01AB  3EFF               	addlw	-1
  5399  01AC  1D03               	skipz
  5400  01AD  29A9               	goto	u1805
  5401  01AE  0840               	movf	??_DIO_SetPinDirection,w
  5402  01AF  00FF               	movwf	btemp+1
  5403  01B0  087F               	movf	btemp+1,w
  5404  01B1  1683               	bsf	3,5	;RP0=1, select bank1
  5405  01B2  1303               	bcf	3,6	;RP1=0, select bank1
  5406  01B3  0488               	iorwf	8,f	;volatile
  5407  01B4  29CB               	goto	l160
  5408  01B5                     l2374:
  5409  01B5  0842               	movf	DIO_SetPinDirection@u8PortIdCopy,w
  5410  01B6  00C0               	movwf	??_DIO_SetPinDirection
  5411  01B7  01C1               	clrf	??_DIO_SetPinDirection+1
  5412                           
  5413                           ; Switch on 2 bytes has been partitioned into a top level switch of size 1, and 1 sub-sw
      +                          itches
  5414                           ; Switch size 1, requested type "simple"
  5415                           ; Number of cases is 1, Range of values is 0 to 0
  5416                           ; switch strategies available:
  5417                           ; Name         Instructions Cycles
  5418                           ; simple_byte            4     3 (average)
  5419                           ; direct_byte           11     8 (fixed)
  5420                           ; jumptable            260     6 (fixed)
  5421                           ;	Chosen strategy is simple_byte
  5422  01B8  0841               	movf	??_DIO_SetPinDirection+1,w
  5423  01B9  3A00               	xorlw	0	; case 0
  5424  01BA  1903               	skipnz
  5425  01BB  29BD               	goto	l3524
  5426  01BC  29CB               	goto	l150
  5427  01BD                     l3524:
  5428                           
  5429                           ; Switch size 1, requested type "simple"
  5430                           ; Number of cases is 4, Range of values is 0 to 3
  5431                           ; switch strategies available:
  5432                           ; Name         Instructions Cycles
  5433                           ; simple_byte           13     7 (average)
  5434                           ; direct_byte           20     8 (fixed)
  5435                           ; jumptable            260     6 (fixed)
  5436                           ;	Chosen strategy is simple_byte
  5437  01BD  0840               	movf	??_DIO_SetPinDirection,w
  5438  01BE  3A00               	xorlw	0	; case 0
  5439  01BF  1903               	skipnz
  5440  01C0  2975               	goto	l2364
  5441  01C1  3A01               	xorlw	1	; case 1
  5442  01C2  1903               	skipnz
  5443  01C3  2985               	goto	l2366
  5444  01C4  3A03               	xorlw	3	; case 2
  5445  01C5  1903               	skipnz
  5446  01C6  2995               	goto	l2368
  5447  01C7  3A01               	xorlw	1	; case 3
  5448  01C8  1903               	skipnz
  5449  01C9  29A5               	goto	l2370
  5450  01CA  29CB               	goto	l150
  5451  01CB                     l150:
  5452  01CB                     l160:	
  5453                           ;DIO_Prog.c: 50:  }
  5454                           
  5455  01CB  0008               	return
  5456  01CC                     __end_of_DIO_SetPinDirection:
  5457                           
  5458                           	psect	text42
  5459  054A                     __ptext42:	
  5460 ;; *************** function _ISR *****************
  5461 ;; Defined at:
  5462 ;;		line 82 in file "EXT_INT_Prog.c"
  5463 ;; Parameters:    Size  Location     Type
  5464 ;;		None
  5465 ;; Auto vars:     Size  Location     Type
  5466 ;;		None
  5467 ;; Return value:  Size  Location     Type
  5468 ;;                  1    wreg      void 
  5469 ;; Registers used:
  5470 ;;		wreg, fsr0l, fsr0h, status,2, status,0, btemp+1, pclath, cstack
  5471 ;; Tracked objects:
  5472 ;;		On entry : 0/0
  5473 ;;		On exit  : 0/0
  5474 ;;		Unchanged: 0/0
  5475 ;; Data sizes:     COMMON   BANK0   BANK1   BANK3   BANK2
  5476 ;;      Params:         0       0       0       0       0
  5477 ;;      Locals:         0       0       0       0       0
  5478 ;;      Temps:          0       5       0       0       0
  5479 ;;      Totals:         0       5       0       0       0
  5480 ;;Total ram usage:        5 bytes
  5481 ;; Hardware stack levels used:    1
  5482 ;; Hardware stack levels required when called:    5
  5483 ;; This function calls:
  5484 ;;		Absolute function
  5485 ;;		_DIO_GetPinValue
  5486 ;;		_RB0_Handler
  5487 ;;		_RB4_Handler
  5488 ;;		_RB5_Handler
  5489 ;; This function is called by:
  5490 ;;		Interrupt level 1
  5491 ;; This function uses a non-reentrant model
  5492 ;;
  5493                           
  5494                           
  5495                           ;psect for function _ISR
  5496  054A                     _ISR:
  5497  054A                     i1l2682:
  5498                           
  5499                           ;EXT_INT_Prog.c: 85:     if (((((*((volatile u8*)0x0B))) >> (1)) & 0x01))
  5500  054A  080B               	movf	11,w	;volatile
  5501  054B  00B9               	movwf	??_ISR
  5502  054C  3001               	movlw	1
  5503  054D                     u215_25:
  5504  054D  1003               	clrc
  5505  054E  0CB9               	rrf	??_ISR,f
  5506  054F  3EFF               	addlw	-1
  5507  0550  1D03               	skipz
  5508  0551  2D4D               	goto	u215_25
  5509  0552  1C39               	btfss	??_ISR,0
  5510  0553  2D55               	goto	u216_21
  5511  0554  2D56               	goto	u216_20
  5512  0555                     u216_21:
  5513  0555  2D61               	goto	i1l239
  5514  0556                     u216_20:
  5515  0556                     i1l2684:
  5516                           
  5517                           ;EXT_INT_Prog.c: 86:     {;EXT_INT_Prog.c: 87:        GptrToFun_RB0 ();
  5518  0556  0831               	movf	_GptrToFun_RB0,w
  5519  0557  120A  118A  2023  120A  118A  	fcall	i1fptable
  5520  055C                     i1l2686:
  5521                           
  5522                           ;EXT_INT_Prog.c: 88:        ((*((volatile u8*)0x0B))) &= ~(1 << (1)) ;
  5523  055C  30FD               	movlw	253
  5524  055D  00FF               	movwf	btemp+1
  5525  055E  087F               	movf	btemp+1,w
  5526  055F  058B               	andwf	11,f	;volatile
  5527                           
  5528                           ;EXT_INT_Prog.c: 90:     }
  5529  0560  2D98               	goto	i1l247
  5530  0561                     i1l239:	
  5531                           ;EXT_INT_Prog.c: 91:     else if ( ((((*((volatile u8*)0x0B))) >> (0)) & 0x01) )
  5532                           
  5533  0561  1C0B               	btfss	11,0	;volatile
  5534  0562  2D64               	goto	u217_21
  5535  0563  2D65               	goto	u217_20
  5536  0564                     u217_21:
  5537  0564  2D98               	goto	i1l247
  5538  0565                     u217_20:
  5539  0565                     i1l2688:
  5540                           
  5541                           ;EXT_INT_Prog.c: 92:     {;EXT_INT_Prog.c: 94:         if ( ! DIO_GetPinValue(1,4) )
  5542  0565  3004               	movlw	4
  5543  0566  00FF               	movwf	btemp+1
  5544  0567  087F               	movf	btemp+1,w
  5545  0568  00F0               	movwf	DIO_GetPinValue@u8PinIdCopy
  5546  0569  3001               	movlw	1
  5547  056A  120A  118A  2352  120A  118A  	fcall	_DIO_GetPinValue
  5548  056F  3A00               	xorlw	0
  5549  0570  1D03               	skipz
  5550  0571  2D73               	goto	u218_21
  5551  0572  2D74               	goto	u218_20
  5552  0573                     u218_21:
  5553  0573  2D7D               	goto	i1l2692
  5554  0574                     u218_20:
  5555  0574                     i1l2690:
  5556                           
  5557                           ;EXT_INT_Prog.c: 95:         {;EXT_INT_Prog.c: 96:             GptrToFun_RB4 () ;
  5558  0574  1283               	bcf	3,5	;RP0=0, select bank0
  5559  0575  1303               	bcf	3,6	;RP1=0, select bank0
  5560  0576  0830               	movf	_GptrToFun_RB4,w
  5561  0577  120A  118A  2023  120A  118A  	fcall	i1fptable
  5562                           
  5563                           ;EXT_INT_Prog.c: 97:         }
  5564  057C  2D94               	goto	i1l2696
  5565  057D                     i1l2692:
  5566  057D  3005               	movlw	5
  5567  057E  00FF               	movwf	btemp+1
  5568  057F  087F               	movf	btemp+1,w
  5569  0580  00F0               	movwf	DIO_GetPinValue@u8PinIdCopy
  5570  0581  3001               	movlw	1
  5571  0582  120A  118A  2352  120A  118A  	fcall	_DIO_GetPinValue
  5572  0587  3A00               	xorlw	0
  5573  0588  1D03               	skipz
  5574  0589  2D8B               	goto	u219_21
  5575  058A  2D8C               	goto	u219_20
  5576  058B                     u219_21:
  5577  058B  2D94               	goto	i1l2696
  5578  058C                     u219_20:
  5579  058C                     i1l2694:
  5580                           
  5581                           ;EXT_INT_Prog.c: 100:         {;EXT_INT_Prog.c: 101:             GptrToFun_RB5 () ;
  5582  058C  1283               	bcf	3,5	;RP0=0, select bank0
  5583  058D  1303               	bcf	3,6	;RP1=0, select bank0
  5584  058E  082F               	movf	_GptrToFun_RB5,w
  5585  058F  120A  118A  2023  120A  118A  	fcall	i1fptable
  5586  0594                     i1l2696:	
  5587                           ;EXT_INT_Prog.c: 103:         }
  5588                           
  5589                           
  5590                           ;EXT_INT_Prog.c: 108:         ((*((volatile u8*)0x0B))) &= ~(1 << (0)) ;
  5591  0594  30FE               	movlw	254
  5592  0595  00FF               	movwf	btemp+1
  5593  0596  087F               	movf	btemp+1,w
  5594  0597  058B               	andwf	11,f	;volatile
  5595  0598                     i1l247:	
  5596                           ;EXT_INT_Prog.c: 110:     }
  5597                           
  5598  0598  1283               	bcf	3,5	;RP0=0, select bank0
  5599  0599  1303               	bcf	3,6	;RP1=0, select bank0
  5600  059A  083D               	movf	??_ISR+4,w
  5601  059B  00FF               	movwf	btemp+1
  5602  059C  083C               	movf	??_ISR+3,w
  5603  059D  008A               	movwf	10
  5604  059E  083B               	movf	??_ISR+2,w
  5605  059F  0084               	movwf	4
  5606  05A0  0E3A               	swapf	(??_ISR+1)^0,w
  5607  05A1  0083               	movwf	3
  5608  05A2  0EFE               	swapf	btemp,f
  5609  05A3  0E7E               	swapf	btemp,w
  5610  05A4  0009               	retfie
  5611  05A5                     __end_of_ISR:
  5612                           
  5613                           	psect	intentry
  5614  0004                     __pintentry:	
  5615                           ;incstack = 0
  5616 ;; hardware stack exceeded
  5617                           ; Regs used in _ISR: [wreg-fsr0h+status,2+status,0+btemp+1+pclath+cstack]
  5618                           
  5619  0004                     interrupt_function:
  5620  007E                     saved_w	set	btemp
  5621  0004  00FE               	movwf	btemp
  5622  0005  0E03               	swapf	3,w
  5623  0006  1283               	bcf	3,5	;RP0=0, select bank0
  5624  0007  1303               	bcf	3,6	;RP1=0, select bank0
  5625  0008  00BA               	movwf	??_ISR+1
  5626  0009  0804               	movf	4,w
  5627  000A  00BB               	movwf	??_ISR+2
  5628  000B  080A               	movf	10,w
  5629  000C  00BC               	movwf	??_ISR+3
  5630  000D  087F               	movf	btemp+1,w
  5631  000E  00BD               	movwf	??_ISR+4
  5632  000F  120A  118A  2D4A   	ljmp	_ISR
  5633                           
  5634                           	psect	text43
  5635  0D1E                     __ptext43:	
  5636 ;; *************** function _RB5_Handler *****************
  5637 ;; Defined at:
  5638 ;;		line 216 in file "APP_Program.c"
  5639 ;; Parameters:    Size  Location     Type
  5640 ;;		None
  5641 ;; Auto vars:     Size  Location     Type
  5642 ;;		None
  5643 ;; Return value:  Size  Location     Type
  5644 ;;                  1    wreg      void 
  5645 ;; Registers used:
  5646 ;;		wreg, status,2, status,0
  5647 ;; Tracked objects:
  5648 ;;		On entry : 0/0
  5649 ;;		On exit  : 0/0
  5650 ;;		Unchanged: 0/0
  5651 ;; Data sizes:     COMMON   BANK0   BANK1   BANK3   BANK2
  5652 ;;      Params:         0       0       0       0       0
  5653 ;;      Locals:         0       0       0       0       0
  5654 ;;      Temps:          0       0       0       0       0
  5655 ;;      Totals:         0       0       0       0       0
  5656 ;;Total ram usage:        0 bytes
  5657 ;; Hardware stack levels used:    1
  5658 ;; This function calls:
  5659 ;;		Nothing
  5660 ;; This function is called by:
  5661 ;;		_SetCallBacks
  5662 ;;		_ISR
  5663 ;; This function uses a non-reentrant model
  5664 ;;
  5665                           
  5666                           
  5667                           ;psect for function _RB5_Handler
  5668  0D1E                     _RB5_Handler:
  5669  0D1E                     i1l2550:	
  5670                           ;incstack = 0
  5671                           ; Regs used in _RB5_Handler: [wreg+status,2+status,0]
  5672                           
  5673                           
  5674                           ;APP_Program.c: 218:     if (Set_Temp_Flag == 0)
  5675  0D1E  1283               	bcf	3,5	;RP0=0, select bank0
  5676  0D1F  1303               	bcf	3,6	;RP1=0, select bank0
  5677  0D20  0835               	movf	_Set_Temp_Flag,w
  5678  0D21  1D03               	btfss	3,2
  5679  0D22  2D24               	goto	u201_21
  5680  0D23  2D25               	goto	u201_20
  5681  0D24                     u201_21:
  5682  0D24  2D28               	goto	i1l2554
  5683  0D25                     u201_20:
  5684  0D25                     i1l2552:
  5685                           
  5686                           ;APP_Program.c: 219:             {;APP_Program.c: 220:                 Set_Temp_Flag = 1
      +                           ;
  5687  0D25  01B5               	clrf	_Set_Temp_Flag
  5688  0D26  0AB5               	incf	_Set_Temp_Flag,f
  5689                           
  5690                           ;APP_Program.c: 221:             }
  5691  0D27  2D38               	goto	i1l108
  5692  0D28                     i1l2554:
  5693                           
  5694                           ;APP_Program.c: 223:             {;APP_Program.c: 224:                 if (ON_OFF_Status
      +                           == 1)
  5695  0D28  0337               	decf	_ON_OFF_Status,w
  5696  0D29  1D03               	btfss	3,2
  5697  0D2A  2D2C               	goto	u202_21
  5698  0D2B  2D2D               	goto	u202_20
  5699  0D2C                     u202_21:
  5700  0D2C  2D38               	goto	i1l108
  5701  0D2D                     u202_20:
  5702  0D2D                     i1l2556:
  5703                           
  5704                           ;APP_Program.c: 225:                 {;APP_Program.c: 226:                 if (u8_Temp_S
      +                          et > 35 )
  5705  0D2D  3024               	movlw	36
  5706  0D2E  0238               	subwf	_u8_Temp_Set,w
  5707  0D2F  1C03               	skipc
  5708  0D30  2D32               	goto	u203_21
  5709  0D31  2D33               	goto	u203_20
  5710  0D32                     u203_21:
  5711  0D32  2D38               	goto	i1l107
  5712  0D33                     u203_20:
  5713  0D33                     i1l2558:
  5714                           
  5715                           ;APP_Program.c: 227:                 {;APP_Program.c: 228:                    u8_Temp_Se
      +                          t -= 5 ;
  5716  0D33  3005               	movlw	5
  5717  0D34  02B8               	subwf	_u8_Temp_Set,f
  5718  0D35                     i1l2560:
  5719                           
  5720                           ;APP_Program.c: 229:                    TempChange_Status = 1 ;
  5721  0D35  01B4               	clrf	_TempChange_Status
  5722  0D36  0AB4               	incf	_TempChange_Status,f
  5723                           
  5724                           ;APP_Program.c: 231:                 }
  5725  0D37  2D38               	goto	i1l108
  5726  0D38                     i1l107:	
  5727                           ;APP_Program.c: 238:                 {;APP_Program.c: 240:                 }
  5728                           
  5729  0D38                     i1l108:
  5730  0D38  0008               	return
  5731  0D39                     __end_of_RB5_Handler:
  5732                           
  5733                           	psect	text44
  5734  0D8C                     __ptext44:	
  5735 ;; *************** function _RB4_Handler *****************
  5736 ;; Defined at:
  5737 ;;		line 184 in file "APP_Program.c"
  5738 ;; Parameters:    Size  Location     Type
  5739 ;;		None
  5740 ;; Auto vars:     Size  Location     Type
  5741 ;;		None
  5742 ;; Return value:  Size  Location     Type
  5743 ;;                  1    wreg      void 
  5744 ;; Registers used:
  5745 ;;		wreg, status,2, status,0, btemp+1
  5746 ;; Tracked objects:
  5747 ;;		On entry : 0/0
  5748 ;;		On exit  : 0/0
  5749 ;;		Unchanged: 0/0
  5750 ;; Data sizes:     COMMON   BANK0   BANK1   BANK3   BANK2
  5751 ;;      Params:         0       0       0       0       0
  5752 ;;      Locals:         0       0       0       0       0
  5753 ;;      Temps:          0       0       0       0       0
  5754 ;;      Totals:         0       0       0       0       0
  5755 ;;Total ram usage:        0 bytes
  5756 ;; Hardware stack levels used:    1
  5757 ;; This function calls:
  5758 ;;		Nothing
  5759 ;; This function is called by:
  5760 ;;		_SetCallBacks
  5761 ;;		_ISR
  5762 ;; This function uses a non-reentrant model
  5763 ;;
  5764                           
  5765                           
  5766                           ;psect for function _RB4_Handler
  5767  0D8C                     _RB4_Handler:
  5768  0D8C                     i1l2538:	
  5769                           ;incstack = 0
  5770                           ; Regs used in _RB4_Handler: [wreg+status,2+status,0+btemp+1]
  5771                           
  5772                           
  5773                           ;APP_Program.c: 187:             if (Set_Temp_Flag == 0)
  5774  0D8C  1283               	bcf	3,5	;RP0=0, select bank0
  5775  0D8D  1303               	bcf	3,6	;RP1=0, select bank0
  5776  0D8E  0835               	movf	_Set_Temp_Flag,w
  5777  0D8F  1D03               	btfss	3,2
  5778  0D90  2D92               	goto	u198_21
  5779  0D91  2D93               	goto	u198_20
  5780  0D92                     u198_21:
  5781  0D92  2D96               	goto	i1l2542
  5782  0D93                     u198_20:
  5783  0D93                     i1l2540:
  5784                           
  5785                           ;APP_Program.c: 188:             {;APP_Program.c: 189:                 Set_Temp_Flag = 1
      +                           ;
  5786  0D93  01B5               	clrf	_Set_Temp_Flag
  5787  0D94  0AB5               	incf	_Set_Temp_Flag,f
  5788                           
  5789                           ;APP_Program.c: 190:             }
  5790  0D95  2DA8               	goto	i1l99
  5791  0D96                     i1l2542:
  5792                           
  5793                           ;APP_Program.c: 192:             {;APP_Program.c: 193:                 if (ON_OFF_Status
      +                           == 1)
  5794  0D96  0337               	decf	_ON_OFF_Status,w
  5795  0D97  1D03               	btfss	3,2
  5796  0D98  2D9A               	goto	u199_21
  5797  0D99  2D9B               	goto	u199_20
  5798  0D9A                     u199_21:
  5799  0D9A  2DA8               	goto	i1l99
  5800  0D9B                     u199_20:
  5801  0D9B                     i1l2544:
  5802                           
  5803                           ;APP_Program.c: 194:                 {;APP_Program.c: 195:                 if ( u8_Temp_
      +                          Set <75 )
  5804  0D9B  304B               	movlw	75
  5805  0D9C  0238               	subwf	_u8_Temp_Set,w
  5806  0D9D  1803               	skipnc
  5807  0D9E  2DA0               	goto	u200_21
  5808  0D9F  2DA1               	goto	u200_20
  5809  0DA0                     u200_21:
  5810  0DA0  2DA8               	goto	i1l98
  5811  0DA1                     u200_20:
  5812  0DA1                     i1l2546:
  5813                           
  5814                           ;APP_Program.c: 196:                 {;APP_Program.c: 197:                     u8_Temp_S
      +                          et += 5 ;
  5815  0DA1  3005               	movlw	5
  5816  0DA2  00FF               	movwf	btemp+1
  5817  0DA3  087F               	movf	btemp+1,w
  5818  0DA4  07B8               	addwf	_u8_Temp_Set,f
  5819  0DA5                     i1l2548:
  5820                           
  5821                           ;APP_Program.c: 198:                     TempChange_Status = 1 ;
  5822  0DA5  01B4               	clrf	_TempChange_Status
  5823  0DA6  0AB4               	incf	_TempChange_Status,f
  5824                           
  5825                           ;APP_Program.c: 199:                 }
  5826  0DA7  2DA8               	goto	i1l99
  5827  0DA8                     i1l98:	
  5828                           ;APP_Program.c: 206:                 {;APP_Program.c: 208:                 }
  5829                           
  5830  0DA8                     i1l99:
  5831  0DA8  0008               	return
  5832  0DA9                     __end_of_RB4_Handler:
  5833                           
  5834                           	psect	text45
  5835  0CE5                     __ptext45:	
  5836 ;; *************** function _RB0_Handler *****************
  5837 ;; Defined at:
  5838 ;;		line 170 in file "APP_Program.c"
  5839 ;; Parameters:    Size  Location     Type
  5840 ;;		None
  5841 ;; Auto vars:     Size  Location     Type
  5842 ;;		None
  5843 ;; Return value:  Size  Location     Type
  5844 ;;                  1    wreg      void 
  5845 ;; Registers used:
  5846 ;;		wreg, fsr0l, fsr0h, status,2, status,0, btemp+1, pclath, cstack
  5847 ;; Tracked objects:
  5848 ;;		On entry : 0/0
  5849 ;;		On exit  : 0/0
  5850 ;;		Unchanged: 0/0
  5851 ;; Data sizes:     COMMON   BANK0   BANK1   BANK3   BANK2
  5852 ;;      Params:         0       0       0       0       0
  5853 ;;      Locals:         0       0       0       0       0
  5854 ;;      Temps:          0       0       0       0       0
  5855 ;;      Totals:         0       0       0       0       0
  5856 ;;Total ram usage:        0 bytes
  5857 ;; Hardware stack levels used:    1
  5858 ;; Hardware stack levels required when called:    4
  5859 ;; This function calls:
  5860 ;;		i1_OFF_Mode
  5861 ;;		i1_ON_Mode
  5862 ;; This function is called by:
  5863 ;;		_SetCallBacks
  5864 ;;		_ISR
  5865 ;; This function uses a non-reentrant model
  5866 ;;
  5867                           
  5868                           
  5869                           ;psect for function _RB0_Handler
  5870  0CE5                     _RB0_Handler:
  5871  0CE5                     i1l2532:	
  5872                           ;incstack = 0
  5873 ;; hardware stack exceeded
  5874                           ; Regs used in _RB0_Handler: [wreg-fsr0h+status,2+status,0+btemp+1+pclath+cstack]
  5875                           
  5876                           
  5877                           ;APP_Program.c: 172:     if ( ON_OFF_Status == 1 )
  5878  0CE5  1283               	bcf	3,5	;RP0=0, select bank0
  5879  0CE6  1303               	bcf	3,6	;RP1=0, select bank0
  5880  0CE7  0337               	decf	_ON_OFF_Status,w
  5881  0CE8  1D03               	btfss	3,2
  5882  0CE9  2CEB               	goto	u197_21
  5883  0CEA  2CEC               	goto	u197_20
  5884  0CEB                     u197_21:
  5885  0CEB  2CF2               	goto	i1l2536
  5886  0CEC                     u197_20:
  5887  0CEC                     i1l2534:
  5888                           
  5889                           ;APP_Program.c: 173:     {;APP_Program.c: 174:         OFF_Mode();
  5890  0CEC  120A  158A  2468  120A  158A  	fcall	i1_OFF_Mode
  5891                           
  5892                           ;APP_Program.c: 175:     }
  5893  0CF1  2CF7               	goto	i1l90
  5894  0CF2                     i1l2536:
  5895                           
  5896                           ;APP_Program.c: 177:     {;APP_Program.c: 178:        ON_Mode();
  5897  0CF2  120A  158A  2450  120A  158A  	fcall	i1_ON_Mode
  5898  0CF7                     i1l90:
  5899  0CF7  0008               	return
  5900  0CF8                     __end_of_RB0_Handler:
  5901                           
  5902                           	psect	text46
  5903  0C50                     __ptext46:	
  5904 ;; *************** function i1_ON_Mode *****************
  5905 ;; Defined at:
  5906 ;;		line 108 in file "APP_Program.c"
  5907 ;; Parameters:    Size  Location     Type
  5908 ;;		None
  5909 ;; Auto vars:     Size  Location     Type
  5910 ;;		None
  5911 ;; Return value:  Size  Location     Type
  5912 ;;                  1    wreg      void 
  5913 ;; Registers used:
  5914 ;;		wreg, fsr0l, fsr0h, status,2, status,0, btemp+1, pclath, cstack
  5915 ;; Tracked objects:
  5916 ;;		On entry : 0/0
  5917 ;;		On exit  : 0/0
  5918 ;;		Unchanged: 0/0
  5919 ;; Data sizes:     COMMON   BANK0   BANK1   BANK3   BANK2
  5920 ;;      Params:         0       0       0       0       0
  5921 ;;      Locals:         0       0       0       0       0
  5922 ;;      Temps:          0       0       0       0       0
  5923 ;;      Totals:         0       0       0       0       0
  5924 ;;Total ram usage:        0 bytes
  5925 ;; Hardware stack levels used:    1
  5926 ;; Hardware stack levels required when called:    3
  5927 ;; This function calls:
  5928 ;;		i1_vid_7_Segment_Display_2Digits
  5929 ;; This function is called by:
  5930 ;;		_RB0_Handler
  5931 ;; This function uses a non-reentrant model
  5932 ;;
  5933                           
  5934                           
  5935                           ;psect for function i1_ON_Mode
  5936  0C50                     i1_ON_Mode:
  5937  0C50                     i1l2452:	
  5938                           ;incstack = 0
  5939 ;; hardware stack exceeded
  5940                           ; Regs used in i1_ON_Mode: [wreg-fsr0h+status,2+status,0+btemp+1+pclath+cstack]
  5941                           
  5942                           
  5943                           ;APP_Program.c: 110:     ON_OFF_Status = 1 ;
  5944  0C50  1283               	bcf	3,5	;RP0=0, select bank0
  5945  0C51  1303               	bcf	3,6	;RP1=0, select bank0
  5946  0C52  01B7               	clrf	_ON_OFF_Status
  5947  0C53  0AB7               	incf	_ON_OFF_Status,f
  5948  0C54                     i1l2454:
  5949                           
  5950                           ;APP_Program.c: 112:     vid_7_Segment_Display_2Digits(u8_Water_Temp) ;
  5951  0C54  0833               	movf	_u8_Water_Temp,w
  5952  0C55  120A  118A  25FE  120A  158A  	fcall	i1_vid_7_Segment_Display_2Digits
  5953  0C5A                     i1l2456:
  5954                           
  5955                           ;APP_Program.c: 113:    ((*((volatile u8*)0x0B))) |= (1 << (3)) ;
  5956  0C5A  158B               	bsf	11,3	;volatile
  5957  0C5B                     i1l72:
  5958  0C5B  0008               	return
  5959  0C5C                     __end_ofi1_ON_Mode:
  5960                           
  5961                           	psect	text47
  5962  05FE                     __ptext47:	
  5963 ;; *************** function i1_vid_7_Segment_Display_2Digits *****************
  5964 ;; Defined at:
  5965 ;;		line 75 in file "7_Segment_prog.c"
  5966 ;; Parameters:    Size  Location     Type
  5967 ;;  u8_Num          1    wreg     unsigned char 
  5968 ;; Auto vars:     Size  Location     Type
  5969 ;;  u8_Num          1   12[COMMON] unsigned char 
  5970 ;;  Tens            1   11[COMMON] unsigned char 
  5971 ;;  Ones            1   10[COMMON] unsigned char 
  5972 ;;  Stability       1    0        unsigned char 
  5973 ;; Return value:  Size  Location     Type
  5974 ;;                  1    wreg      void 
  5975 ;; Registers used:
  5976 ;;		wreg, fsr0l, fsr0h, status,2, status,0, btemp+1, pclath, cstack
  5977 ;; Tracked objects:
  5978 ;;		On entry : 0/0
  5979 ;;		On exit  : 0/0
  5980 ;;		Unchanged: 0/0
  5981 ;; Data sizes:     COMMON   BANK0   BANK1   BANK3   BANK2
  5982 ;;      Params:         0       0       0       0       0
  5983 ;;      Locals:         3       0       0       0       0
  5984 ;;      Temps:          2       0       0       0       0
  5985 ;;      Totals:         5       0       0       0       0
  5986 ;;Total ram usage:        5 bytes
  5987 ;; Hardware stack levels used:    1
  5988 ;; Hardware stack levels required when called:    2
  5989 ;; This function calls:
  5990 ;;		i1_DIO_SetPinValue
  5991 ;;		i1___awdiv
  5992 ;;		i1___awmod
  5993 ;;		i1_vid_Left_7_Segment_DisplayNumber
  5994 ;;		i1_vid_Right_7_Segment_DisplayNumber
  5995 ;; This function is called by:
  5996 ;;		i1_ON_Mode
  5997 ;; This function uses a non-reentrant model
  5998 ;;
  5999                           
  6000                           
  6001                           ;psect for function i1_vid_7_Segment_Display_2Digits
  6002  05FE                     i1_vid_7_Segment_Display_2Digits:
  6003                           
  6004                           ;incstack = 0
  6005 ;; hardware stack exceeded
  6006                           ; Regs used in i1_vid_7_Segment_Display_2Digits: [wreg-fsr0h+status,2+status,0+btemp+1+p
      +                          clath+cstack]
  6007                           ;i1vid_7_Segment_Display_2Digits@u8_Num stored from wreg
  6008  05FE  00FC               	movwf	i1vid_7_Segment_Display_2Digits@u8_Num
  6009  05FF                     i1l2284:
  6010  05FF  300A               	movlw	10
  6011  0600  00F0               	movwf	i1___awmod@divisor
  6012  0601  3000               	movlw	0
  6013  0602  00F1               	movwf	i1___awmod@divisor+1
  6014  0603  087C               	movf	i1vid_7_Segment_Display_2Digits@u8_Num,w
  6015  0604  00F8               	movwf	??i1_vid_7_Segment_Display_2Digits
  6016  0605  01F9               	clrf	??i1_vid_7_Segment_Display_2Digits+1
  6017  0606  0878               	movf	??i1_vid_7_Segment_Display_2Digits,w
  6018  0607  00F2               	movwf	i1___awmod@dividend
  6019  0608  0879               	movf	??i1_vid_7_Segment_Display_2Digits+1,w
  6020  0609  00F3               	movwf	i1___awmod@dividend+1
  6021  060A  120A  118A  25A5  120A  118A  	fcall	i1___awmod
  6022  060F  0870               	movf	?i1___awmod,w
  6023  0610  00FF               	movwf	btemp+1
  6024  0611  087F               	movf	btemp+1,w
  6025  0612  00FA               	movwf	i1vid_7_Segment_Display_2Digits@Ones
  6026  0613  300A               	movlw	10
  6027  0614  00F0               	movwf	i1___awdiv@divisor
  6028  0615  3000               	movlw	0
  6029  0616  00F1               	movwf	i1___awdiv@divisor+1
  6030  0617  087C               	movf	i1vid_7_Segment_Display_2Digits@u8_Num,w
  6031  0618  00F8               	movwf	??i1_vid_7_Segment_Display_2Digits
  6032  0619  01F9               	clrf	??i1_vid_7_Segment_Display_2Digits+1
  6033  061A  0878               	movf	??i1_vid_7_Segment_Display_2Digits,w
  6034  061B  00F2               	movwf	i1___awdiv@dividend
  6035  061C  0879               	movf	??i1_vid_7_Segment_Display_2Digits+1,w
  6036  061D  00F3               	movwf	i1___awdiv@dividend+1
  6037  061E  120A  118A  2429  120A  118A  	fcall	i1___awdiv
  6038  0623  0870               	movf	?i1___awdiv,w
  6039  0624  00FF               	movwf	btemp+1
  6040  0625  087F               	movf	btemp+1,w
  6041  0626  00FB               	movwf	i1vid_7_Segment_Display_2Digits@Tens
  6042  0627                     i1l2286:
  6043  0627  087A               	movf	i1vid_7_Segment_Display_2Digits@Ones,w
  6044  0628  120A  158A  25F5  120A  118A  	fcall	i1_vid_Right_7_Segment_DisplayNumber
  6045  062D                     i1l2288:
  6046  062D  3003               	movlw	3
  6047  062E  00F9               	movwf	??i1_vid_7_Segment_Display_2Digits+1
  6048  062F  3097               	movlw	151
  6049  0630  00F8               	movwf	??i1_vid_7_Segment_Display_2Digits
  6050  0631                     u247_27:
  6051  0631  0BF8               	decfsz	??i1_vid_7_Segment_Display_2Digits,f
  6052  0632  2E31               	goto	u247_27
  6053  0633  0BF9               	decfsz	??i1_vid_7_Segment_Display_2Digits+1,f
  6054  0634  2E31               	goto	u247_27
  6055  0635  2E36               	nop2
  6056  0636                     i1l2290:
  6057  0636  087B               	movf	i1vid_7_Segment_Display_2Digits@Tens,w
  6058  0637  120A  158A  25CB  120A  118A  	fcall	i1_vid_Left_7_Segment_DisplayNumber
  6059  063C                     i1l2292:
  6060  063C  3003               	movlw	3
  6061  063D  00F9               	movwf	??i1_vid_7_Segment_Display_2Digits+1
  6062  063E  3097               	movlw	151
  6063  063F  00F8               	movwf	??i1_vid_7_Segment_Display_2Digits
  6064  0640                     u248_27:
  6065  0640  0BF8               	decfsz	??i1_vid_7_Segment_Display_2Digits,f
  6066  0641  2E40               	goto	u248_27
  6067  0642  0BF9               	decfsz	??i1_vid_7_Segment_Display_2Digits+1,f
  6068  0643  2E40               	goto	u248_27
  6069  0644  2E45               	nop2
  6070  0645                     i1l2294:
  6071  0645  3004               	movlw	4
  6072  0646  00FF               	movwf	btemp+1
  6073  0647  087F               	movf	btemp+1,w
  6074  0648  00F0               	movwf	i1DIO_SetPinValue@u8PinIdCopy
  6075  0649  01F1               	clrf	i1DIO_SetPinValue@u8PinValCopy
  6076  064A  3000               	movlw	0
  6077  064B  120A  118A  21CC  120A  118A  	fcall	i1_DIO_SetPinValue
  6078  0650                     i1l388:
  6079  0650  0008               	return
  6080  0651                     __end_ofi1_vid_7_Segment_Display_2Digits:
  6081                           
  6082                           	psect	text48
  6083  0DF5                     __ptext48:	
  6084 ;; *************** function i1_vid_Right_7_Segment_DisplayNumber *****************
  6085 ;; Defined at:
  6086 ;;		line 65 in file "7_Segment_prog.c"
  6087 ;; Parameters:    Size  Location     Type
  6088 ;;  u8_Number       1    wreg     unsigned char 
  6089 ;; Auto vars:     Size  Location     Type
  6090 ;;  u8_Number       1    5[COMMON] unsigned char 
  6091 ;; Return value:  Size  Location     Type
  6092 ;;                  1    wreg      void 
  6093 ;; Registers used:
  6094 ;;		wreg, fsr0l, fsr0h, status,2, status,0, btemp+1, pclath, cstack
  6095 ;; Tracked objects:
  6096 ;;		On entry : 0/0
  6097 ;;		On exit  : 0/0
  6098 ;;		Unchanged: 0/0
  6099 ;; Data sizes:     COMMON   BANK0   BANK1   BANK3   BANK2
  6100 ;;      Params:         0       0       0       0       0
  6101 ;;      Locals:         1       0       0       0       0
  6102 ;;      Temps:          0       0       0       0       0
  6103 ;;      Totals:         1       0       0       0       0
  6104 ;;Total ram usage:        1 bytes
  6105 ;; Hardware stack levels used:    1
  6106 ;; Hardware stack levels required when called:    1
  6107 ;; This function calls:
  6108 ;;		i1_DIO_SetPinValue
  6109 ;;		i1_DIO_SetPortValue
  6110 ;; This function is called by:
  6111 ;;		i1_vid_7_Segment_Display_2Digits
  6112 ;; This function uses a non-reentrant model
  6113 ;;
  6114                           
  6115                           
  6116                           ;psect for function i1_vid_Right_7_Segment_DisplayNumber
  6117  0DF5                     i1_vid_Right_7_Segment_DisplayNumber:
  6118                           
  6119                           ;incstack = 0
  6120 ;; hardware stack exceeded
  6121                           ; Regs used in i1_vid_Right_7_Segment_DisplayNumber: [wreg-fsr0h+status,2+status,0+btemp
      +                          +1+pclath+cstack]
  6122                           ;i1vid_Right_7_Segment_DisplayNumber@u8_Number stored from wreg
  6123  0DF5  00F5               	movwf	i1vid_Right_7_Segment_DisplayNumber@u8_Number
  6124  0DF6                     i1l2076:
  6125  0DF6  3004               	movlw	4
  6126  0DF7  00FF               	movwf	btemp+1
  6127  0DF8  087F               	movf	btemp+1,w
  6128  0DF9  00F0               	movwf	i1DIO_SetPinValue@u8PinIdCopy
  6129  0DFA  01F1               	clrf	i1DIO_SetPinValue@u8PinValCopy
  6130  0DFB  3000               	movlw	0
  6131  0DFC  120A  118A  21CC  120A  158A  	fcall	i1_DIO_SetPinValue
  6132  0E01  3005               	movlw	5
  6133  0E02  00FF               	movwf	btemp+1
  6134  0E03  087F               	movf	btemp+1,w
  6135  0E04  00F0               	movwf	i1DIO_SetPinValue@u8PinIdCopy
  6136  0E05  01F1               	clrf	i1DIO_SetPinValue@u8PinValCopy
  6137  0E06  0AF1               	incf	i1DIO_SetPinValue@u8PinValCopy,f
  6138  0E07  3000               	movlw	0
  6139  0E08  120A  118A  21CC  120A  158A  	fcall	i1_DIO_SetPinValue
  6140  0E0D  0875               	movf	i1vid_Right_7_Segment_DisplayNumber@u8_Number,w
  6141  0E0E  3E01               	addlw	low ((_u8_Right_7Segment-__stringbase)| (0+32768))
  6142  0E0F  0084               	movwf	4
  6143  0E10  120A  158A  2000  120A  158A  	fcall	stringdir
  6144  0E15  00FF               	movwf	btemp+1
  6145  0E16  087F               	movf	btemp+1,w
  6146  0E17  00F0               	movwf	i1DIO_SetPortValue@u8PortVal
  6147  0E18  3003               	movlw	3
  6148  0E19  120A  158A  27CB  120A  158A  	fcall	i1_DIO_SetPortValue
  6149  0E1E                     i1l385:
  6150  0E1E  0008               	return
  6151  0E1F                     __end_ofi1_vid_Right_7_Segment_DisplayNumber:
  6152                           
  6153                           	psect	text49
  6154  0DCB                     __ptext49:	
  6155 ;; *************** function i1_vid_Left_7_Segment_DisplayNumber *****************
  6156 ;; Defined at:
  6157 ;;		line 53 in file "7_Segment_prog.c"
  6158 ;; Parameters:    Size  Location     Type
  6159 ;;  u8_Number       1    wreg     unsigned char 
  6160 ;; Auto vars:     Size  Location     Type
  6161 ;;  u8_Number       1    5[COMMON] unsigned char 
  6162 ;; Return value:  Size  Location     Type
  6163 ;;                  1    wreg      void 
  6164 ;; Registers used:
  6165 ;;		wreg, fsr0l, fsr0h, status,2, status,0, btemp+1, pclath, cstack
  6166 ;; Tracked objects:
  6167 ;;		On entry : 0/0
  6168 ;;		On exit  : 0/0
  6169 ;;		Unchanged: 0/0
  6170 ;; Data sizes:     COMMON   BANK0   BANK1   BANK3   BANK2
  6171 ;;      Params:         0       0       0       0       0
  6172 ;;      Locals:         1       0       0       0       0
  6173 ;;      Temps:          0       0       0       0       0
  6174 ;;      Totals:         1       0       0       0       0
  6175 ;;Total ram usage:        1 bytes
  6176 ;; Hardware stack levels used:    1
  6177 ;; Hardware stack levels required when called:    1
  6178 ;; This function calls:
  6179 ;;		i1_DIO_SetPinValue
  6180 ;;		i1_DIO_SetPortValue
  6181 ;; This function is called by:
  6182 ;;		i1_vid_7_Segment_Display_2Digits
  6183 ;; This function uses a non-reentrant model
  6184 ;;
  6185                           
  6186                           
  6187                           ;psect for function i1_vid_Left_7_Segment_DisplayNumber
  6188  0DCB                     i1_vid_Left_7_Segment_DisplayNumber:
  6189                           
  6190                           ;incstack = 0
  6191 ;; hardware stack exceeded
  6192                           ; Regs used in i1_vid_Left_7_Segment_DisplayNumber: [wreg-fsr0h+status,2+status,0+btemp+
      +                          1+pclath+cstack]
  6193                           ;i1vid_Left_7_Segment_DisplayNumber@u8_Number stored from wreg
  6194  0DCB  00F5               	movwf	i1vid_Left_7_Segment_DisplayNumber@u8_Number
  6195  0DCC                     i1l2074:
  6196  0DCC  3005               	movlw	5
  6197  0DCD  00FF               	movwf	btemp+1
  6198  0DCE  087F               	movf	btemp+1,w
  6199  0DCF  00F0               	movwf	i1DIO_SetPinValue@u8PinIdCopy
  6200  0DD0  01F1               	clrf	i1DIO_SetPinValue@u8PinValCopy
  6201  0DD1  3000               	movlw	0
  6202  0DD2  120A  118A  21CC  120A  158A  	fcall	i1_DIO_SetPinValue
  6203  0DD7  3004               	movlw	4
  6204  0DD8  00FF               	movwf	btemp+1
  6205  0DD9  087F               	movf	btemp+1,w
  6206  0DDA  00F0               	movwf	i1DIO_SetPinValue@u8PinIdCopy
  6207  0DDB  01F1               	clrf	i1DIO_SetPinValue@u8PinValCopy
  6208  0DDC  0AF1               	incf	i1DIO_SetPinValue@u8PinValCopy,f
  6209  0DDD  3000               	movlw	0
  6210  0DDE  120A  118A  21CC  120A  158A  	fcall	i1_DIO_SetPinValue
  6211  0DE3  0875               	movf	i1vid_Left_7_Segment_DisplayNumber@u8_Number,w
  6212  0DE4  3E0B               	addlw	low ((_u8_Left_7Segment-__stringbase)| (0+32768))
  6213  0DE5  0084               	movwf	4
  6214  0DE6  120A  158A  2000  120A  158A  	fcall	stringdir
  6215  0DEB  00FF               	movwf	btemp+1
  6216  0DEC  087F               	movf	btemp+1,w
  6217  0DED  00F0               	movwf	i1DIO_SetPortValue@u8PortVal
  6218  0DEE  3003               	movlw	3
  6219  0DEF  120A  158A  27CB  120A  158A  	fcall	i1_DIO_SetPortValue
  6220  0DF4                     i1l382:
  6221  0DF4  0008               	return
  6222  0DF5                     __end_ofi1_vid_Left_7_Segment_DisplayNumber:
  6223                           
  6224                           	psect	text50
  6225  0FCB                     __ptext50:	
  6226 ;; *************** function i1_DIO_SetPortValue *****************
  6227 ;; Defined at:
  6228 ;;		line 148 in file "DIO_Prog.c"
  6229 ;; Parameters:    Size  Location     Type
  6230 ;;  u8PortId        1    wreg     unsigned char 
  6231 ;;  u8PortVal       1    0[COMMON] unsigned char 
  6232 ;; Auto vars:     Size  Location     Type
  6233 ;;  u8PortId        1    3[COMMON] unsigned char 
  6234 ;; Return value:  Size  Location     Type
  6235 ;;                  1    wreg      void 
  6236 ;; Registers used:
  6237 ;;		wreg, fsr0l, fsr0h, status,2, status,0, btemp+1
  6238 ;; Tracked objects:
  6239 ;;		On entry : 0/0
  6240 ;;		On exit  : 0/0
  6241 ;;		Unchanged: 0/0
  6242 ;; Data sizes:     COMMON   BANK0   BANK1   BANK3   BANK2
  6243 ;;      Params:         1       0       0       0       0
  6244 ;;      Locals:         1       0       0       0       0
  6245 ;;      Temps:          2       0       0       0       0
  6246 ;;      Totals:         4       0       0       0       0
  6247 ;;Total ram usage:        4 bytes
  6248 ;; Hardware stack levels used:    1
  6249 ;; This function calls:
  6250 ;;		Nothing
  6251 ;; This function is called by:
  6252 ;;		i1_vid_Left_7_Segment_DisplayNumber
  6253 ;;		i1_vid_Right_7_Segment_DisplayNumber
  6254 ;; This function uses a non-reentrant model
  6255 ;;
  6256                           
  6257                           
  6258                           ;psect for function i1_DIO_SetPortValue
  6259  0FCB                     i1_DIO_SetPortValue:
  6260                           
  6261                           ;incstack = 0
  6262 ;; hardware stack exceeded
  6263                           ; Regs used in i1_DIO_SetPortValue: [wreg-fsr0h+status,2+status,0+btemp+1]
  6264                           ;i1DIO_SetPortValue@u8PortId stored from wreg
  6265  0FCB  00F3               	movwf	i1DIO_SetPortValue@u8PortId
  6266  0FCC                     i1l1988:
  6267                           
  6268                           ;DIO_Prog.c: 148: void DIO_SetPortValue (u8 u8PortId, u8 u8PortVal);DIO_Prog.c: 149: {;D
      +                          IO_Prog.c: 151:  switch (u8PortId)
  6269  0FCC  2FE9               	goto	i1l2000
  6270  0FCD                     i1l1990:
  6271  0FCD  0870               	movf	i1DIO_SetPortValue@u8PortVal,w
  6272  0FCE  00FF               	movwf	btemp+1
  6273  0FCF  087F               	movf	btemp+1,w
  6274  0FD0  1283               	bcf	3,5	;RP0=0, select bank0
  6275  0FD1  1303               	bcf	3,6	;RP1=0, select bank0
  6276  0FD2  0085               	movwf	5	;volatile
  6277  0FD3  2FFF               	goto	i1l212
  6278  0FD4                     i1l1992:
  6279  0FD4  0870               	movf	i1DIO_SetPortValue@u8PortVal,w
  6280  0FD5  00FF               	movwf	btemp+1
  6281  0FD6  087F               	movf	btemp+1,w
  6282  0FD7  1283               	bcf	3,5	;RP0=0, select bank0
  6283  0FD8  1303               	bcf	3,6	;RP1=0, select bank0
  6284  0FD9  0086               	movwf	6	;volatile
  6285  0FDA  2FFF               	goto	i1l212
  6286  0FDB                     i1l1994:
  6287  0FDB  0870               	movf	i1DIO_SetPortValue@u8PortVal,w
  6288  0FDC  00FF               	movwf	btemp+1
  6289  0FDD  087F               	movf	btemp+1,w
  6290  0FDE  1283               	bcf	3,5	;RP0=0, select bank0
  6291  0FDF  1303               	bcf	3,6	;RP1=0, select bank0
  6292  0FE0  0087               	movwf	7	;volatile
  6293  0FE1  2FFF               	goto	i1l212
  6294  0FE2                     i1l1996:
  6295  0FE2  0870               	movf	i1DIO_SetPortValue@u8PortVal,w
  6296  0FE3  00FF               	movwf	btemp+1
  6297  0FE4  087F               	movf	btemp+1,w
  6298  0FE5  1283               	bcf	3,5	;RP0=0, select bank0
  6299  0FE6  1303               	bcf	3,6	;RP1=0, select bank0
  6300  0FE7  0088               	movwf	8	;volatile
  6301  0FE8  2FFF               	goto	i1l212
  6302  0FE9                     i1l2000:
  6303  0FE9  0873               	movf	i1DIO_SetPortValue@u8PortId,w
  6304  0FEA  00F1               	movwf	??i1_DIO_SetPortValue
  6305  0FEB  01F2               	clrf	??i1_DIO_SetPortValue+1
  6306                           
  6307                           ; Switch on 2 bytes has been partitioned into a top level switch of size 1, and 1 sub-sw
      +                          itches
  6308                           ; Switch size 1, requested type "simple"
  6309                           ; Number of cases is 1, Range of values is 0 to 0
  6310                           ; switch strategies available:
  6311                           ; Name         Instructions Cycles
  6312                           ; simple_byte            4     3 (average)
  6313                           ; direct_byte           11     8 (fixed)
  6314                           ; jumptable            260     6 (fixed)
  6315                           ;	Chosen strategy is simple_byte
  6316  0FEC  0872               	movf	??i1_DIO_SetPortValue+1,w
  6317  0FED  3A00               	xorlw	0	; case 0
  6318  0FEE  1903               	skipnz
  6319  0FEF  2FF1               	goto	i1l3526
  6320  0FF0  2FFF               	goto	i1l212
  6321  0FF1                     i1l3526:
  6322                           
  6323                           ; Switch size 1, requested type "simple"
  6324                           ; Number of cases is 4, Range of values is 0 to 3
  6325                           ; switch strategies available:
  6326                           ; Name         Instructions Cycles
  6327                           ; simple_byte           13     7 (average)
  6328                           ; direct_byte           20     8 (fixed)
  6329                           ; jumptable            260     6 (fixed)
  6330                           ;	Chosen strategy is simple_byte
  6331  0FF1  0871               	movf	??i1_DIO_SetPortValue,w
  6332  0FF2  3A00               	xorlw	0	; case 0
  6333  0FF3  1903               	skipnz
  6334  0FF4  2FCD               	goto	i1l1990
  6335  0FF5  3A01               	xorlw	1	; case 1
  6336  0FF6  1903               	skipnz
  6337  0FF7  2FD4               	goto	i1l1992
  6338  0FF8  3A03               	xorlw	3	; case 2
  6339  0FF9  1903               	skipnz
  6340  0FFA  2FDB               	goto	i1l1994
  6341  0FFB  3A01               	xorlw	1	; case 3
  6342  0FFC  1903               	skipnz
  6343  0FFD  2FE2               	goto	i1l1996
  6344  0FFE  2FFF               	goto	i1l212
  6345  0FFF                     i1l212:
  6346  0FFF  0008               	return
  6347  1000                     __end_ofi1_DIO_SetPortValue:
  6348                           
  6349                           	psect	text51
  6350  05A5                     __ptext51:	
  6351 ;; *************** function i1___awmod *****************
  6352 ;; Defined at:
  6353 ;;		line 5 in file "C:\Program Files\Microchip\xc8\v2.20\pic\sources\c90\common\awmod.c"
  6354 ;; Parameters:    Size  Location     Type
  6355 ;;  divisor         2    0[COMMON] int 
  6356 ;;  dividend        2    2[COMMON] int 
  6357 ;; Auto vars:     Size  Location     Type
  6358 ;;  sign            1    5[COMMON] unsigned char 
  6359 ;;  counter         1    4[COMMON] unsigned char 
  6360 ;; Return value:  Size  Location     Type
  6361 ;;                  2    0[COMMON] int 
  6362 ;; Registers used:
  6363 ;;		wreg, status,2, status,0, btemp+1
  6364 ;; Tracked objects:
  6365 ;;		On entry : 0/0
  6366 ;;		On exit  : 0/0
  6367 ;;		Unchanged: 0/0
  6368 ;; Data sizes:     COMMON   BANK0   BANK1   BANK3   BANK2
  6369 ;;      Params:         4       0       0       0       0
  6370 ;;      Locals:         2       0       0       0       0
  6371 ;;      Temps:          0       0       0       0       0
  6372 ;;      Totals:         6       0       0       0       0
  6373 ;;Total ram usage:        6 bytes
  6374 ;; Hardware stack levels used:    1
  6375 ;; This function calls:
  6376 ;;		Nothing
  6377 ;; This function is called by:
  6378 ;;		i1_vid_7_Segment_Display_2Digits
  6379 ;; This function uses a non-reentrant model
  6380 ;;
  6381                           
  6382                           
  6383                           ;psect for function i1___awmod
  6384  05A5                     i1___awmod:
  6385  05A5                     i1l2122:	
  6386                           ;incstack = 0
  6387 ;; hardware stack exceeded
  6388                           ; Regs used in i1___awmod: [wreg+status,2+status,0+btemp+1]
  6389                           
  6390  05A5  01F5               	clrf	i1___awmod@sign
  6391  05A6                     i1l2124:
  6392  05A6  1FF3               	btfss	i1___awmod@dividend+1,7
  6393  05A7  2DA9               	goto	u140_21
  6394  05A8  2DAA               	goto	u140_20
  6395  05A9                     u140_21:
  6396  05A9  2DB1               	goto	i1l2130
  6397  05AA                     u140_20:
  6398  05AA                     i1l2126:
  6399  05AA  09F2               	comf	i1___awmod@dividend,f
  6400  05AB  09F3               	comf	i1___awmod@dividend+1,f
  6401  05AC  0AF2               	incf	i1___awmod@dividend,f
  6402  05AD  1903               	skipnz
  6403  05AE  0AF3               	incf	i1___awmod@dividend+1,f
  6404  05AF                     i1l2128:
  6405  05AF  01F5               	clrf	i1___awmod@sign
  6406  05B0  0AF5               	incf	i1___awmod@sign,f
  6407  05B1                     i1l2130:
  6408  05B1  1FF1               	btfss	i1___awmod@divisor+1,7
  6409  05B2  2DB4               	goto	u141_21
  6410  05B3  2DB5               	goto	u141_20
  6411  05B4                     u141_21:
  6412  05B4  2DBA               	goto	i1l2134
  6413  05B5                     u141_20:
  6414  05B5                     i1l2132:
  6415  05B5  09F0               	comf	i1___awmod@divisor,f
  6416  05B6  09F1               	comf	i1___awmod@divisor+1,f
  6417  05B7  0AF0               	incf	i1___awmod@divisor,f
  6418  05B8  1903               	skipnz
  6419  05B9  0AF1               	incf	i1___awmod@divisor+1,f
  6420  05BA                     i1l2134:
  6421  05BA  0870               	movf	i1___awmod@divisor,w
  6422  05BB  0471               	iorwf	i1___awmod@divisor+1,w
  6423  05BC  1903               	btfsc	3,2
  6424  05BD  2DBF               	goto	u142_21
  6425  05BE  2DC0               	goto	u142_20
  6426  05BF                     u142_21:
  6427  05BF  2DEF               	goto	i1l2152
  6428  05C0                     u142_20:
  6429  05C0                     i1l2136:
  6430  05C0  01F4               	clrf	i1___awmod@counter
  6431  05C1  0AF4               	incf	i1___awmod@counter,f
  6432  05C2  2DCE               	goto	i1l2142
  6433  05C3                     i1l2138:
  6434  05C3  3001               	movlw	1
  6435  05C4                     u143_25:
  6436  05C4  1003               	clrc
  6437  05C5  0DF0               	rlf	i1___awmod@divisor,f
  6438  05C6  0DF1               	rlf	i1___awmod@divisor+1,f
  6439  05C7  3EFF               	addlw	-1
  6440  05C8  1D03               	skipz
  6441  05C9  2DC4               	goto	u143_25
  6442  05CA                     i1l2140:
  6443  05CA  3001               	movlw	1
  6444  05CB  00FF               	movwf	btemp+1
  6445  05CC  087F               	movf	btemp+1,w
  6446  05CD  07F4               	addwf	i1___awmod@counter,f
  6447  05CE                     i1l2142:
  6448  05CE  1FF1               	btfss	i1___awmod@divisor+1,7
  6449  05CF  2DD1               	goto	u144_21
  6450  05D0  2DD2               	goto	u144_20
  6451  05D1                     u144_21:
  6452  05D1  2DC3               	goto	i1l2138
  6453  05D2                     u144_20:
  6454  05D2                     i1l2144:
  6455  05D2  0871               	movf	i1___awmod@divisor+1,w
  6456  05D3  0273               	subwf	i1___awmod@dividend+1,w
  6457  05D4  1D03               	skipz
  6458  05D5  2DD8               	goto	u145_25
  6459  05D6  0870               	movf	i1___awmod@divisor,w
  6460  05D7  0272               	subwf	i1___awmod@dividend,w
  6461  05D8                     u145_25:
  6462  05D8  1C03               	skipc
  6463  05D9  2DDB               	goto	u145_21
  6464  05DA  2DDC               	goto	u145_20
  6465  05DB                     u145_21:
  6466  05DB  2DE2               	goto	i1l2148
  6467  05DC                     u145_20:
  6468  05DC                     i1l2146:
  6469  05DC  0870               	movf	i1___awmod@divisor,w
  6470  05DD  02F2               	subwf	i1___awmod@dividend,f
  6471  05DE  0871               	movf	i1___awmod@divisor+1,w
  6472  05DF  1C03               	skipc
  6473  05E0  03F3               	decf	i1___awmod@dividend+1,f
  6474  05E1  02F3               	subwf	i1___awmod@dividend+1,f
  6475  05E2                     i1l2148:
  6476  05E2  3001               	movlw	1
  6477  05E3                     u146_25:
  6478  05E3  1003               	clrc
  6479  05E4  0CF1               	rrf	i1___awmod@divisor+1,f
  6480  05E5  0CF0               	rrf	i1___awmod@divisor,f
  6481  05E6  3EFF               	addlw	-1
  6482  05E7  1D03               	skipz
  6483  05E8  2DE3               	goto	u146_25
  6484  05E9                     i1l2150:
  6485  05E9  3001               	movlw	1
  6486  05EA  02F4               	subwf	i1___awmod@counter,f
  6487  05EB  1D03               	btfss	3,2
  6488  05EC  2DEE               	goto	u147_21
  6489  05ED  2DEF               	goto	u147_20
  6490  05EE                     u147_21:
  6491  05EE  2DD2               	goto	i1l2144
  6492  05EF                     u147_20:
  6493  05EF                     i1l2152:
  6494  05EF  0875               	movf	i1___awmod@sign,w
  6495  05F0  1903               	btfsc	3,2
  6496  05F1  2DF3               	goto	u148_21
  6497  05F2  2DF4               	goto	u148_20
  6498  05F3                     u148_21:
  6499  05F3  2DF9               	goto	i1l2156
  6500  05F4                     u148_20:
  6501  05F4                     i1l2154:
  6502  05F4  09F2               	comf	i1___awmod@dividend,f
  6503  05F5  09F3               	comf	i1___awmod@dividend+1,f
  6504  05F6  0AF2               	incf	i1___awmod@dividend,f
  6505  05F7  1903               	skipnz
  6506  05F8  0AF3               	incf	i1___awmod@dividend+1,f
  6507  05F9                     i1l2156:
  6508  05F9  0873               	movf	i1___awmod@dividend+1,w
  6509  05FA  00F1               	movwf	?i1___awmod+1
  6510  05FB  0872               	movf	i1___awmod@dividend,w
  6511  05FC  00F0               	movwf	?i1___awmod
  6512  05FD                     i1l640:
  6513  05FD  0008               	return
  6514  05FE                     __end_ofi1___awmod:
  6515                           
  6516                           	psect	text52
  6517  0429                     __ptext52:	
  6518 ;; *************** function i1___awdiv *****************
  6519 ;; Defined at:
  6520 ;;		line 5 in file "C:\Program Files\Microchip\xc8\v2.20\pic\sources\c90\common\awdiv.c"
  6521 ;; Parameters:    Size  Location     Type
  6522 ;;  divisor         2    0[COMMON] int 
  6523 ;;  dividend        2    2[COMMON] int 
  6524 ;; Auto vars:     Size  Location     Type
  6525 ;;  quotient        2    6[COMMON] int 
  6526 ;;  sign            1    5[COMMON] unsigned char 
  6527 ;;  counter         1    4[COMMON] unsigned char 
  6528 ;; Return value:  Size  Location     Type
  6529 ;;                  2    0[COMMON] int 
  6530 ;; Registers used:
  6531 ;;		wreg, status,2, status,0, btemp+1
  6532 ;; Tracked objects:
  6533 ;;		On entry : 0/0
  6534 ;;		On exit  : 0/0
  6535 ;;		Unchanged: 0/0
  6536 ;; Data sizes:     COMMON   BANK0   BANK1   BANK3   BANK2
  6537 ;;      Params:         4       0       0       0       0
  6538 ;;      Locals:         4       0       0       0       0
  6539 ;;      Temps:          0       0       0       0       0
  6540 ;;      Totals:         8       0       0       0       0
  6541 ;;Total ram usage:        8 bytes
  6542 ;; Hardware stack levels used:    1
  6543 ;; This function calls:
  6544 ;;		Nothing
  6545 ;; This function is called by:
  6546 ;;		i1_vid_7_Segment_Display_2Digits
  6547 ;; This function uses a non-reentrant model
  6548 ;;
  6549                           
  6550                           
  6551                           ;psect for function i1___awdiv
  6552  0429                     i1___awdiv:
  6553  0429                     i1l2078:	
  6554                           ;incstack = 0
  6555 ;; hardware stack exceeded
  6556                           ; Regs used in i1___awdiv: [wreg+status,2+status,0+btemp+1]
  6557                           
  6558  0429  01F5               	clrf	i1___awdiv@sign
  6559  042A                     i1l2080:
  6560  042A  1FF1               	btfss	i1___awdiv@divisor+1,7
  6561  042B  2C2D               	goto	u130_21
  6562  042C  2C2E               	goto	u130_20
  6563  042D                     u130_21:
  6564  042D  2C35               	goto	i1l2086
  6565  042E                     u130_20:
  6566  042E                     i1l2082:
  6567  042E  09F0               	comf	i1___awdiv@divisor,f
  6568  042F  09F1               	comf	i1___awdiv@divisor+1,f
  6569  0430  0AF0               	incf	i1___awdiv@divisor,f
  6570  0431  1903               	skipnz
  6571  0432  0AF1               	incf	i1___awdiv@divisor+1,f
  6572  0433                     i1l2084:
  6573  0433  01F5               	clrf	i1___awdiv@sign
  6574  0434  0AF5               	incf	i1___awdiv@sign,f
  6575  0435                     i1l2086:
  6576  0435  1FF3               	btfss	i1___awdiv@dividend+1,7
  6577  0436  2C38               	goto	u131_21
  6578  0437  2C39               	goto	u131_20
  6579  0438                     u131_21:
  6580  0438  2C42               	goto	i1l2092
  6581  0439                     u131_20:
  6582  0439                     i1l2088:
  6583  0439  09F2               	comf	i1___awdiv@dividend,f
  6584  043A  09F3               	comf	i1___awdiv@dividend+1,f
  6585  043B  0AF2               	incf	i1___awdiv@dividend,f
  6586  043C  1903               	skipnz
  6587  043D  0AF3               	incf	i1___awdiv@dividend+1,f
  6588  043E                     i1l2090:
  6589  043E  3001               	movlw	1
  6590  043F  00FF               	movwf	btemp+1
  6591  0440  087F               	movf	btemp+1,w
  6592  0441  06F5               	xorwf	i1___awdiv@sign,f
  6593  0442                     i1l2092:
  6594  0442  01F6               	clrf	i1___awdiv@quotient
  6595  0443  01F7               	clrf	i1___awdiv@quotient+1
  6596  0444                     i1l2094:
  6597  0444  0870               	movf	i1___awdiv@divisor,w
  6598  0445  0471               	iorwf	i1___awdiv@divisor+1,w
  6599  0446  1903               	btfsc	3,2
  6600  0447  2C49               	goto	u132_21
  6601  0448  2C4A               	goto	u132_20
  6602  0449                     u132_21:
  6603  0449  2C81               	goto	i1l2114
  6604  044A                     u132_20:
  6605  044A                     i1l2096:
  6606  044A  01F4               	clrf	i1___awdiv@counter
  6607  044B  0AF4               	incf	i1___awdiv@counter,f
  6608  044C  2C58               	goto	i1l2102
  6609  044D                     i1l2098:
  6610  044D  3001               	movlw	1
  6611  044E                     u133_25:
  6612  044E  1003               	clrc
  6613  044F  0DF0               	rlf	i1___awdiv@divisor,f
  6614  0450  0DF1               	rlf	i1___awdiv@divisor+1,f
  6615  0451  3EFF               	addlw	-1
  6616  0452  1D03               	skipz
  6617  0453  2C4E               	goto	u133_25
  6618  0454                     i1l2100:
  6619  0454  3001               	movlw	1
  6620  0455  00FF               	movwf	btemp+1
  6621  0456  087F               	movf	btemp+1,w
  6622  0457  07F4               	addwf	i1___awdiv@counter,f
  6623  0458                     i1l2102:
  6624  0458  1FF1               	btfss	i1___awdiv@divisor+1,7
  6625  0459  2C5B               	goto	u134_21
  6626  045A  2C5C               	goto	u134_20
  6627  045B                     u134_21:
  6628  045B  2C4D               	goto	i1l2098
  6629  045C                     u134_20:
  6630  045C                     i1l2104:
  6631  045C  3001               	movlw	1
  6632  045D                     u135_25:
  6633  045D  1003               	clrc
  6634  045E  0DF6               	rlf	i1___awdiv@quotient,f
  6635  045F  0DF7               	rlf	i1___awdiv@quotient+1,f
  6636  0460  3EFF               	addlw	-1
  6637  0461  1D03               	skipz
  6638  0462  2C5D               	goto	u135_25
  6639  0463  0871               	movf	i1___awdiv@divisor+1,w
  6640  0464  0273               	subwf	i1___awdiv@dividend+1,w
  6641  0465  1D03               	skipz
  6642  0466  2C69               	goto	u136_25
  6643  0467  0870               	movf	i1___awdiv@divisor,w
  6644  0468  0272               	subwf	i1___awdiv@dividend,w
  6645  0469                     u136_25:
  6646  0469  1C03               	skipc
  6647  046A  2C6C               	goto	u136_21
  6648  046B  2C6D               	goto	u136_20
  6649  046C                     u136_21:
  6650  046C  2C74               	goto	i1l2110
  6651  046D                     u136_20:
  6652  046D                     i1l2106:
  6653  046D  0870               	movf	i1___awdiv@divisor,w
  6654  046E  02F2               	subwf	i1___awdiv@dividend,f
  6655  046F  0871               	movf	i1___awdiv@divisor+1,w
  6656  0470  1C03               	skipc
  6657  0471  03F3               	decf	i1___awdiv@dividend+1,f
  6658  0472  02F3               	subwf	i1___awdiv@dividend+1,f
  6659  0473                     i1l2108:
  6660  0473  1476               	bsf	i1___awdiv@quotient,0
  6661  0474                     i1l2110:
  6662  0474  3001               	movlw	1
  6663  0475                     u137_25:
  6664  0475  1003               	clrc
  6665  0476  0CF1               	rrf	i1___awdiv@divisor+1,f
  6666  0477  0CF0               	rrf	i1___awdiv@divisor,f
  6667  0478  3EFF               	addlw	-1
  6668  0479  1D03               	skipz
  6669  047A  2C75               	goto	u137_25
  6670  047B                     i1l2112:
  6671  047B  3001               	movlw	1
  6672  047C  02F4               	subwf	i1___awdiv@counter,f
  6673  047D  1D03               	btfss	3,2
  6674  047E  2C80               	goto	u138_21
  6675  047F  2C81               	goto	u138_20
  6676  0480                     u138_21:
  6677  0480  2C5C               	goto	i1l2104
  6678  0481                     u138_20:
  6679  0481                     i1l2114:
  6680  0481  0875               	movf	i1___awdiv@sign,w
  6681  0482  1903               	btfsc	3,2
  6682  0483  2C85               	goto	u139_21
  6683  0484  2C86               	goto	u139_20
  6684  0485                     u139_21:
  6685  0485  2C8B               	goto	i1l2118
  6686  0486                     u139_20:
  6687  0486                     i1l2116:
  6688  0486  09F6               	comf	i1___awdiv@quotient,f
  6689  0487  09F7               	comf	i1___awdiv@quotient+1,f
  6690  0488  0AF6               	incf	i1___awdiv@quotient,f
  6691  0489  1903               	skipnz
  6692  048A  0AF7               	incf	i1___awdiv@quotient+1,f
  6693  048B                     i1l2118:
  6694  048B  0877               	movf	i1___awdiv@quotient+1,w
  6695  048C  00F1               	movwf	?i1___awdiv+1
  6696  048D  0876               	movf	i1___awdiv@quotient,w
  6697  048E  00F0               	movwf	?i1___awdiv
  6698  048F                     i1l627:
  6699  048F  0008               	return
  6700  0490                     __end_ofi1___awdiv:
  6701                           
  6702                           	psect	text53
  6703  0C68                     __ptext53:	
  6704 ;; *************** function i1_OFF_Mode *****************
  6705 ;; Defined at:
  6706 ;;		line 119 in file "APP_Program.c"
  6707 ;; Parameters:    Size  Location     Type
  6708 ;;		None
  6709 ;; Auto vars:     Size  Location     Type
  6710 ;;		None
  6711 ;; Return value:  Size  Location     Type
  6712 ;;                  1    wreg      void 
  6713 ;; Registers used:
  6714 ;;		wreg, fsr0l, fsr0h, status,2, status,0, btemp+1, pclath, cstack
  6715 ;; Tracked objects:
  6716 ;;		On entry : 0/0
  6717 ;;		On exit  : 0/0
  6718 ;;		Unchanged: 0/0
  6719 ;; Data sizes:     COMMON   BANK0   BANK1   BANK3   BANK2
  6720 ;;      Params:         0       0       0       0       0
  6721 ;;      Locals:         0       0       0       0       0
  6722 ;;      Temps:          0       0       0       0       0
  6723 ;;      Totals:         0       0       0       0       0
  6724 ;;Total ram usage:        0 bytes
  6725 ;; Hardware stack levels used:    1
  6726 ;; Hardware stack levels required when called:    2
  6727 ;; This function calls:
  6728 ;;		i1_vid_7_Segment_DeInit
  6729 ;; This function is called by:
  6730 ;;		_RB0_Handler
  6731 ;; This function uses a non-reentrant model
  6732 ;;
  6733                           
  6734                           
  6735                           ;psect for function i1_OFF_Mode
  6736  0C68                     i1_OFF_Mode:
  6737  0C68                     i1l2458:	
  6738                           ;incstack = 0
  6739 ;; hardware stack exceeded
  6740                           ; Regs used in i1_OFF_Mode: [wreg-fsr0h+status,2+status,0+btemp+1+pclath+cstack]
  6741                           
  6742                           
  6743                           ;APP_Program.c: 121:     ON_OFF_Status = 0 ;
  6744  0C68  1283               	bcf	3,5	;RP0=0, select bank0
  6745  0C69  1303               	bcf	3,6	;RP1=0, select bank0
  6746  0C6A  01B7               	clrf	_ON_OFF_Status
  6747  0C6B                     i1l2460:
  6748                           
  6749                           ;APP_Program.c: 122:     vid_7_Segment_DeInit () ;
  6750  0C6B  120A  118A  27E8  120A  158A  	fcall	i1_vid_7_Segment_DeInit
  6751  0C70                     i1l2462:
  6752                           
  6753                           ;APP_Program.c: 123:        ((*((volatile u8*)0x0B))) &= ~(1 << (3)) ;
  6754  0C70  30F7               	movlw	247
  6755  0C71  00FF               	movwf	btemp+1
  6756  0C72  087F               	movf	btemp+1,w
  6757  0C73  058B               	andwf	11,f	;volatile
  6758  0C74                     i1l75:
  6759  0C74  0008               	return
  6760  0C75                     __end_ofi1_OFF_Mode:
  6761                           
  6762                           	psect	text54
  6763  07E8                     __ptext54:	
  6764 ;; *************** function i1_vid_7_Segment_DeInit *****************
  6765 ;; Defined at:
  6766 ;;		line 45 in file "7_Segment_prog.c"
  6767 ;; Parameters:    Size  Location     Type
  6768 ;;		None
  6769 ;; Auto vars:     Size  Location     Type
  6770 ;;		None
  6771 ;; Return value:  Size  Location     Type
  6772 ;;                  1    wreg      void 
  6773 ;; Registers used:
  6774 ;;		wreg, fsr0l, fsr0h, status,2, status,0, btemp+1, pclath, cstack
  6775 ;; Tracked objects:
  6776 ;;		On entry : 0/0
  6777 ;;		On exit  : 0/0
  6778 ;;		Unchanged: 0/0
  6779 ;; Data sizes:     COMMON   BANK0   BANK1   BANK3   BANK2
  6780 ;;      Params:         0       0       0       0       0
  6781 ;;      Locals:         0       0       0       0       0
  6782 ;;      Temps:          0       0       0       0       0
  6783 ;;      Totals:         0       0       0       0       0
  6784 ;;Total ram usage:        0 bytes
  6785 ;; Hardware stack levels used:    1
  6786 ;; Hardware stack levels required when called:    1
  6787 ;; This function calls:
  6788 ;;		i1_DIO_SetPinValue
  6789 ;; This function is called by:
  6790 ;;		i1_OFF_Mode
  6791 ;; This function uses a non-reentrant model
  6792 ;;
  6793                           
  6794                           
  6795                           ;psect for function i1_vid_7_Segment_DeInit
  6796  07E8                     i1_vid_7_Segment_DeInit:
  6797  07E8                     i1l2282:	
  6798                           ;incstack = 0
  6799 ;; hardware stack exceeded
  6800                           ; Regs used in i1_vid_7_Segment_DeInit: [wreg-fsr0h+status,2+status,0+btemp+1+pclath+cst
      +                          ack]
  6801                           
  6802  07E8  3004               	movlw	4
  6803  07E9  00FF               	movwf	btemp+1
  6804  07EA  087F               	movf	btemp+1,w
  6805  07EB  00F0               	movwf	i1DIO_SetPinValue@u8PinIdCopy
  6806  07EC  01F1               	clrf	i1DIO_SetPinValue@u8PinValCopy
  6807  07ED  3000               	movlw	0
  6808  07EE  120A  118A  21CC  120A  118A  	fcall	i1_DIO_SetPinValue
  6809  07F3  3005               	movlw	5
  6810  07F4  00FF               	movwf	btemp+1
  6811  07F5  087F               	movf	btemp+1,w
  6812  07F6  00F0               	movwf	i1DIO_SetPinValue@u8PinIdCopy
  6813  07F7  01F1               	clrf	i1DIO_SetPinValue@u8PinValCopy
  6814  07F8  3000               	movlw	0
  6815  07F9  120A  118A  21CC  120A  118A  	fcall	i1_DIO_SetPinValue
  6816  07FE                     i1l379:
  6817  07FE  0008               	return
  6818  07FF                     __end_ofi1_vid_7_Segment_DeInit:
  6819                           
  6820                           	psect	text55
  6821  01CC                     __ptext55:	
  6822 ;; *************** function i1_DIO_SetPinValue *****************
  6823 ;; Defined at:
  6824 ;;		line 61 in file "DIO_Prog.c"
  6825 ;; Parameters:    Size  Location     Type
  6826 ;;  u8PortIdCopy    1    wreg     unsigned char 
  6827 ;;  u8PinIdCopy     1    0[COMMON] unsigned char 
  6828 ;;  u8PinValCopy    1    1[COMMON] unsigned char 
  6829 ;; Auto vars:     Size  Location     Type
  6830 ;;  u8PortIdCopy    1    4[COMMON] unsigned char 
  6831 ;; Return value:  Size  Location     Type
  6832 ;;                  1    wreg      void 
  6833 ;; Registers used:
  6834 ;;		wreg, fsr0l, fsr0h, status,2, status,0, btemp+1
  6835 ;; Tracked objects:
  6836 ;;		On entry : 0/0
  6837 ;;		On exit  : 0/0
  6838 ;;		Unchanged: 0/0
  6839 ;; Data sizes:     COMMON   BANK0   BANK1   BANK3   BANK2
  6840 ;;      Params:         2       0       0       0       0
  6841 ;;      Locals:         1       0       0       0       0
  6842 ;;      Temps:          2       0       0       0       0
  6843 ;;      Totals:         5       0       0       0       0
  6844 ;;Total ram usage:        5 bytes
  6845 ;; Hardware stack levels used:    1
  6846 ;; This function calls:
  6847 ;;		Nothing
  6848 ;; This function is called by:
  6849 ;;		i1_vid_7_Segment_DeInit
  6850 ;;		i1_vid_Left_7_Segment_DisplayNumber
  6851 ;;		i1_vid_Right_7_Segment_DisplayNumber
  6852 ;;		i1_vid_7_Segment_Display_2Digits
  6853 ;; This function uses a non-reentrant model
  6854 ;;
  6855                           
  6856                           
  6857                           ;psect for function i1_DIO_SetPinValue
  6858  01CC                     i1_DIO_SetPinValue:
  6859                           
  6860                           ;incstack = 0
  6861 ;; hardware stack exceeded
  6862                           ; Regs used in i1_DIO_SetPinValue: [wreg-fsr0h+status,2+status,0+btemp+1]
  6863                           ;i1DIO_SetPinValue@u8PortIdCopy stored from wreg
  6864  01CC  00F4               	movwf	i1DIO_SetPinValue@u8PortIdCopy
  6865  01CD                     i1l1944:
  6866                           
  6867                           ;DIO_Prog.c: 61: void DIO_SetPinValue(u8 u8PortIdCopy , u8 u8PinIdCopy, u8 u8PinValCopy)
      +                          ;DIO_Prog.c: 62: {;DIO_Prog.c: 64:  if ((u8PortIdCopy <= 3) && (u8PinIdCopy <= 7))
  6868  01CD  3004               	movlw	4
  6869  01CE  0274               	subwf	i1DIO_SetPinValue@u8PortIdCopy,w
  6870  01CF  1803               	skipnc
  6871  01D0  29D2               	goto	u104_21
  6872  01D1  29D3               	goto	u104_20
  6873  01D2                     u104_21:
  6874  01D2  2A95               	goto	i1l181
  6875  01D3                     u104_20:
  6876  01D3                     i1l1946:
  6877  01D3  3008               	movlw	8
  6878  01D4  0270               	subwf	i1DIO_SetPinValue@u8PinIdCopy,w
  6879  01D5  1803               	skipnc
  6880  01D6  29D8               	goto	u105_21
  6881  01D7  29D9               	goto	u105_20
  6882  01D8                     u105_21:
  6883  01D8  2A95               	goto	i1l181
  6884  01D9                     u105_20:
  6885  01D9                     i1l1948:
  6886                           
  6887                           ;DIO_Prog.c: 65:  {;DIO_Prog.c: 66:   if (u8PinValCopy == 1)
  6888  01D9  0371               	decf	i1DIO_SetPinValue@u8PinValCopy,w
  6889  01DA  1D03               	btfss	3,2
  6890  01DB  29DD               	goto	u106_21
  6891  01DC  29DE               	goto	u106_20
  6892  01DD                     u106_21:
  6893  01DD  2A35               	goto	i1l1964
  6894  01DE                     u106_20:
  6895  01DE  2A1F               	goto	i1l1962
  6896  01DF                     i1l1952:
  6897  01DF  3001               	movlw	1
  6898  01E0  00F2               	movwf	??i1_DIO_SetPinValue
  6899  01E1  0A70               	incf	i1DIO_SetPinValue@u8PinIdCopy,w
  6900  01E2  29E5               	goto	u107_24
  6901  01E3                     u107_25:
  6902  01E3  1003               	clrc
  6903  01E4  0DF2               	rlf	??i1_DIO_SetPinValue,f
  6904  01E5                     u107_24:
  6905  01E5  3EFF               	addlw	-1
  6906  01E6  1D03               	skipz
  6907  01E7  29E3               	goto	u107_25
  6908  01E8  0872               	movf	??i1_DIO_SetPinValue,w
  6909  01E9  00FF               	movwf	btemp+1
  6910  01EA  087F               	movf	btemp+1,w
  6911  01EB  1283               	bcf	3,5	;RP0=0, select bank0
  6912  01EC  1303               	bcf	3,6	;RP1=0, select bank0
  6913  01ED  0485               	iorwf	5,f	;volatile
  6914  01EE  2A95               	goto	i1l181
  6915  01EF                     i1l1954:
  6916  01EF  3001               	movlw	1
  6917  01F0  00F2               	movwf	??i1_DIO_SetPinValue
  6918  01F1  0A70               	incf	i1DIO_SetPinValue@u8PinIdCopy,w
  6919  01F2  29F5               	goto	u108_24
  6920  01F3                     u108_25:
  6921  01F3  1003               	clrc
  6922  01F4  0DF2               	rlf	??i1_DIO_SetPinValue,f
  6923  01F5                     u108_24:
  6924  01F5  3EFF               	addlw	-1
  6925  01F6  1D03               	skipz
  6926  01F7  29F3               	goto	u108_25
  6927  01F8  0872               	movf	??i1_DIO_SetPinValue,w
  6928  01F9  00FF               	movwf	btemp+1
  6929  01FA  087F               	movf	btemp+1,w
  6930  01FB  1283               	bcf	3,5	;RP0=0, select bank0
  6931  01FC  1303               	bcf	3,6	;RP1=0, select bank0
  6932  01FD  0486               	iorwf	6,f	;volatile
  6933  01FE  2A95               	goto	i1l181
  6934  01FF                     i1l1956:
  6935  01FF  3001               	movlw	1
  6936  0200  00F2               	movwf	??i1_DIO_SetPinValue
  6937  0201  0A70               	incf	i1DIO_SetPinValue@u8PinIdCopy,w
  6938  0202  2A05               	goto	u109_24
  6939  0203                     u109_25:
  6940  0203  1003               	clrc
  6941  0204  0DF2               	rlf	??i1_DIO_SetPinValue,f
  6942  0205                     u109_24:
  6943  0205  3EFF               	addlw	-1
  6944  0206  1D03               	skipz
  6945  0207  2A03               	goto	u109_25
  6946  0208  0872               	movf	??i1_DIO_SetPinValue,w
  6947  0209  00FF               	movwf	btemp+1
  6948  020A  087F               	movf	btemp+1,w
  6949  020B  1283               	bcf	3,5	;RP0=0, select bank0
  6950  020C  1303               	bcf	3,6	;RP1=0, select bank0
  6951  020D  0487               	iorwf	7,f	;volatile
  6952  020E  2A95               	goto	i1l181
  6953  020F                     i1l1958:
  6954  020F  3001               	movlw	1
  6955  0210  00F2               	movwf	??i1_DIO_SetPinValue
  6956  0211  0A70               	incf	i1DIO_SetPinValue@u8PinIdCopy,w
  6957  0212  2A15               	goto	u110_24
  6958  0213                     u110_25:
  6959  0213  1003               	clrc
  6960  0214  0DF2               	rlf	??i1_DIO_SetPinValue,f
  6961  0215                     u110_24:
  6962  0215  3EFF               	addlw	-1
  6963  0216  1D03               	skipz
  6964  0217  2A13               	goto	u110_25
  6965  0218  0872               	movf	??i1_DIO_SetPinValue,w
  6966  0219  00FF               	movwf	btemp+1
  6967  021A  087F               	movf	btemp+1,w
  6968  021B  1283               	bcf	3,5	;RP0=0, select bank0
  6969  021C  1303               	bcf	3,6	;RP1=0, select bank0
  6970  021D  0488               	iorwf	8,f	;volatile
  6971  021E  2A95               	goto	i1l181
  6972  021F                     i1l1962:
  6973  021F  0874               	movf	i1DIO_SetPinValue@u8PortIdCopy,w
  6974  0220  00F2               	movwf	??i1_DIO_SetPinValue
  6975  0221  01F3               	clrf	??i1_DIO_SetPinValue+1
  6976                           
  6977                           ; Switch on 2 bytes has been partitioned into a top level switch of size 1, and 1 sub-sw
      +                          itches
  6978                           ; Switch size 1, requested type "simple"
  6979                           ; Number of cases is 1, Range of values is 0 to 0
  6980                           ; switch strategies available:
  6981                           ; Name         Instructions Cycles
  6982                           ; simple_byte            4     3 (average)
  6983                           ; direct_byte           11     8 (fixed)
  6984                           ; jumptable            260     6 (fixed)
  6985                           ;	Chosen strategy is simple_byte
  6986  0222  0873               	movf	??i1_DIO_SetPinValue+1,w
  6987  0223  3A00               	xorlw	0	; case 0
  6988  0224  1903               	skipnz
  6989  0225  2A27               	goto	i1l3528
  6990  0226  2A95               	goto	i1l181
  6991  0227                     i1l3528:
  6992                           
  6993                           ; Switch size 1, requested type "simple"
  6994                           ; Number of cases is 4, Range of values is 0 to 3
  6995                           ; switch strategies available:
  6996                           ; Name         Instructions Cycles
  6997                           ; simple_byte           13     7 (average)
  6998                           ; direct_byte           20     8 (fixed)
  6999                           ; jumptable            260     6 (fixed)
  7000                           ;	Chosen strategy is simple_byte
  7001  0227  0872               	movf	??i1_DIO_SetPinValue,w
  7002  0228  3A00               	xorlw	0	; case 0
  7003  0229  1903               	skipnz
  7004  022A  29DF               	goto	i1l1952
  7005  022B  3A01               	xorlw	1	; case 1
  7006  022C  1903               	skipnz
  7007  022D  29EF               	goto	i1l1954
  7008  022E  3A03               	xorlw	3	; case 2
  7009  022F  1903               	skipnz
  7010  0230  29FF               	goto	i1l1956
  7011  0231  3A01               	xorlw	1	; case 3
  7012  0232  1903               	skipnz
  7013  0233  2A0F               	goto	i1l1958
  7014  0234  2A95               	goto	i1l181
  7015  0235                     i1l1964:
  7016  0235  0871               	movf	i1DIO_SetPinValue@u8PinValCopy,w
  7017  0236  1D03               	btfss	3,2
  7018  0237  2A39               	goto	u111_21
  7019  0238  2A3A               	goto	u111_20
  7020  0239                     u111_21:
  7021  0239  2A95               	goto	i1l171
  7022  023A                     u111_20:
  7023  023A  2A7F               	goto	i1l1978
  7024  023B                     i1l1968:
  7025  023B  3001               	movlw	1
  7026  023C  00F2               	movwf	??i1_DIO_SetPinValue
  7027  023D  0A70               	incf	i1DIO_SetPinValue@u8PinIdCopy,w
  7028  023E  2A41               	goto	u112_24
  7029  023F                     u112_25:
  7030  023F  1003               	clrc
  7031  0240  0DF2               	rlf	??i1_DIO_SetPinValue,f
  7032  0241                     u112_24:
  7033  0241  3EFF               	addlw	-1
  7034  0242  1D03               	skipz
  7035  0243  2A3F               	goto	u112_25
  7036  0244  0872               	movf	??i1_DIO_SetPinValue,w
  7037  0245  3AFF               	xorlw	255
  7038  0246  00FF               	movwf	btemp+1
  7039  0247  087F               	movf	btemp+1,w
  7040  0248  1283               	bcf	3,5	;RP0=0, select bank0
  7041  0249  1303               	bcf	3,6	;RP1=0, select bank0
  7042  024A  0585               	andwf	5,f	;volatile
  7043  024B  2A95               	goto	i1l181
  7044  024C                     i1l1970:
  7045  024C  3001               	movlw	1
  7046  024D  00F2               	movwf	??i1_DIO_SetPinValue
  7047  024E  0A70               	incf	i1DIO_SetPinValue@u8PinIdCopy,w
  7048  024F  2A52               	goto	u113_24
  7049  0250                     u113_25:
  7050  0250  1003               	clrc
  7051  0251  0DF2               	rlf	??i1_DIO_SetPinValue,f
  7052  0252                     u113_24:
  7053  0252  3EFF               	addlw	-1
  7054  0253  1D03               	skipz
  7055  0254  2A50               	goto	u113_25
  7056  0255  0872               	movf	??i1_DIO_SetPinValue,w
  7057  0256  3AFF               	xorlw	255
  7058  0257  00FF               	movwf	btemp+1
  7059  0258  087F               	movf	btemp+1,w
  7060  0259  1283               	bcf	3,5	;RP0=0, select bank0
  7061  025A  1303               	bcf	3,6	;RP1=0, select bank0
  7062  025B  0586               	andwf	6,f	;volatile
  7063  025C  2A95               	goto	i1l181
  7064  025D                     i1l1972:
  7065  025D  3001               	movlw	1
  7066  025E  00F2               	movwf	??i1_DIO_SetPinValue
  7067  025F  0A70               	incf	i1DIO_SetPinValue@u8PinIdCopy,w
  7068  0260  2A63               	goto	u114_24
  7069  0261                     u114_25:
  7070  0261  1003               	clrc
  7071  0262  0DF2               	rlf	??i1_DIO_SetPinValue,f
  7072  0263                     u114_24:
  7073  0263  3EFF               	addlw	-1
  7074  0264  1D03               	skipz
  7075  0265  2A61               	goto	u114_25
  7076  0266  0872               	movf	??i1_DIO_SetPinValue,w
  7077  0267  3AFF               	xorlw	255
  7078  0268  00FF               	movwf	btemp+1
  7079  0269  087F               	movf	btemp+1,w
  7080  026A  1283               	bcf	3,5	;RP0=0, select bank0
  7081  026B  1303               	bcf	3,6	;RP1=0, select bank0
  7082  026C  0587               	andwf	7,f	;volatile
  7083  026D  2A95               	goto	i1l181
  7084  026E                     i1l1974:
  7085  026E  3001               	movlw	1
  7086  026F  00F2               	movwf	??i1_DIO_SetPinValue
  7087  0270  0A70               	incf	i1DIO_SetPinValue@u8PinIdCopy,w
  7088  0271  2A74               	goto	u115_24
  7089  0272                     u115_25:
  7090  0272  1003               	clrc
  7091  0273  0DF2               	rlf	??i1_DIO_SetPinValue,f
  7092  0274                     u115_24:
  7093  0274  3EFF               	addlw	-1
  7094  0275  1D03               	skipz
  7095  0276  2A72               	goto	u115_25
  7096  0277  0872               	movf	??i1_DIO_SetPinValue,w
  7097  0278  3AFF               	xorlw	255
  7098  0279  00FF               	movwf	btemp+1
  7099  027A  087F               	movf	btemp+1,w
  7100  027B  1283               	bcf	3,5	;RP0=0, select bank0
  7101  027C  1303               	bcf	3,6	;RP1=0, select bank0
  7102  027D  0588               	andwf	8,f	;volatile
  7103  027E  2A95               	goto	i1l181
  7104  027F                     i1l1978:
  7105  027F  0874               	movf	i1DIO_SetPinValue@u8PortIdCopy,w
  7106  0280  00F2               	movwf	??i1_DIO_SetPinValue
  7107  0281  01F3               	clrf	??i1_DIO_SetPinValue+1
  7108                           
  7109                           ; Switch on 2 bytes has been partitioned into a top level switch of size 1, and 1 sub-sw
      +                          itches
  7110                           ; Switch size 1, requested type "simple"
  7111                           ; Number of cases is 1, Range of values is 0 to 0
  7112                           ; switch strategies available:
  7113                           ; Name         Instructions Cycles
  7114                           ; simple_byte            4     3 (average)
  7115                           ; direct_byte           11     8 (fixed)
  7116                           ; jumptable            260     6 (fixed)
  7117                           ;	Chosen strategy is simple_byte
  7118  0282  0873               	movf	??i1_DIO_SetPinValue+1,w
  7119  0283  3A00               	xorlw	0	; case 0
  7120  0284  1903               	skipnz
  7121  0285  2A87               	goto	i1l3530
  7122  0286  2A95               	goto	i1l171
  7123  0287                     i1l3530:
  7124                           
  7125                           ; Switch size 1, requested type "simple"
  7126                           ; Number of cases is 4, Range of values is 0 to 3
  7127                           ; switch strategies available:
  7128                           ; Name         Instructions Cycles
  7129                           ; simple_byte           13     7 (average)
  7130                           ; direct_byte           20     8 (fixed)
  7131                           ; jumptable            260     6 (fixed)
  7132                           ;	Chosen strategy is simple_byte
  7133  0287  0872               	movf	??i1_DIO_SetPinValue,w
  7134  0288  3A00               	xorlw	0	; case 0
  7135  0289  1903               	skipnz
  7136  028A  2A3B               	goto	i1l1968
  7137  028B  3A01               	xorlw	1	; case 1
  7138  028C  1903               	skipnz
  7139  028D  2A4C               	goto	i1l1970
  7140  028E  3A03               	xorlw	3	; case 2
  7141  028F  1903               	skipnz
  7142  0290  2A5D               	goto	i1l1972
  7143  0291  3A01               	xorlw	1	; case 3
  7144  0292  1903               	skipnz
  7145  0293  2A6E               	goto	i1l1974
  7146  0294  2A95               	goto	i1l171
  7147  0295                     i1l171:
  7148  0295                     i1l181:	
  7149                           ;DIO_Prog.c: 95:  }
  7150                           
  7151  0295  0008               	return
  7152  0296                     __end_ofi1_DIO_SetPinValue:
  7153                           
  7154                           	psect	text56
  7155  0352                     __ptext56:	
  7156 ;; *************** function _DIO_GetPinValue *****************
  7157 ;; Defined at:
  7158 ;;		line 105 in file "DIO_Prog.c"
  7159 ;; Parameters:    Size  Location     Type
  7160 ;;  u8PortIdCopy    1    wreg     unsigned char 
  7161 ;;  u8PinIdCopy     1    0[COMMON] unsigned char 
  7162 ;; Auto vars:     Size  Location     Type
  7163 ;;  u8PortIdCopy    1    3[COMMON] unsigned char 
  7164 ;;  u8ResultLoca    1    4[COMMON] unsigned char 
  7165 ;; Return value:  Size  Location     Type
  7166 ;;                  1    wreg      unsigned char 
  7167 ;; Registers used:
  7168 ;;		wreg, fsr0l, fsr0h, status,2, status,0, btemp+1
  7169 ;; Tracked objects:
  7170 ;;		On entry : 0/0
  7171 ;;		On exit  : 0/0
  7172 ;;		Unchanged: 0/0
  7173 ;; Data sizes:     COMMON   BANK0   BANK1   BANK3   BANK2
  7174 ;;      Params:         1       0       0       0       0
  7175 ;;      Locals:         2       0       0       0       0
  7176 ;;      Temps:          2       0       0       0       0
  7177 ;;      Totals:         5       0       0       0       0
  7178 ;;Total ram usage:        5 bytes
  7179 ;; Hardware stack levels used:    1
  7180 ;; This function calls:
  7181 ;;		Nothing
  7182 ;; This function is called by:
  7183 ;;		_ISR
  7184 ;; This function uses a non-reentrant model
  7185 ;;
  7186                           
  7187                           
  7188                           ;psect for function _DIO_GetPinValue
  7189  0352                     _DIO_GetPinValue:
  7190                           
  7191                           ;incstack = 0
  7192                           ; Regs used in _DIO_GetPinValue: [wreg-fsr0h+status,2+status,0+btemp+1]
  7193                           ;DIO_GetPinValue@u8PortIdCopy stored from wreg
  7194  0352  00F3               	movwf	DIO_GetPinValue@u8PortIdCopy
  7195  0353                     i1l2618:
  7196                           
  7197                           ;DIO_Prog.c: 105: u8 DIO_GetPinValue(u8 u8PortIdCopy, u8 u8PinIdCopy);DIO_Prog.c: 106: {
      +                          ;DIO_Prog.c: 108:  u8 u8ResultLocal;;DIO_Prog.c: 110:  if ((u8PortIdCopy <= 3) && (u8Pin
      +                          IdCopy <= 7))
  7198  0353  3004               	movlw	4
  7199  0354  0273               	subwf	DIO_GetPinValue@u8PortIdCopy,w
  7200  0355  1803               	skipnc
  7201  0356  2B58               	goto	u209_21
  7202  0357  2B59               	goto	u209_20
  7203  0358                     u209_21:
  7204  0358  2BBA               	goto	i1l2636
  7205  0359                     u209_20:
  7206  0359                     i1l2620:
  7207  0359  3008               	movlw	8
  7208  035A  0270               	subwf	DIO_GetPinValue@u8PinIdCopy,w
  7209  035B  1803               	skipnc
  7210  035C  2B5E               	goto	u210_21
  7211  035D  2B5F               	goto	u210_20
  7212  035E                     u210_21:
  7213  035E  2BBA               	goto	i1l2636
  7214  035F                     u210_20:
  7215  035F  2BA4               	goto	i1l2634
  7216  0360                     i1l2624:
  7217  0360  1283               	bcf	3,5	;RP0=0, select bank0
  7218  0361  1303               	bcf	3,6	;RP1=0, select bank0
  7219  0362  0805               	movf	5,w	;volatile
  7220  0363  00F1               	movwf	??_DIO_GetPinValue
  7221  0364  0A70               	incf	DIO_GetPinValue@u8PinIdCopy,w
  7222  0365  2B68               	goto	u211_24
  7223  0366                     u211_25:
  7224  0366  1003               	clrc
  7225  0367  0CF1               	rrf	??_DIO_GetPinValue,f
  7226  0368                     u211_24:
  7227  0368  3EFF               	addlw	-1
  7228  0369  1D03               	skipz
  7229  036A  2B66               	goto	u211_25
  7230  036B  0871               	movf	??_DIO_GetPinValue,w
  7231  036C  3901               	andlw	1
  7232  036D  00FF               	movwf	btemp+1
  7233  036E  087F               	movf	btemp+1,w
  7234  036F  00F4               	movwf	DIO_GetPinValue@u8ResultLocal
  7235  0370  2BBE               	goto	i1l2638
  7236  0371                     i1l2626:
  7237  0371  1283               	bcf	3,5	;RP0=0, select bank0
  7238  0372  1303               	bcf	3,6	;RP1=0, select bank0
  7239  0373  0806               	movf	6,w	;volatile
  7240  0374  00F1               	movwf	??_DIO_GetPinValue
  7241  0375  0A70               	incf	DIO_GetPinValue@u8PinIdCopy,w
  7242  0376  2B79               	goto	u212_24
  7243  0377                     u212_25:
  7244  0377  1003               	clrc
  7245  0378  0CF1               	rrf	??_DIO_GetPinValue,f
  7246  0379                     u212_24:
  7247  0379  3EFF               	addlw	-1
  7248  037A  1D03               	skipz
  7249  037B  2B77               	goto	u212_25
  7250  037C  0871               	movf	??_DIO_GetPinValue,w
  7251  037D  3901               	andlw	1
  7252  037E  00FF               	movwf	btemp+1
  7253  037F  087F               	movf	btemp+1,w
  7254  0380  00F4               	movwf	DIO_GetPinValue@u8ResultLocal
  7255  0381  2BBE               	goto	i1l2638
  7256  0382                     i1l2628:
  7257  0382  1283               	bcf	3,5	;RP0=0, select bank0
  7258  0383  1303               	bcf	3,6	;RP1=0, select bank0
  7259  0384  0807               	movf	7,w	;volatile
  7260  0385  00F1               	movwf	??_DIO_GetPinValue
  7261  0386  0A70               	incf	DIO_GetPinValue@u8PinIdCopy,w
  7262  0387  2B8A               	goto	u213_24
  7263  0388                     u213_25:
  7264  0388  1003               	clrc
  7265  0389  0CF1               	rrf	??_DIO_GetPinValue,f
  7266  038A                     u213_24:
  7267  038A  3EFF               	addlw	-1
  7268  038B  1D03               	skipz
  7269  038C  2B88               	goto	u213_25
  7270  038D  0871               	movf	??_DIO_GetPinValue,w
  7271  038E  3901               	andlw	1
  7272  038F  00FF               	movwf	btemp+1
  7273  0390  087F               	movf	btemp+1,w
  7274  0391  00F4               	movwf	DIO_GetPinValue@u8ResultLocal
  7275  0392  2BBE               	goto	i1l2638
  7276  0393                     i1l2630:
  7277  0393  1283               	bcf	3,5	;RP0=0, select bank0
  7278  0394  1303               	bcf	3,6	;RP1=0, select bank0
  7279  0395  0808               	movf	8,w	;volatile
  7280  0396  00F1               	movwf	??_DIO_GetPinValue
  7281  0397  0A70               	incf	DIO_GetPinValue@u8PinIdCopy,w
  7282  0398  2B9B               	goto	u214_24
  7283  0399                     u214_25:
  7284  0399  1003               	clrc
  7285  039A  0CF1               	rrf	??_DIO_GetPinValue,f
  7286  039B                     u214_24:
  7287  039B  3EFF               	addlw	-1
  7288  039C  1D03               	skipz
  7289  039D  2B99               	goto	u214_25
  7290  039E  0871               	movf	??_DIO_GetPinValue,w
  7291  039F  3901               	andlw	1
  7292  03A0  00FF               	movwf	btemp+1
  7293  03A1  087F               	movf	btemp+1,w
  7294  03A2  00F4               	movwf	DIO_GetPinValue@u8ResultLocal
  7295  03A3  2BBE               	goto	i1l2638
  7296  03A4                     i1l2634:
  7297  03A4  0873               	movf	DIO_GetPinValue@u8PortIdCopy,w
  7298  03A5  00F1               	movwf	??_DIO_GetPinValue
  7299  03A6  01F2               	clrf	??_DIO_GetPinValue+1
  7300                           
  7301                           ; Switch on 2 bytes has been partitioned into a top level switch of size 1, and 1 sub-sw
      +                          itches
  7302                           ; Switch size 1, requested type "simple"
  7303                           ; Number of cases is 1, Range of values is 0 to 0
  7304                           ; switch strategies available:
  7305                           ; Name         Instructions Cycles
  7306                           ; simple_byte            4     3 (average)
  7307                           ; direct_byte           11     8 (fixed)
  7308                           ; jumptable            260     6 (fixed)
  7309                           ;	Chosen strategy is simple_byte
  7310  03A7  0872               	movf	??_DIO_GetPinValue+1,w
  7311  03A8  3A00               	xorlw	0	; case 0
  7312  03A9  1903               	skipnz
  7313  03AA  2BAC               	goto	i1l3532
  7314  03AB  2BBE               	goto	i1l2638
  7315  03AC                     i1l3532:
  7316                           
  7317                           ; Switch size 1, requested type "simple"
  7318                           ; Number of cases is 4, Range of values is 0 to 3
  7319                           ; switch strategies available:
  7320                           ; Name         Instructions Cycles
  7321                           ; simple_byte           13     7 (average)
  7322                           ; direct_byte           20     8 (fixed)
  7323                           ; jumptable            260     6 (fixed)
  7324                           ;	Chosen strategy is simple_byte
  7325  03AC  0871               	movf	??_DIO_GetPinValue,w
  7326  03AD  3A00               	xorlw	0	; case 0
  7327  03AE  1903               	skipnz
  7328  03AF  2B60               	goto	i1l2624
  7329  03B0  3A01               	xorlw	1	; case 1
  7330  03B1  1903               	skipnz
  7331  03B2  2B71               	goto	i1l2626
  7332  03B3  3A03               	xorlw	3	; case 2
  7333  03B4  1903               	skipnz
  7334  03B5  2B82               	goto	i1l2628
  7335  03B6  3A01               	xorlw	1	; case 3
  7336  03B7  1903               	skipnz
  7337  03B8  2B93               	goto	i1l2630
  7338  03B9  2BBE               	goto	i1l2638
  7339  03BA                     i1l2636:
  7340                           
  7341                           ;DIO_Prog.c: 123:  {;DIO_Prog.c: 125:   u8ResultLocal = 0xFF;
  7342  03BA  30FF               	movlw	255
  7343  03BB  00FF               	movwf	btemp+1
  7344  03BC  087F               	movf	btemp+1,w
  7345  03BD  00F4               	movwf	DIO_GetPinValue@u8ResultLocal
  7346  03BE                     i1l2638:
  7347                           
  7348                           ;DIO_Prog.c: 128:  return u8ResultLocal;
  7349  03BE  0874               	movf	DIO_GetPinValue@u8ResultLocal,w
  7350  03BF                     i1l192:
  7351  03BF  0008               	return
  7352  03C0                     __end_of_DIO_GetPinValue:
  7353  0006                     
  7354                           	psect	functab
  7355  0022                     __pfunctab:
  7356  0022                     fptable:
  7357  0022  2822               	goto	fptable	;no entries
  7358  0023                     __i1fptable:
  7359  0023                     i1fptable:
  7360  0023  00FF               	movwf	(btemp+1)& (0+127)
  7361  0024  3000               	movlw	high i1fptable
  7362  0025  008A               	movwf	10
  7363  0026  087F               	movf	(btemp+1)& (0+127),w
  7364  0027  0782               	addwf	2,f
  7365  0028                     i1fpbase:
  7366  0028  2828               	goto	i1fpbase	; Call via a null pointer and you will get stuck here.
  7367  0029                     fp__RB0_Handler:
  7368  0029  120A  158A  2CE5   	ljmp	_RB0_Handler
  7369  002C                     fp__RB4_Handler:
  7370  002C  120A  158A  2D8C   	ljmp	_RB4_Handler
  7371  002F                     fp__RB5_Handler:
  7372  002F  120A  158A  2D1E   	ljmp	_RB5_Handler
  7373  0032                     __end_of__i1fptable:
  7374  007E                     btemp	set	126	;btemp
  7375  007E                     wtemp0	set	126
  7376                           
  7377                           	psect	config
  7378                           
  7379                           ;Config register CONFIG @ 0x2007
  7380                           ;	Oscillator Selection bits
  7381                           ;	FOSC = XT, XT oscillator
  7382                           ;	Watchdog Timer Enable bit
  7383                           ;	WDTE = OFF, WDT disabled
  7384                           ;	Power-up Timer Enable bit
  7385                           ;	PWRTE = ON, PWRT enabled
  7386                           ;	Brown-out Reset Enable bit
  7387                           ;	BOREN = ON, BOR enabled
  7388                           ;	Low-Voltage (Single-Supply) In-Circuit Serial Programming Enable bit
  7389                           ;	LVP = OFF, RB3 is digital I/O, HV on MCLR must be used for programming
  7390                           ;	Data EEPROM Memory Code Protection bit
  7391                           ;	CPD = OFF, Data EEPROM code protection off
  7392                           ;	Flash Program Memory Write Enable bits
  7393                           ;	WRT = OFF, Write protection off; all program memory may be written to by EECON control
  7394                           ;	In-Circuit Debugger Mode bit
  7395                           ;	DEBUG = 0x1, unprogrammed default
  7396                           ;	Flash Program Memory Code Protection bit
  7397                           ;	CP = OFF, Code protection off
  7398  2007                     	org	8199
  7399  2007  3F71               	dw	16241

Data Sizes:
    Strings     0
    Constant    20
    Data        0
    BSS         25
    Persistent  0
    Stack       0

Auto Spaces:
    Space          Size  Autos    Used
    COMMON           14     13      13
    BANK0            80     25      50
    BANK1            80      0       0
    BANK3            96      0       0
    BANK2            96      0       0

Pointer List with Targets:

    RB5_SetCallBack@pFun	PTR FTN()void  size(1) Largest target is 1
		 -> RB5_Handler(), 

    GptrToFun_RB5	PTR FTN()void  size(1) Largest target is 1
		 -> Absolute function(), RB5_Handler(), 

    RB4_SetCallBack@pFun	PTR FTN()void  size(1) Largest target is 1
		 -> RB4_Handler(), 

    GptrToFun_RB4	PTR FTN()void  size(1) Largest target is 1
		 -> Absolute function(), RB4_Handler(), 

    RB0_SetCallBack@pFun	PTR FTN()void  size(1) Largest target is 1
		 -> RB0_Handler(), 

    GptrToFun_RB0	PTR FTN()void  size(1) Largest target is 1
		 -> Absolute function(), RB0_Handler(), 


Critical Paths under _main in COMMON

    None.

Critical Paths under _ISR in COMMON

    i1_ON_Mode->i1_vid_7_Segment_Display_2Digits
    i1_vid_7_Segment_Display_2Digits->i1___awdiv
    i1_vid_Right_7_Segment_DisplayNumber->i1_DIO_SetPinValue
    i1_vid_Left_7_Segment_DisplayNumber->i1_DIO_SetPinValue
    i1_vid_7_Segment_DeInit->i1_DIO_SetPinValue

Critical Paths under _main in BANK0

    _main->_Temp_ControlWaterTemp
    _vid_7_Segment_Init->_DIO_SetPinDirection
    _vid_7_Segment_Init->_DIO_SetPinValue
    _Temp_ControlWaterTemp->___lmul
    _Heater_TurnOn->_DIO_SetPinValue
    _Heater_TurnOff->_DIO_SetPinValue
    _Cooler_TurnOn->_DIO_SetPinValue
    _Cooler_TurnOff->_DIO_SetPinValue
    _TempSensor_Init->_DIO_SetPinDirection
    _SystemVars_Init->_EEPROM_ReadFromEEPROM
    _EEPROM_ReadFromEEPROM->_I2C_Read
    _SetTemp_Mode->_vid_7_Segment_Display_2Digits
    _EEPROM_WriteToEEPROM->_I2C_Write
    _SetCallBacks->_RB0_SetCallBack
    _SetCallBacks->_RB4_SetCallBack
    _SetCallBacks->_RB5_SetCallBack
    _ON_Mode->_vid_7_Segment_Display_2Digits
    _vid_7_Segment_Display_2Digits->___awdiv
    _vid_Right_7_Segment_DisplayNumber->_DIO_SetPinValue
    _vid_Left_7_Segment_DisplayNumber->_DIO_SetPinValue
    _vid_7_Segment_DeInit->_DIO_SetPinValue
    _I2C_Init->_DIO_SetPinDirection
    _Heater_Init->_DIO_SetPinDirection
    _Heater_Init->_DIO_SetPinValue
    _EXT_INT_Init->_DIO_SetPinDirection
    _Cooler_Init->_DIO_SetPinDirection
    _Cooler_Init->_DIO_SetPinValue

Critical Paths under _ISR in BANK0

    None.

Critical Paths under _main in BANK1

    None.

Critical Paths under _ISR in BANK1

    None.

Critical Paths under _main in BANK3

    None.

Critical Paths under _ISR in BANK3

    None.

Critical Paths under _main in BANK2

    None.

Critical Paths under _ISR in BANK2

    None.

Call Graph Tables:

 ---------------------------------------------------------------------------------
 (Depth) Function   	        Calls       Base Space   Used Autos Params    Refs
 ---------------------------------------------------------------------------------
 (0) _main                                                 0     0      0   54133
                        _Cooler_Init
                       _EXT_INT_Init
                        _Heater_Init
                           _I2C_Init
                           _OFF_Mode
                            _ON_Mode
                       _SetCallBacks
                       _SetTemp_Mode
                    _SystemVars_Init
                    _TempSensor_Init
              _Temp_ControlWaterTemp
                 _vid_7_Segment_Init
 ---------------------------------------------------------------------------------
 (1) _vid_7_Segment_Init                                   0     0      0    4602
                _DIO_SetPinDirection
                    _DIO_SetPinValue
               _DIO_SetPortDirection
 ---------------------------------------------------------------------------------
 (2) _DIO_SetPortDirection                                 4     3      1     186
                                              5 BANK0      4     3      1
 ---------------------------------------------------------------------------------
 (1) _Temp_ControlWaterTemp                                7     7      0   11056
                                             18 BANK0      7     7      0
                           _ADC_Read
                     _Cooler_TurnOff
                      _Cooler_TurnOn
                     _Heater_TurnOff
                      _Heater_TurnOn
                             ___lmul
                            ___lwdiv
 ---------------------------------------------------------------------------------
 (2) ___lwdiv                                              7     3      4     316
                                              5 BANK0      7     3      4
 ---------------------------------------------------------------------------------
 (2) ___lmul                                              13     5      8      36
                                              5 BANK0     13     5      8
 ---------------------------------------------------------------------------------
 (2) _Heater_TurnOn                                        0     0      0    2588
                    _DIO_SetPinValue
 ---------------------------------------------------------------------------------
 (2) _Heater_TurnOff                                       0     0      0    2588
                    _DIO_SetPinValue
 ---------------------------------------------------------------------------------
 (2) _Cooler_TurnOn                                        0     0      0    2588
                    _DIO_SetPinValue
 ---------------------------------------------------------------------------------
 (2) _Cooler_TurnOff                                       0     0      0    2588
                    _DIO_SetPinValue
 ---------------------------------------------------------------------------------
 (2) _ADC_Read                                             4     2      2      22
                                              5 BANK0      4     2      2
 ---------------------------------------------------------------------------------
 (1) _TempSensor_Init                                      0     0      0    1828
                           _ADC_Init
                _DIO_SetPinDirection
 ---------------------------------------------------------------------------------
 (2) _ADC_Init                                             0     0      0       0
 ---------------------------------------------------------------------------------
 (1) _SystemVars_Init                                      1     1      0     134
                                              8 BANK0      1     1      0
              _EEPROM_ReadFromEEPROM
               _EEPROM_WriteToEEPROM
 ---------------------------------------------------------------------------------
 (2) _EEPROM_ReadFromEEPROM                                1     1      0      90
                                              7 BANK0      1     1      0
                           _I2CBegin
                            _I2C_End
                           _I2C_Read
                  _I2C_RepeatedStart
                          _I2C_Write
 ---------------------------------------------------------------------------------
 (3) _I2C_RepeatedStart                                    0     0      0       0
                           _I2C_Hold
 ---------------------------------------------------------------------------------
 (3) _I2C_Read                                             2     2      0      45
                                              5 BANK0      2     2      0
                           _I2C_Hold
 ---------------------------------------------------------------------------------
 (1) _SetTemp_Mode                                         5     5      0   12049
                                             18 BANK0      5     5      0
               _EEPROM_WriteToEEPROM
               _vid_7_Segment_DeInit
      _vid_7_Segment_Display_2Digits
 ---------------------------------------------------------------------------------
 (2) _EEPROM_WriteToEEPROM                                 1     1      0      44
                                              6 BANK0      1     1      0
                           _I2CBegin
                            _I2C_End
                          _I2C_Write
 ---------------------------------------------------------------------------------
 (3) _I2C_Write                                            1     1      0      22
                                              5 BANK0      1     1      0
                           _I2C_Hold
 ---------------------------------------------------------------------------------
 (3) _I2C_End                                              0     0      0       0
                           _I2C_Hold
 ---------------------------------------------------------------------------------
 (3) _I2CBegin                                             0     0      0       0
                           _I2C_Hold
 ---------------------------------------------------------------------------------
 (4) _I2C_Hold                                             0     0      0       0
 ---------------------------------------------------------------------------------
 (1) _SetCallBacks                                         0     0      0      66
                    _RB0_SetCallBack
                    _RB4_SetCallBack
                    _RB5_SetCallBack
 ---------------------------------------------------------------------------------
 (2) _RB5_SetCallBack                                      1     1      0      22
                                              5 BANK0      1     1      0
 ---------------------------------------------------------------------------------
 (2) _RB4_SetCallBack                                      1     1      0      22
                                              5 BANK0      1     1      0
 ---------------------------------------------------------------------------------
 (2) _RB0_SetCallBack                                      1     1      0      22
                                              5 BANK0      1     1      0
 ---------------------------------------------------------------------------------
 (1) _ON_Mode                                              0     0      0    9322
      _vid_7_Segment_Display_2Digits
 ---------------------------------------------------------------------------------
 (2) _vid_7_Segment_Display_2Digits                        6     6      0    9322
                                             13 BANK0      5     5      0
                    _DIO_SetPinValue
                            ___awdiv
                            ___awmod
   _vid_Left_7_Segment_DisplayNumber
  _vid_Right_7_Segment_DisplayNumber
 ---------------------------------------------------------------------------------
 (3) _vid_Right_7_Segment_DisplayNumber                    1     1      0    2872
                                             10 BANK0      1     1      0
                    _DIO_SetPinValue
                   _DIO_SetPortValue
 ---------------------------------------------------------------------------------
 (3) _vid_Left_7_Segment_DisplayNumber                     1     1      0    2872
                                             10 BANK0      1     1      0
                    _DIO_SetPinValue
                   _DIO_SetPortValue
 ---------------------------------------------------------------------------------
 (4) _DIO_SetPortValue                                     4     3      1     262
                                              5 BANK0      4     3      1
 ---------------------------------------------------------------------------------
 (3) ___awmod                                              6     2      4     448
                                              5 BANK0      6     2      4
 ---------------------------------------------------------------------------------
 (3) ___awdiv                                              8     4      4     452
                                              5 BANK0      8     4      4
 ---------------------------------------------------------------------------------
 (1) _OFF_Mode                                             0     0      0    2588
               _vid_7_Segment_DeInit
 ---------------------------------------------------------------------------------
 (2) _vid_7_Segment_DeInit                                 0     0      0    2588
                    _DIO_SetPinValue
 ---------------------------------------------------------------------------------
 (1) _I2C_Init                                             0     0      0    1828
                _DIO_SetPinDirection
 ---------------------------------------------------------------------------------
 (1) _Heater_Init                                          0     0      0    4416
                _DIO_SetPinDirection
                    _DIO_SetPinValue
 ---------------------------------------------------------------------------------
 (1) _EXT_INT_Init                                         0     0      0    1828
                _DIO_SetPinDirection
 ---------------------------------------------------------------------------------
 (1) _Cooler_Init                                          0     0      0    4416
                _DIO_SetPinDirection
                    _DIO_SetPinValue
 ---------------------------------------------------------------------------------
 (2) _DIO_SetPinValue                                      5     3      2    2588
                                              5 BANK0      5     3      2
 ---------------------------------------------------------------------------------
 (2) _DIO_SetPinDirection                                  5     3      2    1828
                                              5 BANK0      5     3      2
 ---------------------------------------------------------------------------------
 Estimated maximum stack depth 4
 ---------------------------------------------------------------------------------
 (Depth) Function   	        Calls       Base Space   Used Autos Params    Refs
 ---------------------------------------------------------------------------------
 (5) _ISR                                                  5     5      0    4179
                                              0 BANK0      5     5      0
                   Absolute function *
                    _DIO_GetPinValue
                        _RB0_Handler *
                        _RB4_Handler *
                        _RB5_Handler *
 ---------------------------------------------------------------------------------
 (6) _RB5_Handler                                          0     0      0       0
 ---------------------------------------------------------------------------------
 (6) _RB4_Handler                                          0     0      0       0
 ---------------------------------------------------------------------------------
 (6) _RB0_Handler                                          0     0      0    3846
                         i1_OFF_Mode
                          i1_ON_Mode
 ---------------------------------------------------------------------------------
 (7) i1_ON_Mode                                            0     0      0    3174
    i1_vid_7_Segment_Display_2Digits
 ---------------------------------------------------------------------------------
 (8) i1_vid_7_Segment_Display_2Digits                      6     6      0    3174
                                              8 COMMON     5     5      0
                  i1_DIO_SetPinValue
                          i1___awdiv
                          i1___awmod
 i1_vid_Left_7_Segment_DisplayNumber
i1_vid_Right_7_Segment_DisplayNumber
 ---------------------------------------------------------------------------------
 (9) i1_vid_Right_7_Segment_DisplayNumber                  1     1      0     856
                                              5 COMMON     1     1      0
                  i1_DIO_SetPinValue
                 i1_DIO_SetPortValue
 ---------------------------------------------------------------------------------
 (9) i1_vid_Left_7_Segment_DisplayNumber                   1     1      0     856
                                              5 COMMON     1     1      0
                  i1_DIO_SetPinValue
                 i1_DIO_SetPortValue
 ---------------------------------------------------------------------------------
 (10) i1_DIO_SetPortValue                                  4     3      1     162
                                              0 COMMON     4     3      1
 ---------------------------------------------------------------------------------
 (9) i1___awmod                                            6     2      4     348
                                              0 COMMON     6     2      4
 ---------------------------------------------------------------------------------
 (9) i1___awdiv                                            8     4      4     352
                                              0 COMMON     8     4      4
 ---------------------------------------------------------------------------------
 (7) i1_OFF_Mode                                           0     0      0     672
             i1_vid_7_Segment_DeInit
 ---------------------------------------------------------------------------------
 (8) i1_vid_7_Segment_DeInit                               0     0      0     672
                  i1_DIO_SetPinValue
 ---------------------------------------------------------------------------------
 (10) i1_DIO_SetPinValue                                   5     3      2     672
                                              0 COMMON     5     3      2
 ---------------------------------------------------------------------------------
 (6) _DIO_GetPinValue                                      5     4      1     333
                                              0 COMMON     5     4      1
 ---------------------------------------------------------------------------------
 (6) Absolute function(Fake)                               0     0      0       0
 ---------------------------------------------------------------------------------
 Estimated maximum stack depth 10
 ---------------------------------------------------------------------------------

 Call Graph Graphs:

 _main (ROOT)
   _Cooler_Init
     _DIO_SetPinDirection
     _DIO_SetPinValue
   _EXT_INT_Init
     _DIO_SetPinDirection
   _Heater_Init
     _DIO_SetPinDirection
     _DIO_SetPinValue
   _I2C_Init
     _DIO_SetPinDirection
   _OFF_Mode
     _vid_7_Segment_DeInit
       _DIO_SetPinValue
   _ON_Mode
     _vid_7_Segment_Display_2Digits
       _DIO_SetPinValue
       ___awdiv
       ___awmod
       _vid_Left_7_Segment_DisplayNumber
         _DIO_SetPinValue
         _DIO_SetPortValue
       _vid_Right_7_Segment_DisplayNumber
         _DIO_SetPinValue
         _DIO_SetPortValue
   _SetCallBacks
     _RB0_SetCallBack
     _RB4_SetCallBack
     _RB5_SetCallBack
   _SetTemp_Mode
     _EEPROM_WriteToEEPROM
       _I2CBegin
         _I2C_Hold
       _I2C_End
         _I2C_Hold
       _I2C_Write
         _I2C_Hold
     _vid_7_Segment_DeInit
       _DIO_SetPinValue
     _vid_7_Segment_Display_2Digits
       _DIO_SetPinValue
       ___awdiv
       ___awmod
       _vid_Left_7_Segment_DisplayNumber
         _DIO_SetPinValue
         _DIO_SetPortValue
       _vid_Right_7_Segment_DisplayNumber
         _DIO_SetPinValue
         _DIO_SetPortValue
   _SystemVars_Init
     _EEPROM_ReadFromEEPROM
       _I2CBegin
         _I2C_Hold
       _I2C_End
         _I2C_Hold
       _I2C_Read
         _I2C_Hold
       _I2C_RepeatedStart
         _I2C_Hold
       _I2C_Write
         _I2C_Hold
     _EEPROM_WriteToEEPROM
       _I2CBegin
         _I2C_Hold
       _I2C_End
         _I2C_Hold
       _I2C_Write
         _I2C_Hold
   _TempSensor_Init
     _ADC_Init
     _DIO_SetPinDirection
   _Temp_ControlWaterTemp
     _ADC_Read
     _Cooler_TurnOff
       _DIO_SetPinValue
     _Cooler_TurnOn
       _DIO_SetPinValue
     _Heater_TurnOff
       _DIO_SetPinValue
     _Heater_TurnOn
       _DIO_SetPinValue
     ___lmul
     ___lwdiv
   _vid_7_Segment_Init
     _DIO_SetPinDirection
     _DIO_SetPinValue
     _DIO_SetPortDirection

 _ISR (ROOT)
   Absolute function(Fake) *
   _DIO_GetPinValue *
   _RB0_Handler *
     i1_OFF_Mode
       i1_vid_7_Segment_DeInit
         i1_DIO_SetPinValue
     i1_ON_Mode
       i1_vid_7_Segment_Display_2Digits
         i1_DIO_SetPinValue
         i1___awdiv
         i1___awmod
         i1_vid_Left_7_Segment_DisplayNumber
           i1_DIO_SetPinValue
           i1_DIO_SetPortValue
         i1_vid_Right_7_Segment_DisplayNumber
           i1_DIO_SetPinValue
           i1_DIO_SetPortValue
   _RB4_Handler *
   _RB5_Handler *

 Address spaces:
Name               Size   Autos  Total    Cost      Usage
BITCOMMON            E      0       0       0        0.0%
EEDATA             100      0       0       0        0.0%
NULL                 0      0       0       0        0.0%
CODE                 0      0       0       0        0.0%
COMMON               E      D       D       1       92.9%
BITSFR0              0      0       0       1        0.0%
SFR0                 0      0       0       1        0.0%
BITSFR1              0      0       0       2        0.0%
SFR1                 0      0       0       2        0.0%
STACK                0      0       0       2        0.0%
ABS                  0      0      3F       3        0.0%
BITBANK0            50      0       0       4        0.0%
BITSFR3              0      0       0       4        0.0%
SFR3                 0      0       0       4        0.0%
BANK0               50     19      32       5       62.5%
BITSFR2              0      0       0       5        0.0%
SFR2                 0      0       0       5        0.0%
BITBANK1            50      0       0       6        0.0%
BANK1               50      0       0       7        0.0%
BITBANK3            60      0       0       8        0.0%
BANK3               60      0       0       9        0.0%
BITBANK2            60      0       0      10        0.0%
BANK2               60      0       0      11        0.0%
DATA                 0      0      3F      12        0.0%


Microchip Technology PIC Macro Assembler V2.20 build 20200408173844 
Symbol Table                                                                                   Mon Jul 13 08:26:42 2020

                                           pc 0002                            __size_of_I2C_Write 000F  
                                          l61 0FBC                                            l62 0FCA  
                                          l72 0C67                                            l57 0D0A  
                                          l75 0C81                                            l85 069A  
                           ??_TempSensor_Init 0043                                  ___awdiv@sign 0043  
                                          fsr 0004                               ??_Cooler_TurnOn 0043  
                                ?_RB0_Handler 0070                             ??_DIO_GetPinValue 0071  
                                         l111 0D6F                                           l120 0D8B  
                                         l114 0CD5                                           l202 07E7  
                                         l123 0CE4                                           l212 0EA5  
                                         l117 0CA9                                           l150 01CB  
                                         l302 0E76                                           l126 0CB7  
                                         l231 0C2C                                           l160 01CB  
                                         l136 00FF                                           l225 0C1C  
                                         l129 0D1D                                           l234 0F98  
                                         l171 0351                                           l228 0C24  
                                         l260 0DCA                                           l181 0351  
                                         l271 0C82                                           l263 0F35  
                                         l280 0C4F                                           l274 0C8E  
                                         l283 0C46                                           l291 0F66  
                                         l268 0E48                                           l277 0C3D  
                                         l382 0ED5                                           l286 0CC6  
                                         l640 0549                                           l296 0C9B  
                                         l376 07B0                                           l385 0F05  
                                         l379 0D53                                           l627 0428  
                                         l388 04EE                                           l488 072A  
                                         l746 0770                                           _ISR 054A  
                             __end_of_I2C_End 0C47                                           fsr0 0004  
                                         indf 0000                                  ___awmod@sign 0043  
                            ??_Cooler_TurnOff 0043                                  ?_RB4_Handler 0070  
                                ?_RB5_Handler 0070                                          ?_ISR 0070  
                                        l2010 02A5                                          l2020 02D5  
                                        l2030 02FF                                          l2014 02AB  
                                        l2006 0299                                          l2032 030E  
                                        l2040 033B                                          l2016 02B9  
                                        l2024 02E3                                          l2008 029F  
                                        l2200 03C0                                          l2034 031D  
                                        l2018 02C7                                          l2026 02F9  
                                        l2210 03D2                                          l2202 03C3  
                                        l2050 0E7A                                          l2036 032C  
                                        l2220 03E6                                          l2212 03D7  
                                        l2204 03C7                                          l2052 0E7B  
                                        l2300 0C28                                          l2230 040C  
                                        l2222 03ED                                          l2214 03DB  
                                        l2206 03CC                                          l2054 0E80  
                                        l2062 0E8F                                          l2070 0C82  
                                        l2310 0F22                                          l2302 0F06  
                                        l2240 0424                                          l2232 040D  
                                        l2224 03F1                                          l2216 03DD  
                                        l2208 03CE                                          l2056 0E85  
                                        l2072 0C88                                          l2160 0C35  
                                        l2320 0DB7                                          l2312 0F32  
                                        l2304 0F0B                                          l2400 0E62  
                                        l2234 0414                                          l2226 03F5  
                                        l2218 03E3                                          l2250 04FB  
                                        l2058 0E8A                                          l2330 04C5  
                                        l2162 0C3A                                          l2170 0C43  
                                        l2322 0DBD                                          l2306 0F11  
                                        l2402 0E6E                                          l2410 07BC  
                                        l2340 0103                                          l2228 0406  
                                        l2236 041A                                          l2260 050F  
                                        l2252 04FD                                          l2244 04EF  
                                        l2332 04CF                                          l2164 0CBB  
                                        l2324 0DC5                                          l2316 0DAC  
                                        l2180 0F46                                          l2172 0C47  
                                        l2308 0F1C                                          l2412 07C3  
                                        l2350 0126                                          l2342 0109  
                                        l2238 041F                                          l2270 052E  
                                        l2262 0516                                          l2254 0501  
                                        l2246 04F2                                          l2334 04D7  
                                        l2326 0493                                          l2166 0CC0  
                                        l2318 0DB1                                          l2510 065B  
                                        l2190 0F62                                          l2182 0F4C  
                                        l2174 0C4C                                          l3230 0711  
                                        l3222 06E3                                          l2430 0735  
                                        l2414 07CA                                          l2406 07B4  
                                        l2352 0137                                          l2360 016F  
                                        l2344 010F                                          l2272 0535  
                                        l2264 051A                                          l2256 0506  
                                        l2248 04F6                                          l2336 04E1  
                                        l2328 04BF                                          l2168 0C3E  
                                        l2520 0680                                          l2512 0661  
                                        l2504 065A                                          l2192 0F63  
                                        l2184 0F51                                          l2176 0F39  
                                        l3232 0722                                          l3224 06ED  
                                        l2440 0758                                          l2432 0738  
                                        l3240 0042                                          l2408 07B5  
                                        l2370 01A5                                          l2354 0148  
                                        l2338 0D39                                          l2266 051E  
                                        l2258 050C                                          l2274 053B  
                                        l2530 0694                                          l2522 0687  
                                        l2514 0667                                          l2186 0F58  
                                        l2178 0F3E                                          l3226 06F1  
                                        l2442 075E                                          l2434 073F  
                                        l2426 072B                                          l3250 0091  
                                        l3242 006C                                          l2418 07D1  
                                        l2364 0175                                          l2348 0115  
                                        l2276 0540                                          l2268 0528  
                                        l2196 0EA9                                          l2524 0689  
                                        l2516 066D                                          l2188 0F5C  
                                        l3228 0708                                          l2444 075F  
                                        l2436 0743                                          l2428 072F  
                                        l3260 00A1                                          l3244 007F  
                                        l3236 0032                                          l2366 0185  
                                        l2374 01B5                                          l2358 0159  
                                        l2278 0545                                          l2198 0ED9  
                                        l2526 068D                                          l2518 0672  
                                        l2390 0CAA                                          l2446 0766  
                                        l2438 0747                                          l3262 00A7  
                                        l3246 0087                                          l3238 0036  
                                        l2368 0195                                          l3520 0343  
                                        l2296 0C18                                          l2464 0CF8  
                                        l2528 0693                                          l2480 0FC9  
                                        l2472 0FB6                                          l2392 0C8F  
                                        l2384 0CC7                                          l2448 076C  
                                        l3280 00F5                                          l3272 00D9  
                                        l3264 00BD                                          l3256 0093  
                                        l3248 008B                                          l3522 0161  
                                        l2562 0D54                                          l2650 0F91  
                                        l2490 0C78                                          l2482 0C5C  
                                        l2298 0C20                                          l2474 0FC6  
                                        l2466 0F99                                          l2394 0E4C  
                                        l2386 0C9C                                          l3274 00EA  
                                        l3266 00CE                                          l3258 009D  
                                        l3514 07D9                                          l3290 06C9  
                                        l3524 01BD                                          l2652 0F95  
                                        l2564 0D70                                          l2660 0E2B  
                                        l2492 0C7D                                          l3516 0E97  
                                        l2484 0C60                                          l2476 0FC7  
                                        l2468 0FA7                                          l2396 0E59  
                                        l2388 0CD6                                          l3292 06D8  
                                        l3284 069B                                          l3518 02EB  
                                        l2654 0F96                                          l2646 0F67  
                                        l2662 0E2E                                          l2486 0C66  
                                        l2494 0651                                          l2478 0FC8  
                                        l2566 0D0B                                          l2398 0E5F  
                                        l3286 06B9                                          l2656 0F97  
                                        l2648 0F8B                                          l2664 0E3B  
                                        l2488 0C75                                          l2496 0654  
                                        l2568 0D18                                          l3288 06BE  
                                        l2658 0E1F                                          l2498 0659  
                                        l2666 0771                           __end_of_Heater_Init 0D8C  
                                        u1204 02BF                                          u1205 02BD  
                                        u1230 02FE                                          u1214 02CD  
                                        u1231 02FD                                          u1215 02CB  
                                        u1224 02DB                                          u1160 029F  
                                        u1225 02D9                                          u1161 029E  
                                        u1170 02A5                                          u1171 02A4  
                                        u1244 0305                                          u1180 02AA  
                                        u1500 03C7                                          u1245 0303  
                                        u1181 02A9                                          u1501 03C6  
                                        u1254 0314                                          u1510 03D2  
                                        u1255 0312                                          u1511 03D1  
                                        u1264 0323                                          u1520 03E3  
                                        u1600 04F6                                          u1280 0C88  
                                        u2320 06F1                                          u2400 00CE  
                                        u1265 0321                                          u1521 03E2  
                                        u1601 04F5                                          u1281 0C87  
                                        u2321 06F0                                          u2401 00CD  
                                        u1274 0332                                          u1194 02B1  
                                        u1610 0501                                          u1290 0C8E  
                                        u2410 00EA                                          u1275 0330  
                                        u1195 02AF                                          u1611 0500  
                                        u1291 0C8D                                          u2331 06FA  
                                        u2411 00E9                                          u1700 010F  
                                        u1540 03F5                                          u1620 050C  
                                        u2332 0701                                          u2420 06DF  
                                        u1701 010E                                          u1541 03F4  
                                        u1621 050B                                          u2333 0708  
                                        u2405 00CA                                          u2421 06DE  
                                        u1710 0114                                          u1711 0113  
                                        u1535 03E7                                          u2415 00E6  
                                        u1560 0406                                          u1640 051E  
                                        u2360 0722                                          u1561 0405  
                                        u1641 051D                                          u2361 0721  
                                        u2345 070A                                          u1650 0528  
                                        u1490 0F58                                          u2370 0065  
                                        u1555 03F6                                          u1651 0527  
                                        u1635 0510                                          u1491 0F57  
                                        u2355 0712                                          u1804 01AB  
                                        u1724 011B                                          u1580 041A  
                                        u1900 076C                                          u2380 0091  
                                        u1805 01A9                                          u1725 0119  
                                        u1581 0419                                          u1565 0402  
                                        u2437 0E5D                                          u1901 076B  
                                        u2381 0090                                          u1734 012C  
                                        u1590 041F                                          u1670 053B  
                                        u1910 0FA7                                          u1830 0E6E  
                                        u2390 00A7                                          u1735 012A  
                                        u1591 041E                                          u1575 040E  
                                        u1671 053A                                          u1655 0524  
                                        u2447 067A                                          u1911 0FA6  
                                        u1831 0E6D                                          u1815 0E4F  
                                        u2391 00A6                                          u2375 0060  
                                        u1760 0174                                          u1744 013D  
                                        u1680 0540                                          u1920 0FB5  
                                        u1840 0735                                          u1761 0173  
                                        u1745 013B                                          u1681 053F  
                                        u1665 052F                                          u2457 04CB  
                                        u1921 0FB4                                          u1825 0E65  
                                        u1841 0734                                          u1754 014E  
                                        u1690 0109                                          u1930 0659  
                                        u1755 014C                                          u1691 0108  
                                        u2467 04DD                                          u1931 0658  
                                        u1940 066D                                          u1860 0747  
                                        u1941 066C                                          u1861 0746  
                                        u1774 017B                                          u1950 0687  
                                        u1775 0179                                          u1951 0686  
                                        u1855 0739                                          u1784 018B  
                                        u1960 0693                                          u1880 0758  
                                        u1785 0189                                          u1961 0692  
                                        u1881 0757                                          u1794 019B  
                                        u1795 0199                                          u1875 0748  
                                        u1885 0754                                          u1895 0760  
                                        i1l72 0C5B                                          i1l90 0CF7  
                                        i1l75 0C74                                          i1l98 0DA8  
                                        i1l99 0DA8                    i1DIO_SetPortValue@u8PortId 0073  
                            __end_of_I2CBegin 0C3E                      __size_of_RB4_SetCallBack 0008  
                                        _main 069B                              __end_of_I2C_Hold 0C8F  
                            __end_of_I2C_Init 0E49                              __end_of_I2C_Read 0F67  
                                 ?i1_OFF_Mode 0070                                          btemp 007E  
                             __end_of_ON_Mode 0C68                              __end_of_ADC_Init 0C9C  
                            __end_of_ADC_Read 0E77                             i1_DIO_SetPinValue 01CC  
                                        start 0012                            ?i1_DIO_SetPinValue 0070  
                    __size_of_DIO_SetPinValue 00BC                                         ??_ISR 0039  
               i1DIO_SetPinValue@u8PinValCopy 0071                      __size_of_SystemVars_Init 0032  
                         ??i1_DIO_SetPinValue 0072                                         ?_main 0070  
                              i1___awdiv@sign 0075                           __end_of_Cooler_Init 0D70  
                             __end_of___awdiv 0429                               __end_of___awmod 054A  
                             ___awdiv@divisor 003E                              __end_of_OFF_Mode 0C82  
                             __end_of___lwdiv 0771                            __size_ofi1_ON_Mode 000C  
                                       i1l107 0D38                                         i1l212 0FFF  
                                       i1l108 0D38                                         i1l171 0295  
                                       i1l181 0295                                         i1l247 0598  
                                       i1l239 0561                                         i1l192 03BF  
                                       i1l382 0DF4                                         i1l640 05FD  
                                       i1l385 0E1E                                         i1l379 07FE  
                                       i1l627 048F                                         i1l388 0650  
                             ___awdiv@counter 0042                           ___lmul@multiplicand 0042  
                              i1___awmod@sign 0075                                         fpbase 0000  
                           __end_of_I2C_Write 0CC7                                         pclath 000A  
                     __size_of_Heater_TurnOff 000E                     __end_ofi1_DIO_SetPinValue 0296  
                    __size_of_RB5_SetCallBack 0008                                         status 0003  
                                       wtemp0 007E                            __size_ofi1___awdiv 0067  
                          __size_ofi1___awmod 0059                 i1DIO_SetPinValue@u8PortIdCopy 0074  
                             __initialization 0015                                  __end_of_main 06E3  
              DIO_SetPinDirection@u8PinIdCopy 003E                            i1_DIO_SetPortValue 0FCB  
                                   ??_I2C_End 003E                                        ??_main 0052  
                         __size_ofi1_OFF_Mode 000D                           ?i1_DIO_SetPortValue 0070  
                                 _Heater_Init 0D70                                 ?_SetCallBacks 0070  
                               _GptrToFun_RB0 0031                                 _GptrToFun_RB4 0030  
                               _GptrToFun_RB5 002F                                     ??_ON_Mode 004B  
                            ___awdiv@dividend 0040                               _RB0_SetCallBack 0C15  
                __end_of_DIO_SetPortDirection 07E8                            _vid_7_Segment_Init 0771  
                                      i1l2000 0FE9                                        u110_24 0215  
                                      i1l2100 0454                                        u110_25 0213  
                                      i1l2110 0474                                        i1l2102 0458  
                                      u111_20 023A                                        i1l2112 047B  
                                      i1l2104 045C                                        u111_21 0239  
                                      i1l2106 046D                                        i1l2114 0481  
                                      i1l2130 05B1                                        i1l2122 05A5  
                                      i1l2116 0486                                        i1l2108 0473  
                                      i1l2140 05CA                                        i1l2132 05B5  
                                      i1l2124 05A6                                        i1l2118 048B  
                                      i1l2150 05E9                                        i1l2142 05CE  
                                      i1l2134 05BA                                        i1l2126 05AA  
                                      u104_20 01D3                                        i1l2080 042A  
                                      i1l2144 05D2                                        i1l2136 05C0  
                                      i1l2152 05EF                                        i1l2128 05AF  
                                      u200_20 0DA1                                        u104_21 01D2  
                                      u200_21 0DA0                                        i1l2090 043E  
                                      i1l2082 042E                                        i1l2154 05F4  
                                      i1l2146 05DC                                        i1l2138 05C3  
                                      i1l2074 0DCC                                        u112_24 0241  
                                      i1l2092 0442                                        i1l2084 0433  
                                      i1l2156 05F9                                        i1l2148 05E2  
                                      i1l2076 0DF6                                        u112_25 023F  
                                      i1l2094 0444                                        i1l2086 0435  
                                      i1l2078 0429                                        u105_20 01D9  
                                      i1l2096 044A                                        i1l2088 0439  
                                      u201_20 0D25                                        u105_21 01D8  
                                      u201_21 0D24                                        i1l2282 07E8  
                                      i1l2098 044D                                        i1l2290 0636  
                                      i1l2620 0359                                        u113_24 0252  
                                      i1l2460 0C6B                                        i1l2292 063C  
                                      i1l2284 05FF                                        i1l2452 0C50  
                                      i1l2532 0CE5                                        i1l2540 0D93  
                                      u113_25 0250                                        i1l2630 0393  
                                      i1l2462 0C70                                        i1l2294 0645  
                                      i1l2286 0627                                        i1l2454 0C54  
                                      i1l2534 0CEC                                        i1l2542 0D96  
                                      i1l2550 0D1E                                        i1l2624 0360  
                                      u210_20 035F                                        u106_20 01DE  
                                      u130_20 042E                                        i1l2288 062D  
                                      i1l2456 0C5A                                        i1l2536 0CF2  
                                      i1l2544 0D9B                                        i1l2560 0D35  
                                      u202_20 0D2D                                        i1l2552 0D25  
                                      u210_21 035E                                        u106_21 01DD  
                                      u130_21 042D                                        u202_21 0D2C  
                                      i1l2626 0371                                        i1l2634 03A4  
                                      i1l2618 0353                                        i1l3530 0287  
                                      i1l2458 0C68                                        i1l2546 0DA1  
                                      i1l2538 0D8C                                        i1l2554 0D28  
                                      i1l3532 03AC                                        i1l2628 0382  
                                      i1l2636 03BA                                        u114_24 0263  
                                      i1l2548 0DA5                                        i1l2556 0D2D  
                                      u114_25 0261                                        i1l2638 03BE  
                                      i1l3526 0FF1                                        i1l2558 0D33  
                                      i1l3528 0227                                        i1l1952 01DF  
                                      i1l1944 01CD                                        u131_20 0439  
                                      u203_20 0D33                                        u131_21 0438  
                                      u203_21 0D32                                        i1l1970 024C  
                                      i1l1954 01EF                                        i1l1962 021F  
                                      i1l1946 01D3                                        i1l2690 0574  
                                      i1l2682 054A                                        u211_24 0368  
                                      u115_24 0274                                        i1l1972 025D  
                                      i1l1956 01FF                                        u107_24 01E5  
                                      i1l1964 0235                                        i1l1948 01D9  
                                      i1l2692 057D                                        i1l2684 0556  
                                      u211_25 0366                                        u115_25 0272  
                                      u107_25 01E3                                        i1l1974 026E  
                                      i1l1958 020F                                        i1l1990 0FCD  
                                      i1l2694 058C                                        i1l2686 055C  
                                      i1l1968 023B                                        u132_20 044A  
                                      u140_20 05AA                                        i1l1992 0FD4  
                                      i1l2696 0594                                        i1l2688 0565  
                                      u132_21 0449                                        u140_21 05A9  
                                      i1l1978 027F                                        i1l1994 0FDB  
                                      u212_24 0379                                        u108_24 01F5  
                                      i1l1996 0FE2                                        i1l1988 0FCC  
                                      u212_25 0377                                        u108_25 01F3  
                                      u141_20 05B5                                        u141_21 05B4  
                                      u213_24 038A                                        u109_24 0205  
                                      u213_25 0388                                        u109_25 0203  
                                      u133_25 044E                                        u134_20 045C  
                                      u142_20 05C0                                        u134_21 045B  
                                      u142_21 05BF                                        u214_24 039B  
                                      u214_25 0399                                        u135_25 045D  
                                      u143_25 05C4                                        u215_25 054D  
                                      u136_20 046D                                        u144_20 05D2  
                                      u216_20 0556                                        u136_21 046C  
                                      u144_21 05D1                                        u216_21 0555  
                                      u136_25 0469                                        u209_20 0359  
                                      u145_20 05DC                                        u217_20 0565  
                                      u209_21 0358                                        u145_21 05DB  
                                      u217_21 0564                                        u137_25 0475  
                                      u145_25 05D8                                        u138_20 0481  
                                      u218_20 0574                                        u138_21 0480  
                                      u218_21 0573                                        u146_25 05E3  
                                      u139_20 0486                                        u147_20 05EF  
                                      u219_20 058C                                        u139_21 0485  
                                      u147_21 05EE                                        u219_21 058B  
                                      u148_20 05F4                                        u148_21 05F3  
                                      u247_27 0631                                        u248_27 0640  
                                      u197_20 0CEC                                        u197_21 0CEB  
                                      u198_20 0D93                                        u198_21 0D92  
                                      u199_20 0D9B                                        u199_21 0D9A  
                                  __i1fptable 0023                  __size_of_DIO_SetPinDirection 00CC  
                       __end_of_Heater_TurnOn 0CE5                             __end_ofi1_ON_Mode 0C5C  
                        ??i1_DIO_SetPortValue 0071                           ?_vid_7_Segment_Init 0070  
                    __end_of_DIO_SetPortValue 0EA6                             ??_RB4_SetCallBack 003E  
                                 _Cooler_Init 0D54                                        ___lmul 06E3  
                                   ??___awdiv 0042                                     ??___awmod 0042  
                                   ??___lwdiv 0042                              ___awdiv@quotient 0044  
                             ___awmod@divisor 003E                               ___awmod@counter 0042  
                                   ?_I2CBegin 0070                             ??_DIO_SetPinValue 0040  
                           __end_ofi1___awdiv 0490                             __end_ofi1___awmod 05FE  
                                      fptable 0022                                    _u8_Counter 0032  
                        ??_vid_7_Segment_Init 0043                          __size_of_RB0_Handler 0013  
                                      fptotal 0000                                     ?_I2C_Hold 0070  
                                   ?_I2C_Init 0070                                     ?_I2C_Read 0070  
                           ??_SystemVars_Init 0041                                     ?_ADC_Init 0070  
                                   ?_ADC_Read 003E                                        saved_w 007E  
             ??_vid_7_Segment_Display_2Digits 0046                                ??_SetCallBacks 003F  
                               ?_EXT_INT_Init 0070                 __size_of_vid_7_Segment_DeInit 001B  
                        __size_of_RB4_Handler 001D                          __size_of_RB5_Handler 001B  
                                 _u16_Voltage 002A                    __size_ofi1_DIO_SetPinValue 00CA  
                     __end_of__initialization 001E                               _TempSensor_Init 0D0B  
                               ?_SetTemp_Mode 0070                                     ?_OFF_Mode 0070  
                             _DIO_GetPinValue 0352                                __pcstackCOMMON 0070  
               __size_of_EEPROM_WriteToEEPROM 0022                             ??_RB5_SetCallBack 003E  
                             _SET_Mode_Status 002E                         _EEPROM_ReadFromEEPROM 0F06  
                                  ??_I2CBegin 003E                 DIO_SetPortDirection@u8PortDir 003E  
                     __end_of_RB0_SetCallBack 0C1D                                    ??_I2C_Hold 003E  
                                  ??_I2C_Init 0043                                    ??_I2C_Read 003E  
                                  ??_ADC_Init 003E                                    ??_ADC_Read 0040  
                              ??_EXT_INT_Init 0043    vid_Right_7_Segment_DisplayNumber@u8_Number 0043  
   vid_Left_7_Segment_DisplayNumber@u8_Number 0043  i1vid_Right_7_Segment_DisplayNumber@u8_Number 0075  
 i1vid_Left_7_Segment_DisplayNumber@u8_Number 0075                    DIO_GetPinValue@u8PinIdCopy 0070  
                                  __pbssBANK0 0020                                _Heater_TurnOff 0CAA  
                            _u8_Left_7Segment 0810                                  ??i1_OFF_Mode 0075  
                              ??_SetTemp_Mode 004B                                    ??_OFF_Mode 0043  
                                  __pmaintext 069B                    DIO_SetPinValue@u8PinIdCopy 003E  
                       _Temp_ControlWaterTemp 0032                                       ?___lmul 003E  
                                  __pintentry 0004                                       _I2C_End 0C3E  
               Temp_ControlWaterTemp@iterator 004F                                ___lmul@product 0047  
                        _DIO_SetPortDirection 07B1                         __end_of_Cooler_TurnOn 0CD6  
                       SetTemp_Mode@stability 004E                            i1___awdiv@dividend 0072  
                          __end_ofi1_OFF_Mode 0C75                        __end_of_Heater_TurnOff 0CB8  
                     __end_of_TempSensor_Init 0D1E                                       _ON_Mode 0C5C  
                                _u16_ADC_Read 002C                                    __stringtab 0800  
       __end_of_vid_7_Segment_Display_2Digits 04EF        __size_of_vid_7_Segment_Display_2Digits 005F  
               _vid_7_Segment_Display_2Digits 0490                       __end_of_DIO_GetPinValue 03C0  
                                     i1fpbase 0028                                     _I2C_Write 0CB8  
                          i1___awdiv@quotient 0076                      ??i1_vid_7_Segment_DeInit 0075  
                        __end_of_SetCallBacks 0D0B                        ?_EEPROM_ReadFromEEPROM 0070  
                                     ___awdiv 03C0                               __size_of___lmul 0048  
                                     ___awmod 04EF                                       ___lwdiv 072B  
                       ?_DIO_SetPortDirection 003E                           _DIO_SetPinDirection 0100  
                                     __ptext1 0771                                       __ptext2 07B1  
                                     __ptext3 0032                                       __ptext4 072B  
                                     __ptext5 06E3                                       __ptext6 0CD6  
                                     __ptext7 0CAA                                       __ptext8 0CC7  
                                     __ptext9 0C9C                           __size_of__i1fptable 000F  
                                __size_of_ISR 005B                              ?_RB0_SetCallBack 0070  
                                ?_Heater_Init 0070                              ___awmod@dividend 0040  
                             ?_Heater_TurnOff 0070                                       clrloop0 0C2E  
                        end_of_initialization 001E                               _RB4_SetCallBack 0C1D  
                        ?_DIO_SetPinDirection 003E                       __size_of_Cooler_TurnOff 000E  
                            I2C_Write@u8_Data 003E                                    ?_I2C_Write 0070  
                      ?_Temp_ControlWaterTemp 0070                                 _Set_Temp_Flag 0035  
                        __end_of_EXT_INT_Init 0F99                             ?_DIO_SetPortValue 003E  
                             _DIO_SetPinValue 0296                                   _u8_Temp_Set 0038  
                                ?_Cooler_Init 0070                                     i1_ON_Mode 0C50  
                             _SystemVars_Init 0F99                            ??_DIO_SetPortValue 003F  
                        __end_of_SetTemp_Mode 069B                             __size_of_I2CBegin 0009  
                                   i1___awdiv 0429                             __size_of_I2C_Hold 000D  
                           __size_of_I2C_Init 002A                             __size_of_I2C_Read 0031  
                                   i1___awmod 05A5                             __size_of_ADC_Init 000D  
                           __size_of_ADC_Read 002E                              ?_TempSensor_Init 0070  
                                 _u8_arr_Temp 0020                           I2C_Read@u8_DataRead 003F  
                       ??_DIO_SetPinDirection 0040                               _RB5_SetCallBack 0C25  
                            ?_DIO_GetPinValue 0070       __end_ofi1_vid_7_Segment_Display_2Digits 0651  
    __size_ofi1_vid_7_Segment_Display_2Digits 0053             ??i1_vid_7_Segment_Display_2Digits 0078  
            ?i1_vid_7_Segment_Display_2Digits 0070                ?_vid_7_Segment_Display_2Digits 0070  
             i1_vid_7_Segment_Display_2Digits 05FE                  i1DIO_SetPinValue@u8PinIdCopy 0070  
                 __size_ofi1_DIO_SetPortValue 0035                  __end_of_vid_7_Segment_DeInit 0D54  
             __size_ofi1_vid_7_Segment_DeInit 0017                                    ?i1_ON_Mode 0070  
                           __size_of_OFF_Mode 000D                        ??_DIO_SetPortDirection 003F  
                              __end_of___lmul 072B                                 ??_RB0_Handler 007D  
                    __end_of_u8_Left_7Segment 081A                        __size_of_Heater_TurnOn 000F  
                         RB4_SetCallBack@pFun 003E                   __size_of_vid_7_Segment_Init 0040  
                         start_initialization 0015                       __end_of_RB4_SetCallBack 0C25  
                               ??_RB4_Handler 0070                  __end_of_EEPROM_WriteToEEPROM 0DCB  
                                 __end_of_ISR 05A5                                 ??_RB5_Handler 0070  
                                  ?i1___awdiv 0070                                    ?i1___awmod 0070  
                     __end_of_DIO_SetPinValue 0352                     DIO_SetPortValue@u8PortVal 003E  
                     __end_of_SystemVars_Init 0FCB                         __size_of_SetCallBacks 0013  
                          ADC_Read@u8_Channel 0041                                   ??_I2C_Write 003E  
                                    ??___lmul 0046                             _I2C_RepeatedStart 0C47  
                          i1___awmod@dividend 0072                                      ?_I2C_End 0070  
                          ?_I2C_RepeatedStart 0070                            __end_of__i1fptable 0032  
                                   ___latbits 0002                       __end_of_RB5_SetCallBack 0C2D  
                               __pcstackBANK0 0039                        i1_vid_7_Segment_DeInit 07E8  
                         __end_of_RB0_Handler 0CF8                           ??_I2C_RepeatedStart 003E  
                        __size_of_Heater_Init 001C                                  _SetCallBacks 0CF8  
                                    ?_ON_Mode 0070                  DIO_SetPortDirection@u8PortId 0041  
                         __end_of_RB4_Handler 0DA9                                _Cooler_TurnOff 0C9C  
                       __size_of_EXT_INT_Init 0032                           __end_of_RB5_Handler 0D39  
                               _Heater_TurnOn 0CD6                       ??_EEPROM_ReadFromEEPROM 0040  
                            ___lwdiv@dividend 0040                                   I2C_Read@ack 003E  
                   __end_of_I2C_RepeatedStart 0C50                                     __pfunctab 0022  
                                 ??i1_ON_Mode 007D                                      ?___awdiv 003E  
                                    ?___awmod 003E                                      ?___lwdiv 003E  
                       __size_of_SetTemp_Mode 004A                          __size_of_Cooler_Init 001C  
                           i1___awdiv@divisor 0070                             i1___awdiv@counter 0074  
                                   __pstrings 0800                   DIO_SetPinValue@u8PinValCopy 003F  
                 i1DIO_SetPortValue@u8PortVal 0070                   DIO_GetPinValue@u8PortIdCopy 0073  
                                    _I2CBegin 0C35                              ??_Heater_TurnOff 0043  
                                    _I2C_Hold 0C82                                      _I2C_Init 0E1F  
                                    _I2C_Read 0F36                                      _ADC_Init 0C8F  
                                    _ADC_Read 0E49                              ?_RB4_SetCallBack 0070  
                                _EXT_INT_Init 0F67                                   ??i1___awdiv 0074  
                                 ??i1___awmod 0074                          _vid_7_Segment_DeInit 0D39  
                            ___lwdiv@quotient 0042                     EEPROM_ReadFromEEPROM@Data 0040  
                      __end_of_Cooler_TurnOff 0CAA                             interrupt_function 0004  
                     ??_Temp_ControlWaterTemp 004B                                ?_Heater_TurnOn 0070  
                            ?_DIO_SetPinValue 003E                              ?_SystemVars_Init 0070  
                           _TempChange_Status 0034                                     clear_ram0 0C2D  
                      __size_of_Cooler_TurnOn 000F                                  _SetTemp_Mode 0651  
                         RB5_SetCallBack@pFun 003E                                      _OFF_Mode 0C75  
                 DIO_SetPinValue@u8PortIdCopy 0042                          _EEPROM_WriteToEEPROM 0DA9  
                                 _RB0_Handler 0CE5                              __size_of_I2C_End 0009  
                                 __stringbase 0805                     __size_of_DIO_SetPortValue 002F  
                            ?_RB5_SetCallBack 0070                         ?_vid_7_Segment_DeInit 0070  
                                 _RB4_Handler 0D8C                                   _RB5_Handler 0D1E  
                                    i1fptable 0023                             ___lmul@multiplier 003E  
                                    i1fptotal 0006   __end_ofi1_vid_Right_7_Segment_DisplayNumber 0E1F  
__size_ofi1_vid_Right_7_Segment_DisplayNumber 002A     __end_of_vid_Right_7_Segment_DisplayNumber 0F06  
  __size_of_vid_Right_7_Segment_DisplayNumber 0030           ??_vid_Right_7_Segment_DisplayNumber 0043  
       ??i1_vid_Right_7_Segment_DisplayNumber 0075          ?i1_vid_Right_7_Segment_DisplayNumber 0070  
          ?_vid_Right_7_Segment_DisplayNumber 0070           i1_vid_Right_7_Segment_DisplayNumber 0DF5  
           _vid_Right_7_Segment_DisplayNumber 0ED6                               ?_Cooler_TurnOff 0070  
                               _ON_OFF_Status 0037                              __size_of_ON_Mode 000C  
                    __size_of_RB0_SetCallBack 0008                         ?_EEPROM_WriteToEEPROM 0070  
                 EEPROM_WriteToEEPROM@u8_Data 003F                    __size_of_I2C_RepeatedStart 0009  
                           i1___awmod@divisor 0070             vid_7_Segment_Display_2Digits@Ones 0048  
         i1vid_7_Segment_Display_2Digits@Ones 007A             vid_7_Segment_Display_2Digits@Tens 0049  
         i1vid_7_Segment_Display_2Digits@Tens 007B                             i1___awmod@counter 0074  
                            __size_of___awdiv 0069                              __size_of___awmod 005B  
                            __size_of___lwdiv 0046                             _u8_Right_7Segment 0806  
                          __end_of__stringtab 0806           vid_7_Segment_Display_2Digits@u8_Num 004A  
       i1vid_7_Segment_Display_2Digits@u8_Num 007C                                 _Cooler_TurnOn 0CC7  
                           SetTemp_Mode@count 004F                   __end_of_DIO_SetPinDirection 01CC  
                             ___lwdiv@divisor 003E                               ___lwdiv@counter 0044  
                                    __ptext10 0E49                                      __ptext11 0D0B  
                                    __ptext20 0C3E                                      __ptext12 0C8F  
                                    __ptext21 0C35                                      __ptext13 0F99  
                                    __ptext30 0EA6                                      __ptext22 0C82  
                                    __ptext14 0F06                                      __ptext31 0E77  
                                    __ptext23 0CF8                                      __ptext15 0C47  
                                    __ptext40 0296                                      __ptext32 04EF  
                                    __ptext24 0C25                                      __ptext16 0F36  
                                    __ptext41 0100                                      __ptext33 03C0  
                                    __ptext25 0C1D                                      __ptext17 0651  
                                    __ptext50 0FCB                                      __ptext42 054A  
                                    __ptext34 0C75                                      __ptext26 0C15  
                                    __ptext18 0DA9                                      __ptext51 05A5  
                                    __ptext43 0D1E                                      __ptext35 0D39  
                                    __ptext27 0C5C                                      __ptext19 0CB8  
                                    __ptext52 0429                                      __ptext44 0D8C  
                                    __ptext36 0E1F                                      __ptext28 0490  
                                    __ptext53 0C68                                      __ptext45 0CE5  
                                    __ptext37 0D70                                      __ptext29 0ED6  
                                    __ptext54 07E8                                      __ptext46 0C50  
                                    __ptext38 0F67                                      __ptext55 01CC  
                                    __ptext47 05FE                                      __ptext39 0D54  
                                    __ptext56 0352                                      __ptext48 0DF5  
                                    __ptext49 0DCB                               ??_Heater_TurnOn 0043  
           Temp_ControlWaterTemp@u16_Temp_Avg 0050    __end_ofi1_vid_Left_7_Segment_DisplayNumber 0DF5  
 __size_ofi1_vid_Left_7_Segment_DisplayNumber 002A      __end_of_vid_Left_7_Segment_DisplayNumber 0ED6  
   __size_of_vid_Left_7_Segment_DisplayNumber 0030            ??_vid_Left_7_Segment_DisplayNumber 0043  
        ??i1_vid_Left_7_Segment_DisplayNumber 0075           ?i1_vid_Left_7_Segment_DisplayNumber 0070  
           ?_vid_Left_7_Segment_DisplayNumber 0070            i1_vid_Left_7_Segment_DisplayNumber 0DCB  
            _vid_Left_7_Segment_DisplayNumber 0EA6                    __end_ofi1_DIO_SetPortValue 1000  
                               __size_of_main 0048                      __size_of_TempSensor_Init 0013  
                    __size_of_DIO_GetPinValue 006E                     __end_of_u8_Right_7Segment 0810  
             DIO_SetPinDirection@u8PinDirCopy 003F                 __size_of_DIO_SetPortDirection 0037  
                  __end_of_vid_7_Segment_Init 07B1                       ?i1_vid_7_Segment_DeInit 0070  
                              ?_Cooler_TurnOn 0070                           RB0_SetCallBack@pFun 003E  
                      ??_vid_7_Segment_DeInit 0043                                 _u8_Water_Temp 0033  
                                    intlevel1 0022                                    i1_OFF_Mode 0C68  
                      ??_EEPROM_WriteToEEPROM 003F                                     stringcode 0800  
                           ??_RB0_SetCallBack 003E                __size_of_EEPROM_ReadFromEEPROM 0030  
               __end_of_EEPROM_ReadFromEEPROM 0F36               DIO_SetPinDirection@u8PortIdCopy 0042  
                                 _ON_OFF_Flag 0036                __end_ofi1_vid_7_Segment_DeInit 07FF  
                               ??_Heater_Init 0043                              _DIO_SetPortValue 0E77  
                                    stringdir 0800                                      stringtab 0800  
                DIO_GetPinValue@u8ResultLocal 0074                                fp__RB0_Handler 0029  
              __size_of_Temp_ControlWaterTemp 00CE                                fp__RB4_Handler 002C  
               __end_of_Temp_ControlWaterTemp 0100                                fp__RB5_Handler 002F  
                    DIO_SetPortValue@u8PortId 0041                                 ??_Cooler_Init 0043  
